; ModuleID = '/home/myousaf/Soc_Project/fixedpoint/solution1/.autopilot/db/a.o.3.bc'
target datalayout = "e-p:64:64:64-i1:8:8-i8:8:8-i16:16:16-i32:32:32-i64:64:64-f32:32:32-f64:64:64-v64:64:64-v128:128:128-a0:0:64-s0:64:64-f80:128:128-n8:16:32:64-S128"
target triple = "x86_64-unknown-linux-gnu"

@p_str8 = private unnamed_addr constant [8 x i8] c"WBSlave\00", align 1 ; [#uses=52 type=[8 x i8]*]
@WBSlave_ssdm_thread_M_processBus = external global i1 ; [#uses=1 type=i1*]
@p_str9 = private unnamed_addr constant [11 x i8] c"processBus\00", align 1 ; [#uses=4 type=[11 x i8]*]
@p_str10 = private unnamed_addr constant [4 x i8] c"clk\00", align 1 ; [#uses=7 type=[4 x i8]*]
@p_str11 = private unnamed_addr constant [6 x i8] c"reset\00", align 1 ; [#uses=7 type=[6 x i8]*]
@WBSlave_ssdm_thread_M_processSlave = external global i1 ; [#uses=1 type=i1*]
@p_str12 = private unnamed_addr constant [13 x i8] c"processSlave\00", align 1 ; [#uses=4 type=[13 x i8]*]
@WBSlave_ssdm_thread_M_getLog = external global i1 ; [#uses=1 type=i1*]
@p_str13 = private unnamed_addr constant [7 x i8] c"getLog\00", align 1 ; [#uses=4 type=[7 x i8]*]
@p_str14 = private unnamed_addr constant [7 x i8] c"\22bool\22\00", align 1 ; [#uses=28 type=[7 x i8]*]
@p_str15 = private unnamed_addr constant [8 x i8] c"\22WBInt\22\00", align 1 ; [#uses=12 type=[8 x i8]*]
@p_str16 = private unnamed_addr constant [6 x i8] c"adr_i\00", align 1 ; [#uses=4 type=[6 x i8]*]
@p_str17 = private unnamed_addr constant [6 x i8] c"dat_i\00", align 1 ; [#uses=4 type=[6 x i8]*]
@p_str18 = private unnamed_addr constant [5 x i8] c"we_i\00", align 1 ; [#uses=4 type=[5 x i8]*]
@p_str19 = private unnamed_addr constant [6 x i8] c"stb_i\00", align 1 ; [#uses=4 type=[6 x i8]*]
@p_str20 = private unnamed_addr constant [6 x i8] c"cyc_i\00", align 1 ; [#uses=4 type=[6 x i8]*]
@p_str21 = private unnamed_addr constant [31 x i8] c"\22sc_uint<WBParameters::BYTES>\22\00", align 1 ; [#uses=4 type=[31 x i8]*]
@p_str22 = private unnamed_addr constant [6 x i8] c"sel_i\00", align 1 ; [#uses=4 type=[6 x i8]*]
@p_str23 = private unnamed_addr constant [6 x i8] c"dat_o\00", align 1 ; [#uses=4 type=[6 x i8]*]
@p_str24 = private unnamed_addr constant [6 x i8] c"ack_o\00", align 1 ; [#uses=4 type=[6 x i8]*]
@p_str25 = private unnamed_addr constant [6 x i8] c"int_o\00", align 1 ; [#uses=4 type=[6 x i8]*]
@p_str42 = private unnamed_addr constant [15 x i8] c"__ssdm_reset__\00", align 1 ; [#uses=6 type=[15 x i8]*]
@p_str43 = private unnamed_addr constant [1 x i8] zeroinitializer, align 1 ; [#uses=3 type=[1 x i8]*]
@offsetLUT_V = internal unnamed_addr constant [36 x i21] [i21 -772244, i21 -726817, i21 -681391, i21 -654819, i21 -635965, i21 -609393, i21 -590539, i21 -563967, i21 -545113, i21 -518541, i21 -499687, i21 -473115, i21 -454261, i21 -440808, i21 -427688, i21 -420059, i21 -408835, i21 -399562, i21 -382262, i21 -380708, i21 -363409, i21 -354135, i21 -336836, i21 -331931, i21 -317983, i21 -306100, i21 -291410, i21 -283395, i21 -272557, i21 -256378, i21 -245984, i21 -241754, i21 -230452, i21 -217522, i21 -193700, i21 -190040] ; [#uses=1 type=[36 x i21]*]
@logLUT_V = internal unnamed_addr constant [36 x i21] [i21 -726817, i21 -681391, i21 -635965, i21 -609393, i21 -590539, i21 -563967, i21 -545113, i21 -518541, i21 -499687, i21 -473115, i21 -454261, i21 -427689, i21 -408835, i21 -392657, i21 -382262, i21 -370606, i21 -363409, i21 -354135, i21 -336836, i21 -335282, i21 -317983, i21 -308709, i21 -291410, i21 -289856, i21 -272557, i21 -263283, i21 -245984, i21 -235508, i21 -227130, i21 -210952, i21 -200558, i21 -196328, i21 -181704, i21 -165526, i21 -155132, i21 -150902] ; [#uses=1 type=[36 x i21]*]
@ssdm_ins_WBSlave_0_0_clk_m_if_s = global i1 false ; [#uses=0 type=i1*]
@ssdm_ins_WBSlave_0_0_reset_m_i = global i1 false ; [#uses=0 type=i1*]
@ssdm_ins_WBSlave_0_0_adr_i_m_i = global i32 0    ; [#uses=0 type=i32*]
@ssdm_ins_WBSlave_0_0_dat_i_m_i = global i32 0    ; [#uses=0 type=i32*]
@ssdm_ins_WBSlave_0_0_we_i_m_if = global i1 false ; [#uses=0 type=i1*]
@ssdm_ins_WBSlave_0_0_stb_i_m_i = global i1 false ; [#uses=0 type=i1*]
@ssdm_ins_WBSlave_0_0_cyc_i_m_i = global i1 false ; [#uses=0 type=i1*]
@ssdm_ins_WBSlave_0_0_sel_i_m_i = global i4 0     ; [#uses=0 type=i4*]
@ssdm_ins_WBSlave_0_0_dat_o_m_i = global i32 0    ; [#uses=0 type=i32*]
@ssdm_ins_WBSlave_0_0_ack_o_m_i = global i1 false ; [#uses=0 type=i1*]
@ssdm_ins_WBSlave_0_0_int_o_m_i = global i1 false ; [#uses=0 type=i1*]
@ssdm_ins_WBSlave_0_0_regs = global [16 x i32] zeroinitializer ; [#uses=0 type=[16 x i32]*]
@ssdm_ins_WBSlave_0_0_PBuffer = global [500 x i32] zeroinitializer ; [#uses=0 type=[500 x i32]*]
@ssdm_ins_WBSlave_0_0_CTRL_ADDR = global i3 0     ; [#uses=0 type=i3*]
@ssdm_ins_WBSlave_0_0_STAT_ADDR = global i3 1     ; [#uses=0 type=i3*]
@ssdm_ins_WBSlave_0_0_log_in_V = global i21 0     ; [#uses=0 type=i21*]
@ssdm_ins_WBSlave_0_0_log_out_V = global i21 0    ; [#uses=0 type=i21*]
@ssdm_ins_WBSlave_0_0_log_start = global i1 false ; [#uses=0 type=i1*]
@ssdm_ins_WBSlave_0_0_log_done_s = global i1 false ; [#uses=0 type=i1*]
@ssdm_ins_WBSlave_0_0_REG0_ADDR = global i3 2     ; [#uses=0 type=i3*]
@ssdm_ins_WBSlave_0_0_REG1_ADDR = global i3 3     ; [#uses=0 type=i3*]
@ssdm_ins_WBSlave_0_0_REG2_ADDR = global i3 -4    ; [#uses=0 type=i3*]
@ssdm_ins_WBSlave_0_0_REG3_ADDR = global i3 -3    ; [#uses=0 type=i3*]
@ssdm_ins_WBSlave_0_0_REG4_ADDR = global i3 -2    ; [#uses=0 type=i3*]
@ssdm_ins_WBSlave_0_0_DELAY_ADD = global i3 -1    ; [#uses=0 type=i3*]
@ssdm_ins_WBSlave_0_0_LAST_ADDR = global i3 -1    ; [#uses=0 type=i3*]
@llvm_global_ctors_0 = appending global [1 x i32] [i32 65535] ; [#uses=0 type=[1 x i32]*]
@llvm_global_ctors_1 = appending global [1 x void ()*] [void ()* @_GLOBAL__I_a] ; [#uses=0 type=[1 x void ()*]*]
@inputLUT_V = internal unnamed_addr constant [36 x i13] [i13 1, i13 2, i13 4, i13 6, i13 8, i13 12, i13 16, i13 24, i13 32, i13 48, i13 64, i13 96, i13 128, i13 164, i13 192, i13 229, i13 256, i13 295, i13 384, i13 393, i13 512, i13 590, i13 768, i13 786, i13 1024, i13 1180, i13 1536, i13 1802, i13 2048, i13 2621, i13 3072, i13 3277, i13 -4096, i13 -2949, i13 -2048, i13 -1638] ; [#uses=2 type=[36 x i13]*]
@gradientLUT_V = internal unnamed_addr constant [36 x i31] [i31 -1, i31 -658961381, i31 744261133, i31 496174089, i31 372130567, i31 248087044, i31 186065547, i31 124043639, i31 93032878, i31 62021895, i31 46516306, i31 31010900, i31 23258134, i31 19260593, i31 15505427, i31 14129470, i31 11629080, i31 10094687, i31 7752717, i31 7571016, i31 5814540, i31 5047344, i31 3876360, i31 3506300, i31 2907270, i31 2378682, i31 1938180, i31 1741326, i31 1453635, i31 1135652, i31 969090, i31 908522, i31 779966, i31 649953, i31 411390, i31 391377] ; [#uses=1 type=[36 x i31]*]

; [#uses=0]
define void @"WBSlave::WBSlave"(i1* %WBSlave_clk_m_if_Val, i1* %WBSlave_reset_m_if_Val, i32* %WBSlave_adr_i_m_if_Val_V, i32* %WBSlave_dat_i_m_if_Val_V, i1* %WBSlave_we_i_m_if_Val, i1* %WBSlave_stb_i_m_if_Val, i1* %WBSlave_cyc_i_m_if_Val, i4* %WBSlave_sel_i_m_if_Val_V, i32* %WBSlave_dat_o_m_if_Val_V, i1* %WBSlave_ack_o_m_if_Val, i1* %WBSlave_int_o_m_if_Val, [16 x i32]* %WBSlave_regs, [500 x i32]* %WBSlave_PBuffer, i3* %WBSlave_CTRL_ADDR_V, i3* %WBSlave_STAT_ADDR_V, i21* %WBSlave_log_in_V, i21* %WBSlave_log_out_V, i1* %WBSlave_log_start_V, i1* %WBSlave_log_done_V, i3* %WBSlave_REG0_ADDR_V, i3* %WBSlave_REG1_ADDR_V, i3* %WBSlave_REG2_ADDR_V, i3* %WBSlave_REG3_ADDR_V, i3* %WBSlave_REG4_ADDR_V, i3* %WBSlave_DELAY_ADDR_V, i3* %WBSlave_LAST_ADDR_V) {
  call void (...)* @_ssdm_op_SpecBitsMap(i1* %WBSlave_clk_m_if_Val), !map !156
  call void (...)* @_ssdm_op_SpecBitsMap(i1* %WBSlave_reset_m_if_Val), !map !160
  call void (...)* @_ssdm_op_SpecBitsMap(i32* %WBSlave_adr_i_m_if_Val_V), !map !164
  call void (...)* @_ssdm_op_SpecBitsMap(i32* %WBSlave_dat_i_m_if_Val_V), !map !168
  call void (...)* @_ssdm_op_SpecBitsMap(i1* %WBSlave_we_i_m_if_Val), !map !172
  call void (...)* @_ssdm_op_SpecBitsMap(i1* %WBSlave_stb_i_m_if_Val), !map !176
  call void (...)* @_ssdm_op_SpecBitsMap(i1* %WBSlave_cyc_i_m_if_Val), !map !180
  call void (...)* @_ssdm_op_SpecBitsMap(i4* %WBSlave_sel_i_m_if_Val_V), !map !184
  call void (...)* @_ssdm_op_SpecBitsMap(i32* %WBSlave_dat_o_m_if_Val_V), !map !188
  call void (...)* @_ssdm_op_SpecBitsMap(i1* %WBSlave_ack_o_m_if_Val), !map !192
  call void (...)* @_ssdm_op_SpecBitsMap(i1* %WBSlave_int_o_m_if_Val), !map !196
  call void (...)* @_ssdm_op_SpecBitsMap([16 x i32]* %WBSlave_regs), !map !200
  call void (...)* @_ssdm_op_SpecBitsMap([500 x i32]* %WBSlave_PBuffer), !map !204
  call void (...)* @_ssdm_op_SpecBitsMap(i3* %WBSlave_CTRL_ADDR_V), !map !208
  call void (...)* @_ssdm_op_SpecBitsMap(i3* %WBSlave_STAT_ADDR_V), !map !212
  call void (...)* @_ssdm_op_SpecBitsMap(i21* %WBSlave_log_in_V), !map !216
  call void (...)* @_ssdm_op_SpecBitsMap(i21* %WBSlave_log_out_V), !map !220
  call void (...)* @_ssdm_op_SpecBitsMap(i1* %WBSlave_log_start_V), !map !224
  call void (...)* @_ssdm_op_SpecBitsMap(i1* %WBSlave_log_done_V), !map !228
  call void (...)* @_ssdm_op_SpecBitsMap(i3* %WBSlave_REG0_ADDR_V), !map !232
  call void (...)* @_ssdm_op_SpecBitsMap(i3* %WBSlave_REG1_ADDR_V), !map !236
  call void (...)* @_ssdm_op_SpecBitsMap(i3* %WBSlave_REG2_ADDR_V), !map !240
  call void (...)* @_ssdm_op_SpecBitsMap(i3* %WBSlave_REG3_ADDR_V), !map !244
  call void (...)* @_ssdm_op_SpecBitsMap(i3* %WBSlave_REG4_ADDR_V), !map !248
  call void (...)* @_ssdm_op_SpecBitsMap(i3* %WBSlave_DELAY_ADDR_V), !map !252
  call void (...)* @_ssdm_op_SpecBitsMap(i3* %WBSlave_LAST_ADDR_V), !map !256
  call void @llvm.dbg.value(metadata !{i1* %WBSlave_clk_m_if_Val}, i64 0, metadata !260), !dbg !6492 ; [debug line = 6:10] [debug variable = WBSlave.clk.m_if.Val]
  call void @llvm.dbg.value(metadata !{i1* %WBSlave_reset_m_if_Val}, i64 0, metadata !6493), !dbg !6492 ; [debug line = 6:10] [debug variable = WBSlave.reset.m_if.Val]
  call void @llvm.dbg.value(metadata !{i32* %WBSlave_adr_i_m_if_Val_V}, i64 0, metadata !6494), !dbg !6492 ; [debug line = 6:10] [debug variable = WBSlave.adr_i.m_if.Val.V]
  call void @llvm.dbg.value(metadata !{i32* %WBSlave_dat_i_m_if_Val_V}, i64 0, metadata !6510), !dbg !6492 ; [debug line = 6:10] [debug variable = WBSlave.dat_i.m_if.Val.V]
  call void @llvm.dbg.value(metadata !{i1* %WBSlave_we_i_m_if_Val}, i64 0, metadata !6511), !dbg !6492 ; [debug line = 6:10] [debug variable = WBSlave.we_i.m_if.Val]
  call void @llvm.dbg.value(metadata !{i1* %WBSlave_stb_i_m_if_Val}, i64 0, metadata !6512), !dbg !6492 ; [debug line = 6:10] [debug variable = WBSlave.stb_i.m_if.Val]
  call void @llvm.dbg.value(metadata !{i1* %WBSlave_cyc_i_m_if_Val}, i64 0, metadata !6513), !dbg !6492 ; [debug line = 6:10] [debug variable = WBSlave.cyc_i.m_if.Val]
  call void @llvm.dbg.value(metadata !{i4* %WBSlave_sel_i_m_if_Val_V}, i64 0, metadata !6514), !dbg !6492 ; [debug line = 6:10] [debug variable = WBSlave.sel_i.m_if.Val.V]
  call void @llvm.dbg.value(metadata !{i32* %WBSlave_dat_o_m_if_Val_V}, i64 0, metadata !6530), !dbg !6492 ; [debug line = 6:10] [debug variable = WBSlave.dat_o.m_if.Val.V]
  call void @llvm.dbg.value(metadata !{i1* %WBSlave_ack_o_m_if_Val}, i64 0, metadata !6541), !dbg !6492 ; [debug line = 6:10] [debug variable = WBSlave.ack_o.m_if.Val]
  call void @llvm.dbg.value(metadata !{i1* %WBSlave_int_o_m_if_Val}, i64 0, metadata !6552), !dbg !6492 ; [debug line = 6:10] [debug variable = WBSlave.int_o.m_if.Val]
  call void @llvm.dbg.value(metadata !{[16 x i32]* %WBSlave_regs}, i64 0, metadata !6553), !dbg !6492 ; [debug line = 6:10] [debug variable = WBSlave.regs]
  call void @llvm.dbg.value(metadata !{[500 x i32]* %WBSlave_PBuffer}, i64 0, metadata !6557), !dbg !6492 ; [debug line = 6:10] [debug variable = WBSlave.PBuffer]
  call void @llvm.dbg.value(metadata !{i3* %WBSlave_CTRL_ADDR_V}, i64 0, metadata !6561), !dbg !6492 ; [debug line = 6:10] [debug variable = WBSlave.CTRL_ADDR.V]
  call void @llvm.dbg.value(metadata !{i3* %WBSlave_STAT_ADDR_V}, i64 0, metadata !6571), !dbg !6492 ; [debug line = 6:10] [debug variable = WBSlave.STAT_ADDR.V]
  call void @llvm.dbg.value(metadata !{i21* %WBSlave_log_in_V}, i64 0, metadata !6572), !dbg !6492 ; [debug line = 6:10] [debug variable = WBSlave.log_in.V]
  call void @llvm.dbg.value(metadata !{i21* %WBSlave_log_out_V}, i64 0, metadata !6582), !dbg !6492 ; [debug line = 6:10] [debug variable = WBSlave.log_out.V]
  call void @llvm.dbg.value(metadata !{i1* %WBSlave_log_start_V}, i64 0, metadata !6583), !dbg !6492 ; [debug line = 6:10] [debug variable = WBSlave.log_start.V]
  call void @llvm.dbg.value(metadata !{i1* %WBSlave_log_done_V}, i64 0, metadata !6593), !dbg !6492 ; [debug line = 6:10] [debug variable = WBSlave.log_done.V]
  call void @llvm.dbg.value(metadata !{i3* %WBSlave_REG0_ADDR_V}, i64 0, metadata !6594), !dbg !6492 ; [debug line = 6:10] [debug variable = WBSlave.REG0_ADDR.V]
  call void @llvm.dbg.value(metadata !{i3* %WBSlave_REG1_ADDR_V}, i64 0, metadata !6595), !dbg !6492 ; [debug line = 6:10] [debug variable = WBSlave.REG1_ADDR.V]
  call void @llvm.dbg.value(metadata !{i3* %WBSlave_REG2_ADDR_V}, i64 0, metadata !6596), !dbg !6492 ; [debug line = 6:10] [debug variable = WBSlave.REG2_ADDR.V]
  call void @llvm.dbg.value(metadata !{i3* %WBSlave_REG3_ADDR_V}, i64 0, metadata !6597), !dbg !6492 ; [debug line = 6:10] [debug variable = WBSlave.REG3_ADDR.V]
  call void @llvm.dbg.value(metadata !{i3* %WBSlave_REG4_ADDR_V}, i64 0, metadata !6598), !dbg !6492 ; [debug line = 6:10] [debug variable = WBSlave.REG4_ADDR.V]
  call void @llvm.dbg.value(metadata !{i3* %WBSlave_DELAY_ADDR_V}, i64 0, metadata !6599), !dbg !6492 ; [debug line = 6:10] [debug variable = WBSlave.DELAY_ADDR.V]
  call void @llvm.dbg.value(metadata !{i3* %WBSlave_LAST_ADDR_V}, i64 0, metadata !6600), !dbg !6492 ; [debug line = 6:10] [debug variable = WBSlave.LAST_ADDR.V]
  call void @_ssdm_op_Write.ap_auto.i3P(i3* %WBSlave_CTRL_ADDR_V, i3 0), !dbg !6601 ; [debug line = 1501:9@350:92@350:94@16:2]
  call void @_ssdm_op_Write.ap_auto.i3P(i3* %WBSlave_STAT_ADDR_V, i3 1), !dbg !6601 ; [debug line = 1501:9@350:92@350:94@16:2]
  call void @_ssdm_op_Write.ap_auto.i3P(i3* %WBSlave_REG0_ADDR_V, i3 2), !dbg !6601 ; [debug line = 1501:9@350:92@350:94@16:2]
  call void @_ssdm_op_Write.ap_auto.i3P(i3* %WBSlave_REG1_ADDR_V, i3 3), !dbg !6601 ; [debug line = 1501:9@350:92@350:94@16:2]
  call void @_ssdm_op_Write.ap_auto.i3P(i3* %WBSlave_REG2_ADDR_V, i3 -4), !dbg !6601 ; [debug line = 1501:9@350:92@350:94@16:2]
  call void @_ssdm_op_Write.ap_auto.i3P(i3* %WBSlave_REG3_ADDR_V, i3 -3), !dbg !6601 ; [debug line = 1501:9@350:92@350:94@16:2]
  call void @_ssdm_op_Write.ap_auto.i3P(i3* %WBSlave_REG4_ADDR_V, i3 -2), !dbg !6601 ; [debug line = 1501:9@350:92@350:94@16:2]
  call void @_ssdm_op_Write.ap_auto.i3P(i3* %WBSlave_DELAY_ADDR_V, i3 -1), !dbg !6601 ; [debug line = 1501:9@350:92@350:94@16:2]
  call void @_ssdm_op_Write.ap_auto.i3P(i3* %WBSlave_LAST_ADDR_V, i3 -1), !dbg !6601 ; [debug line = 1501:9@350:92@350:94@16:2]
  call void (...)* @_ssdm_op_SpecTopModule([8 x i8]* @p_str8, [8 x i8]* @p_str8) nounwind, !dbg !6609 ; [debug line = 17:3]
  %WBSlave_ssdm_thread_M_proce = load i1* @WBSlave_ssdm_thread_M_processBus, align 1, !dbg !6611 ; [#uses=1 type=i1] [debug line = 18:3]
  br i1 %WBSlave_ssdm_thread_M_proce, label %1, label %2, !dbg !6611 ; [debug line = 18:3]

; <label>:1                                       ; preds = %0
  call void @"WBSlave::WBSlave_WBSlave::processBus"(i1* %WBSlave_clk_m_if_Val, i1* %WBSlave_reset_m_if_Val, i32* %WBSlave_adr_i_m_if_Val_V, i32* %WBSlave_dat_i_m_if_Val_V, i1* %WBSlave_we_i_m_if_Val, i1* %WBSlave_stb_i_m_if_Val, i1* %WBSlave_cyc_i_m_if_Val, i4* %WBSlave_sel_i_m_if_Val_V, i32* %WBSlave_dat_o_m_if_Val_V, i1* %WBSlave_ack_o_m_if_Val, i1* %WBSlave_int_o_m_if_Val, [16 x i32]* %WBSlave_regs, [500 x i32]* %WBSlave_PBuffer, i3* %WBSlave_CTRL_ADDR_V, i3* %WBSlave_STAT_ADDR_V, i21* %WBSlave_log_in_V, i21* %WBSlave_log_out_V, i1* %WBSlave_log_start_V, i1* %WBSlave_log_done_V, i3* %WBSlave_REG0_ADDR_V, i3* %WBSlave_REG1_ADDR_V, i3* %WBSlave_REG2_ADDR_V, i3* %WBSlave_REG3_ADDR_V, i3* %WBSlave_REG4_ADDR_V, i3* %WBSlave_DELAY_ADDR_V, i3* %WBSlave_LAST_ADDR_V), !dbg !6612 ; [debug line = 18:35]
  br label %UnifiedUnreachableBlock

; <label>:2                                       ; preds = %0
  call void (...)* @_ssdm_op_SpecProcessDecl([8 x i8]* @p_str8, i32 2, [11 x i8]* @p_str9) nounwind, !dbg !6613 ; [debug line = 18:49]
  call void (...)* @_ssdm_op_SpecSensitive([11 x i8]* @p_str9, [4 x i8]* @p_str10, i1* %WBSlave_clk_m_if_Val, i32 1) nounwind, !dbg !6614 ; [debug line = 19:3]
  call void (...)* @_ssdm_op_SpecSensitive([11 x i8]* @p_str9, [6 x i8]* @p_str11, i1* %WBSlave_reset_m_if_Val, i32 3) nounwind, !dbg !6615 ; [debug line = 20:3]
  %WBSlave_ssdm_thread_M_proce_1 = load i1* @WBSlave_ssdm_thread_M_processSlave, align 1, !dbg !6616 ; [#uses=1 type=i1] [debug line = 21:3]
  br i1 %WBSlave_ssdm_thread_M_proce_1, label %3, label %4, !dbg !6616 ; [debug line = 21:3]

; <label>:3                                       ; preds = %2
  call void @"WBSlave::WBSlave_WBSlave::processSlave"(i1* %WBSlave_clk_m_if_Val, i1* %WBSlave_reset_m_if_Val, i32* %WBSlave_adr_i_m_if_Val_V, i32* %WBSlave_dat_i_m_if_Val_V, i1* %WBSlave_we_i_m_if_Val, i1* %WBSlave_stb_i_m_if_Val, i1* %WBSlave_cyc_i_m_if_Val, i4* %WBSlave_sel_i_m_if_Val_V, i32* %WBSlave_dat_o_m_if_Val_V, i1* %WBSlave_ack_o_m_if_Val, i1* %WBSlave_int_o_m_if_Val, [16 x i32]* %WBSlave_regs, [500 x i32]* %WBSlave_PBuffer, i3* %WBSlave_CTRL_ADDR_V, i3* %WBSlave_STAT_ADDR_V, i21* %WBSlave_log_in_V, i21* %WBSlave_log_out_V, i1* %WBSlave_log_start_V, i1* %WBSlave_log_done_V, i3* %WBSlave_REG0_ADDR_V, i3* %WBSlave_REG1_ADDR_V, i3* %WBSlave_REG2_ADDR_V, i3* %WBSlave_REG3_ADDR_V, i3* %WBSlave_REG4_ADDR_V, i3* %WBSlave_DELAY_ADDR_V, i3* %WBSlave_LAST_ADDR_V), !dbg !6617 ; [debug line = 21:37]
  br label %UnifiedUnreachableBlock

; <label>:4                                       ; preds = %2
  call void (...)* @_ssdm_op_SpecProcessDecl([8 x i8]* @p_str8, i32 2, [13 x i8]* @p_str12) nounwind, !dbg !6618 ; [debug line = 21:53]
  call void (...)* @_ssdm_op_SpecSensitive([13 x i8]* @p_str12, [4 x i8]* @p_str10, i1* %WBSlave_clk_m_if_Val, i32 1) nounwind, !dbg !6619 ; [debug line = 22:3]
  call void (...)* @_ssdm_op_SpecSensitive([13 x i8]* @p_str12, [6 x i8]* @p_str11, i1* %WBSlave_reset_m_if_Val, i32 3) nounwind, !dbg !6620 ; [debug line = 23:3]
  %WBSlave_ssdm_thread_M_getLo = load i1* @WBSlave_ssdm_thread_M_getLog, align 1, !dbg !6621 ; [#uses=1 type=i1] [debug line = 24:3]
  br i1 %WBSlave_ssdm_thread_M_getLo, label %5, label %6, !dbg !6621 ; [debug line = 24:3]

; <label>:5                                       ; preds = %4
  call void @"WBSlave::WBSlave_WBSlave::getLog"(i1* %WBSlave_clk_m_if_Val, i1* %WBSlave_reset_m_if_Val, i32* %WBSlave_adr_i_m_if_Val_V, i32* %WBSlave_dat_i_m_if_Val_V, i1* %WBSlave_we_i_m_if_Val, i1* %WBSlave_stb_i_m_if_Val, i1* %WBSlave_cyc_i_m_if_Val, i4* %WBSlave_sel_i_m_if_Val_V, i32* %WBSlave_dat_o_m_if_Val_V, i1* %WBSlave_ack_o_m_if_Val, i1* %WBSlave_int_o_m_if_Val, [16 x i32]* %WBSlave_regs, [500 x i32]* %WBSlave_PBuffer, i3* %WBSlave_CTRL_ADDR_V, i3* %WBSlave_STAT_ADDR_V, i21* %WBSlave_log_in_V, i21* %WBSlave_log_out_V, i1* %WBSlave_log_start_V, i1* %WBSlave_log_done_V, i3* %WBSlave_REG0_ADDR_V, i3* %WBSlave_REG1_ADDR_V, i3* %WBSlave_REG2_ADDR_V, i3* %WBSlave_REG3_ADDR_V, i3* %WBSlave_REG4_ADDR_V, i3* %WBSlave_DELAY_ADDR_V, i3* %WBSlave_LAST_ADDR_V), !dbg !6622 ; [debug line = 24:31]
  br label %UnifiedUnreachableBlock

; <label>:6                                       ; preds = %4
  call void (...)* @_ssdm_op_SpecProcessDecl([8 x i8]* @p_str8, i32 2, [7 x i8]* @p_str13) nounwind, !dbg !6623 ; [debug line = 24:41]
  call void (...)* @_ssdm_op_SpecSensitive([7 x i8]* @p_str13, [4 x i8]* @p_str10, i1* %WBSlave_clk_m_if_Val, i32 1) nounwind, !dbg !6624 ; [debug line = 25:3]
  call void (...)* @_ssdm_op_SpecSensitive([7 x i8]* @p_str13, [6 x i8]* @p_str11, i1* %WBSlave_reset_m_if_Val, i32 3) nounwind, !dbg !6625 ; [debug line = 26:3]
  call void (...)* @_ssdm_op_SpecPort([8 x i8]* @p_str8, i32 0, [7 x i8]* @p_str14, [4 x i8]* @p_str10, i32 0, i32 0, i1* %WBSlave_clk_m_if_Val) nounwind, !dbg !6626 ; [debug line = 27:3]
  call void (...)* @_ssdm_op_SpecPort([8 x i8]* @p_str8, i32 0, [7 x i8]* @p_str14, [6 x i8]* @p_str11, i32 0, i32 0, i1* %WBSlave_reset_m_if_Val) nounwind, !dbg !6627 ; [debug line = 28:3]
  call void (...)* @_ssdm_op_SpecPort([8 x i8]* @p_str8, i32 0, [8 x i8]* @p_str15, [6 x i8]* @p_str16, i32 0, i32 0, i32* %WBSlave_adr_i_m_if_Val_V) nounwind, !dbg !6628 ; [debug line = 29:3]
  call void (...)* @_ssdm_op_SpecPort([8 x i8]* @p_str8, i32 0, [8 x i8]* @p_str15, [6 x i8]* @p_str17, i32 0, i32 0, i32* %WBSlave_dat_i_m_if_Val_V) nounwind, !dbg !6629 ; [debug line = 30:3]
  call void (...)* @_ssdm_op_SpecPort([8 x i8]* @p_str8, i32 0, [7 x i8]* @p_str14, [5 x i8]* @p_str18, i32 0, i32 0, i1* %WBSlave_we_i_m_if_Val) nounwind, !dbg !6630 ; [debug line = 31:3]
  call void (...)* @_ssdm_op_SpecPort([8 x i8]* @p_str8, i32 0, [7 x i8]* @p_str14, [6 x i8]* @p_str19, i32 0, i32 0, i1* %WBSlave_stb_i_m_if_Val) nounwind, !dbg !6631 ; [debug line = 32:3]
  call void (...)* @_ssdm_op_SpecPort([8 x i8]* @p_str8, i32 0, [7 x i8]* @p_str14, [6 x i8]* @p_str20, i32 0, i32 0, i1* %WBSlave_cyc_i_m_if_Val) nounwind, !dbg !6632 ; [debug line = 33:3]
  call void (...)* @_ssdm_op_SpecPort([8 x i8]* @p_str8, i32 0, [31 x i8]* @p_str21, [6 x i8]* @p_str22, i32 0, i32 0, i4* %WBSlave_sel_i_m_if_Val_V) nounwind, !dbg !6633 ; [debug line = 34:3]
  call void (...)* @_ssdm_op_SpecPort([8 x i8]* @p_str8, i32 1, [8 x i8]* @p_str15, [6 x i8]* @p_str23, i32 0, i32 0, i32* %WBSlave_dat_o_m_if_Val_V) nounwind, !dbg !6634 ; [debug line = 35:3]
  call void (...)* @_ssdm_op_SpecPort([8 x i8]* @p_str8, i32 1, [7 x i8]* @p_str14, [6 x i8]* @p_str24, i32 0, i32 0, i1* %WBSlave_ack_o_m_if_Val) nounwind, !dbg !6635 ; [debug line = 36:3]
  call void (...)* @_ssdm_op_SpecPort([8 x i8]* @p_str8, i32 1, [7 x i8]* @p_str14, [6 x i8]* @p_str25, i32 0, i32 0, i1* %WBSlave_int_o_m_if_Val) nounwind, !dbg !6636 ; [debug line = 37:3]
  ret void, !dbg !6637                            ; [debug line = 12:1]

UnifiedUnreachableBlock:                          ; preds = %5, %3, %1
  unreachable
}

; [#uses=1]
declare void @llvm.dbg.declare(metadata, metadata) nounwind readnone

; [#uses=1]
define weak void @_ssdm_op_SpecTopModule(...) nounwind {
entry:
  ret void
}

; [#uses=1]
define void @"WBSlave::WBSlave_WBSlave::processBus"(i1* %WBSlave_clk_m_if_Val, i1* %WBSlave_reset_m_if_Val, i32* %WBSlave_adr_i_m_if_Val_V, i32* %WBSlave_dat_i_m_if_Val_V, i1* %WBSlave_we_i_m_if_Val, i1* %WBSlave_stb_i_m_if_Val, i1* %WBSlave_cyc_i_m_if_Val, i4* %WBSlave_sel_i_m_if_Val_V, i32* %WBSlave_dat_o_m_if_Val_V, i1* %WBSlave_ack_o_m_if_Val, i1* %WBSlave_int_o_m_if_Val, [16 x i32]* %WBSlave_regs, [500 x i32]* %WBSlave_PBuffer, i3* %WBSlave_CTRL_ADDR_V, i3* %WBSlave_STAT_ADDR_V, i21* %WBSlave_log_in_V, i21* %WBSlave_log_out_V, i1* %WBSlave_log_start_V, i1* %WBSlave_log_done_V, i3* %WBSlave_REG0_ADDR_V, i3* %WBSlave_REG1_ADDR_V, i3* %WBSlave_REG2_ADDR_V, i3* %WBSlave_REG3_ADDR_V, i3* %WBSlave_REG4_ADDR_V, i3* %WBSlave_DELAY_ADDR_V, i3* %WBSlave_LAST_ADDR_V) {
  call void (...)* @_ssdm_op_SpecBitsMap(i1* %WBSlave_clk_m_if_Val), !map !156
  call void (...)* @_ssdm_op_SpecBitsMap(i1* %WBSlave_reset_m_if_Val), !map !160
  call void (...)* @_ssdm_op_SpecBitsMap(i32* %WBSlave_adr_i_m_if_Val_V), !map !164
  call void (...)* @_ssdm_op_SpecBitsMap(i32* %WBSlave_dat_i_m_if_Val_V), !map !168
  call void (...)* @_ssdm_op_SpecBitsMap(i1* %WBSlave_we_i_m_if_Val), !map !172
  call void (...)* @_ssdm_op_SpecBitsMap(i1* %WBSlave_stb_i_m_if_Val), !map !176
  call void (...)* @_ssdm_op_SpecBitsMap(i1* %WBSlave_cyc_i_m_if_Val), !map !180
  call void (...)* @_ssdm_op_SpecBitsMap(i4* %WBSlave_sel_i_m_if_Val_V), !map !184
  call void (...)* @_ssdm_op_SpecBitsMap(i32* %WBSlave_dat_o_m_if_Val_V), !map !188
  call void (...)* @_ssdm_op_SpecBitsMap(i1* %WBSlave_ack_o_m_if_Val), !map !192
  call void (...)* @_ssdm_op_SpecBitsMap(i1* %WBSlave_int_o_m_if_Val), !map !196
  call void (...)* @_ssdm_op_SpecBitsMap([16 x i32]* %WBSlave_regs), !map !200
  call void (...)* @_ssdm_op_SpecBitsMap([500 x i32]* %WBSlave_PBuffer), !map !204
  call void (...)* @_ssdm_op_SpecBitsMap(i3* %WBSlave_CTRL_ADDR_V), !map !208
  call void (...)* @_ssdm_op_SpecBitsMap(i3* %WBSlave_STAT_ADDR_V), !map !212
  call void (...)* @_ssdm_op_SpecBitsMap(i21* %WBSlave_log_in_V), !map !216
  call void (...)* @_ssdm_op_SpecBitsMap(i21* %WBSlave_log_out_V), !map !220
  call void (...)* @_ssdm_op_SpecBitsMap(i1* %WBSlave_log_start_V), !map !224
  call void (...)* @_ssdm_op_SpecBitsMap(i1* %WBSlave_log_done_V), !map !228
  call void (...)* @_ssdm_op_SpecBitsMap(i3* %WBSlave_REG0_ADDR_V), !map !232
  call void (...)* @_ssdm_op_SpecBitsMap(i3* %WBSlave_REG1_ADDR_V), !map !236
  call void (...)* @_ssdm_op_SpecBitsMap(i3* %WBSlave_REG2_ADDR_V), !map !240
  call void (...)* @_ssdm_op_SpecBitsMap(i3* %WBSlave_REG3_ADDR_V), !map !244
  call void (...)* @_ssdm_op_SpecBitsMap(i3* %WBSlave_REG4_ADDR_V), !map !248
  call void (...)* @_ssdm_op_SpecBitsMap(i3* %WBSlave_DELAY_ADDR_V), !map !252
  call void (...)* @_ssdm_op_SpecBitsMap(i3* %WBSlave_LAST_ADDR_V), !map !256
  call void @llvm.dbg.value(metadata !{i1* %WBSlave_clk_m_if_Val}, i64 0, metadata !6639), !dbg !6642 ; [debug line = 234:15] [debug variable = WBSlave.clk.m_if.Val]
  call void @llvm.dbg.value(metadata !{i1* %WBSlave_reset_m_if_Val}, i64 0, metadata !6643), !dbg !6642 ; [debug line = 234:15] [debug variable = WBSlave.reset.m_if.Val]
  call void @llvm.dbg.value(metadata !{i32* %WBSlave_adr_i_m_if_Val_V}, i64 0, metadata !6644), !dbg !6642 ; [debug line = 234:15] [debug variable = WBSlave.adr_i.m_if.Val.V]
  call void @llvm.dbg.value(metadata !{i32* %WBSlave_dat_i_m_if_Val_V}, i64 0, metadata !6645), !dbg !6642 ; [debug line = 234:15] [debug variable = WBSlave.dat_i.m_if.Val.V]
  call void @llvm.dbg.value(metadata !{i1* %WBSlave_we_i_m_if_Val}, i64 0, metadata !6646), !dbg !6642 ; [debug line = 234:15] [debug variable = WBSlave.we_i.m_if.Val]
  call void @llvm.dbg.value(metadata !{i1* %WBSlave_stb_i_m_if_Val}, i64 0, metadata !6647), !dbg !6642 ; [debug line = 234:15] [debug variable = WBSlave.stb_i.m_if.Val]
  call void @llvm.dbg.value(metadata !{i1* %WBSlave_cyc_i_m_if_Val}, i64 0, metadata !6648), !dbg !6642 ; [debug line = 234:15] [debug variable = WBSlave.cyc_i.m_if.Val]
  call void @llvm.dbg.value(metadata !{i4* %WBSlave_sel_i_m_if_Val_V}, i64 0, metadata !6649), !dbg !6642 ; [debug line = 234:15] [debug variable = WBSlave.sel_i.m_if.Val.V]
  call void @llvm.dbg.value(metadata !{i32* %WBSlave_dat_o_m_if_Val_V}, i64 0, metadata !6650), !dbg !6642 ; [debug line = 234:15] [debug variable = WBSlave.dat_o.m_if.Val.V]
  call void @llvm.dbg.value(metadata !{i1* %WBSlave_ack_o_m_if_Val}, i64 0, metadata !6651), !dbg !6642 ; [debug line = 234:15] [debug variable = WBSlave.ack_o.m_if.Val]
  call void @llvm.dbg.value(metadata !{i1* %WBSlave_int_o_m_if_Val}, i64 0, metadata !6652), !dbg !6642 ; [debug line = 234:15] [debug variable = WBSlave.int_o.m_if.Val]
  call void @llvm.dbg.value(metadata !{[16 x i32]* %WBSlave_regs}, i64 0, metadata !6653), !dbg !6642 ; [debug line = 234:15] [debug variable = WBSlave.regs]
  call void @llvm.dbg.value(metadata !{[500 x i32]* %WBSlave_PBuffer}, i64 0, metadata !6654), !dbg !6642 ; [debug line = 234:15] [debug variable = WBSlave.PBuffer]
  call void @llvm.dbg.value(metadata !{i3* %WBSlave_CTRL_ADDR_V}, i64 0, metadata !6655), !dbg !6642 ; [debug line = 234:15] [debug variable = WBSlave.CTRL_ADDR.V]
  call void @llvm.dbg.value(metadata !{i3* %WBSlave_STAT_ADDR_V}, i64 0, metadata !6656), !dbg !6642 ; [debug line = 234:15] [debug variable = WBSlave.STAT_ADDR.V]
  call void @llvm.dbg.value(metadata !{i21* %WBSlave_log_in_V}, i64 0, metadata !6657), !dbg !6642 ; [debug line = 234:15] [debug variable = WBSlave.log_in.V]
  call void @llvm.dbg.value(metadata !{i21* %WBSlave_log_out_V}, i64 0, metadata !6658), !dbg !6642 ; [debug line = 234:15] [debug variable = WBSlave.log_out.V]
  call void @llvm.dbg.value(metadata !{i1* %WBSlave_log_start_V}, i64 0, metadata !6659), !dbg !6642 ; [debug line = 234:15] [debug variable = WBSlave.log_start.V]
  call void @llvm.dbg.value(metadata !{i1* %WBSlave_log_done_V}, i64 0, metadata !6660), !dbg !6642 ; [debug line = 234:15] [debug variable = WBSlave.log_done.V]
  call void @llvm.dbg.value(metadata !{i3* %WBSlave_REG0_ADDR_V}, i64 0, metadata !6661), !dbg !6642 ; [debug line = 234:15] [debug variable = WBSlave.REG0_ADDR.V]
  call void @llvm.dbg.value(metadata !{i3* %WBSlave_REG1_ADDR_V}, i64 0, metadata !6662), !dbg !6642 ; [debug line = 234:15] [debug variable = WBSlave.REG1_ADDR.V]
  call void @llvm.dbg.value(metadata !{i3* %WBSlave_REG2_ADDR_V}, i64 0, metadata !6663), !dbg !6642 ; [debug line = 234:15] [debug variable = WBSlave.REG2_ADDR.V]
  call void @llvm.dbg.value(metadata !{i3* %WBSlave_REG3_ADDR_V}, i64 0, metadata !6664), !dbg !6642 ; [debug line = 234:15] [debug variable = WBSlave.REG3_ADDR.V]
  call void @llvm.dbg.value(metadata !{i3* %WBSlave_REG4_ADDR_V}, i64 0, metadata !6665), !dbg !6642 ; [debug line = 234:15] [debug variable = WBSlave.REG4_ADDR.V]
  call void @llvm.dbg.value(metadata !{i3* %WBSlave_DELAY_ADDR_V}, i64 0, metadata !6666), !dbg !6642 ; [debug line = 234:15] [debug variable = WBSlave.DELAY_ADDR.V]
  call void @llvm.dbg.value(metadata !{i3* %WBSlave_LAST_ADDR_V}, i64 0, metadata !6667), !dbg !6642 ; [debug line = 234:15] [debug variable = WBSlave.LAST_ADDR.V]
  call void (...)* @_ssdm_op_SpecPort([8 x i8]* @p_str8, i32 0, [7 x i8]* @p_str14, [4 x i8]* @p_str10, i32 0, i32 0, i1* %WBSlave_clk_m_if_Val) nounwind, !dbg !6668 ; [debug line = 235:4]
  call void (...)* @_ssdm_op_SpecPort([8 x i8]* @p_str8, i32 0, [7 x i8]* @p_str14, [6 x i8]* @p_str11, i32 0, i32 0, i1* %WBSlave_reset_m_if_Val) nounwind, !dbg !6670 ; [debug line = 236:3]
  call void (...)* @_ssdm_op_SpecPort([8 x i8]* @p_str8, i32 0, [8 x i8]* @p_str15, [6 x i8]* @p_str16, i32 0, i32 0, i32* %WBSlave_adr_i_m_if_Val_V) nounwind, !dbg !6671 ; [debug line = 237:3]
  call void (...)* @_ssdm_op_SpecPort([8 x i8]* @p_str8, i32 0, [8 x i8]* @p_str15, [6 x i8]* @p_str17, i32 0, i32 0, i32* %WBSlave_dat_i_m_if_Val_V) nounwind, !dbg !6672 ; [debug line = 238:3]
  call void (...)* @_ssdm_op_SpecPort([8 x i8]* @p_str8, i32 0, [7 x i8]* @p_str14, [5 x i8]* @p_str18, i32 0, i32 0, i1* %WBSlave_we_i_m_if_Val) nounwind, !dbg !6673 ; [debug line = 239:3]
  call void (...)* @_ssdm_op_SpecPort([8 x i8]* @p_str8, i32 0, [7 x i8]* @p_str14, [6 x i8]* @p_str19, i32 0, i32 0, i1* %WBSlave_stb_i_m_if_Val) nounwind, !dbg !6674 ; [debug line = 240:3]
  call void (...)* @_ssdm_op_SpecPort([8 x i8]* @p_str8, i32 0, [7 x i8]* @p_str14, [6 x i8]* @p_str20, i32 0, i32 0, i1* %WBSlave_cyc_i_m_if_Val) nounwind, !dbg !6675 ; [debug line = 241:3]
  call void (...)* @_ssdm_op_SpecPort([8 x i8]* @p_str8, i32 0, [31 x i8]* @p_str21, [6 x i8]* @p_str22, i32 0, i32 0, i4* %WBSlave_sel_i_m_if_Val_V) nounwind, !dbg !6676 ; [debug line = 242:3]
  call void (...)* @_ssdm_op_SpecPort([8 x i8]* @p_str8, i32 1, [8 x i8]* @p_str15, [6 x i8]* @p_str23, i32 0, i32 0, i32* %WBSlave_dat_o_m_if_Val_V) nounwind, !dbg !6677 ; [debug line = 243:3]
  call void (...)* @_ssdm_op_SpecPort([8 x i8]* @p_str8, i32 1, [7 x i8]* @p_str14, [6 x i8]* @p_str24, i32 0, i32 0, i1* %WBSlave_ack_o_m_if_Val) nounwind, !dbg !6678 ; [debug line = 244:3]
  call void (...)* @_ssdm_op_SpecPort([8 x i8]* @p_str8, i32 1, [7 x i8]* @p_str14, [6 x i8]* @p_str25, i32 0, i32 0, i1* %WBSlave_int_o_m_if_Val) nounwind, !dbg !6679 ; [debug line = 245:3]
  call void (...)* @_ssdm_op_SpecProcessDef([8 x i8]* @p_str8, i32 2, [11 x i8]* @p_str9) nounwind, !dbg !6680 ; [debug line = 246:3]
  %tmp_s = call i32 (...)* @_ssdm_op_SpecRegionBegin([15 x i8]* @p_str42), !dbg !6681 ; [#uses=1 type=i32] [debug line = 246:109]
  call void (...)* @_ssdm_op_SpecProtocol(i32 1, [1 x i8]* @p_str43) nounwind, !dbg !6682 ; [debug line = 246:193]
  %p_ssdm_reset_v = call i32 (...)* @_ssdm_op_SpecStateBegin(i32 0, i32 0, i32 1) nounwind, !dbg !6683 ; [#uses=1 type=i32] [debug line = 246:243]
  call void @llvm.dbg.value(metadata !{i32 %p_ssdm_reset_v}, i64 0, metadata !6684), !dbg !6683 ; [debug line = 246:243] [debug variable = _ssdm_reset_v]
  call void @_ssdm_op_Write.ap_auto.volatile.i32P(i32* %WBSlave_dat_o_m_if_Val_V, i32 0), !dbg !6685 ; [debug line = 365:13@56:100@207:13@427:73@235:1]
  call void @llvm.dbg.value(metadata !{i1* %WBSlave_ack_o_m_if_Val}, i64 0, metadata !6709), !dbg !6717 ; [debug line = 128:96@207:13@427:73@236:1] [debug variable = P]
  call void @_ssdm_op_Write.ap_auto.volatile.i1P(i1* %WBSlave_ack_o_m_if_Val, i1 false), !dbg !6729 ; [debug line = 167:116@207:13@427:73@236:1]
  call void @llvm.dbg.value(metadata !{i1* %WBSlave_int_o_m_if_Val}, i64 0, metadata !6709), !dbg !6731 ; [debug line = 128:96@207:13@427:73@237:1] [debug variable = P]
  call void @_ssdm_op_Write.ap_auto.volatile.i1P(i1* %WBSlave_int_o_m_if_Val, i1 false), !dbg !6735 ; [debug line = 167:116@207:13@427:73@237:1]
  %WBSlave_DELAY_ADDR_V_read = call i3 @_ssdm_op_Read.ap_auto.i3P(i3* %WBSlave_DELAY_ADDR_V), !dbg !6736 ; [#uses=1 type=i3] [debug line = 1654:70@238:6]
  %tmp = zext i3 %WBSlave_DELAY_ADDR_V_read to i64, !dbg !6739 ; [#uses=1 type=i64] [debug line = 238:6]
  %WBSlave_regs_addr = getelementptr [16 x i32]* %WBSlave_regs, i64 0, i64 %tmp, !dbg !6739 ; [#uses=5 type=i32*] [debug line = 238:6]
  store i32 0, i32* %WBSlave_regs_addr, align 4, !dbg !6739 ; [debug line = 238:6]
  %empty = call i32 (...)* @_ssdm_op_SpecStateEnd(i32 %p_ssdm_reset_v) nounwind, !dbg !6740 ; [#uses=0 type=i32] [debug line = 238:23]
  %empty_20 = call i32 (...)* @_ssdm_op_SpecRegionEnd([15 x i8]* @p_str42, i32 %tmp_s), !dbg !6741 ; [#uses=0 type=i32] [debug line = 238:61]
  %WBSlave_STAT_ADDR_V_read = call i3 @_ssdm_op_Read.ap_auto.i3P(i3* %WBSlave_STAT_ADDR_V), !dbg !6742 ; [#uses=1 type=i3] [debug line = 1654:70@346:20@247:13]
  %tmp_6 = zext i3 %WBSlave_STAT_ADDR_V_read to i64, !dbg !6743 ; [#uses=1 type=i64] [debug line = 346:20@247:13]
  %WBSlave_regs_addr_3 = getelementptr [16 x i32]* %WBSlave_regs, i64 0, i64 %tmp_6, !dbg !6743 ; [#uses=4 type=i32*] [debug line = 346:20@247:13]
  br label %1, !dbg !6750                         ; [debug line = 238:96]

; <label>:1                                       ; preds = %31, %0
  call void @llvm.dbg.value(metadata !{i1* %WBSlave_ack_o_m_if_Val}, i64 0, metadata !6709), !dbg !6751 ; [debug line = 128:96@207:13@427:73@241:9] [debug variable = P]
  call void @_ssdm_op_Write.ap_auto.volatile.i1P(i1* %WBSlave_ack_o_m_if_Val, i1 false), !dbg !6755 ; [debug line = 167:116@207:13@427:73@241:9]
  call void (...)* @_ssdm_op_Wait(i32 1) nounwind, !dbg !6756 ; [debug line = 243:11]
  call void @llvm.dbg.value(metadata !{i1* %WBSlave_stb_i_m_if_Val}, i64 0, metadata !6758), !dbg !6764 ; [debug line = 166:90@180:66@382:68@243:41] [debug variable = P]
  %tmp_7 = call i1 @_ssdm_op_Read.ap_auto.volatile.i1P(i1* %WBSlave_stb_i_m_if_Val), !dbg !6772 ; [#uses=1 type=i1] [debug line = 166:95@180:66@382:68@243:41]
  call void @llvm.dbg.value(metadata !{i1 %tmp_7}, i64 0, metadata !6774), !dbg !6765 ; [debug line = 180:66@382:68@243:41] [debug variable = tmp]
  br i1 %tmp_7, label %2, label %._crit_edge, !dbg !6771 ; [debug line = 243:41]

; <label>:2                                       ; preds = %1
  call void @llvm.dbg.value(metadata !{i1* %WBSlave_cyc_i_m_if_Val}, i64 0, metadata !6758), !dbg !6775 ; [debug line = 166:90@180:66@382:68@243:66] [debug variable = P]
  %tmp_8 = call i1 @_ssdm_op_Read.ap_auto.volatile.i1P(i1* %WBSlave_cyc_i_m_if_Val), !dbg !6779 ; [#uses=1 type=i1] [debug line = 166:95@180:66@382:68@243:66]
  call void @llvm.dbg.value(metadata !{i1 %tmp_8}, i64 0, metadata !6774), !dbg !6776 ; [debug line = 180:66@382:68@243:66] [debug variable = tmp]
  br label %._crit_edge, !dbg !6778               ; [debug line = 243:66]

._crit_edge:                                      ; preds = %2, %1
  %tmp_3 = phi i1 [ %tmp_8, %2 ], [ false, %1 ], !dbg !6778 ; [#uses=1 type=i1] [debug line = 243:66]
  call void (...)* @_ssdm_op_Poll(i1 %tmp_3), !dbg !6780 ; [debug line = 243:90]
  call void @llvm.dbg.value(metadata !{i1* %WBSlave_we_i_m_if_Val}, i64 0, metadata !6758), !dbg !6781 ; [debug line = 166:90@180:66@382:68@246:13] [debug variable = P]
  %tmp_13 = call i1 @_ssdm_op_Read.ap_auto.volatile.i1P(i1* %WBSlave_we_i_m_if_Val), !dbg !6785 ; [#uses=1 type=i1] [debug line = 166:95@180:66@382:68@246:13]
  call void @llvm.dbg.value(metadata !{i1 %tmp_13}, i64 0, metadata !6774), !dbg !6782 ; [debug line = 180:66@382:68@246:13] [debug variable = tmp]
  %val_V = call i32 @_ssdm_op_Read.ap_auto.volatile.i32P(i32* %WBSlave_adr_i_m_if_Val_V), !dbg !6786 ; [#uses=7 type=i32] [debug line = 374:13@60:21@180:66@351:73@337:25@247:13]
  %r_V = call i30 @_ssdm_op_PartSelect.i30.i32.i32.i32(i32 %val_V, i32 2, i32 31), !dbg !6802 ; [#uses=4 type=i30] [debug line = 3716:198@337:25@247:13]
  br i1 %tmp_13, label %3, label %17, !dbg !6784  ; [debug line = 246:13]

; <label>:3                                       ; preds = %._crit_edge
  call void @llvm.dbg.value(metadata !{i1* %WBSlave_clk_m_if_Val}, i64 0, metadata !6807), !dbg !6809 ; [debug line = 336:15@247:13] [debug variable = WBSlave.clk.m_if.Val]
  call void @llvm.dbg.value(metadata !{i1* %WBSlave_reset_m_if_Val}, i64 0, metadata !6810), !dbg !6809 ; [debug line = 336:15@247:13] [debug variable = WBSlave.reset.m_if.Val]
  call void @llvm.dbg.value(metadata !{i32* %WBSlave_adr_i_m_if_Val_V}, i64 0, metadata !6811), !dbg !6809 ; [debug line = 336:15@247:13] [debug variable = WBSlave.adr_i.m_if.Val.V]
  call void @llvm.dbg.value(metadata !{i32* %WBSlave_dat_i_m_if_Val_V}, i64 0, metadata !6812), !dbg !6809 ; [debug line = 336:15@247:13] [debug variable = WBSlave.dat_i.m_if.Val.V]
  call void @llvm.dbg.value(metadata !{i1* %WBSlave_we_i_m_if_Val}, i64 0, metadata !6813), !dbg !6809 ; [debug line = 336:15@247:13] [debug variable = WBSlave.we_i.m_if.Val]
  call void @llvm.dbg.value(metadata !{i1* %WBSlave_stb_i_m_if_Val}, i64 0, metadata !6814), !dbg !6809 ; [debug line = 336:15@247:13] [debug variable = WBSlave.stb_i.m_if.Val]
  call void @llvm.dbg.value(metadata !{i1* %WBSlave_cyc_i_m_if_Val}, i64 0, metadata !6815), !dbg !6809 ; [debug line = 336:15@247:13] [debug variable = WBSlave.cyc_i.m_if.Val]
  call void @llvm.dbg.value(metadata !{i4* %WBSlave_sel_i_m_if_Val_V}, i64 0, metadata !6816), !dbg !6809 ; [debug line = 336:15@247:13] [debug variable = WBSlave.sel_i.m_if.Val.V]
  call void @llvm.dbg.value(metadata !{i32* %WBSlave_dat_o_m_if_Val_V}, i64 0, metadata !6817), !dbg !6809 ; [debug line = 336:15@247:13] [debug variable = WBSlave.dat_o.m_if.Val.V]
  call void @llvm.dbg.value(metadata !{i1* %WBSlave_ack_o_m_if_Val}, i64 0, metadata !6818), !dbg !6809 ; [debug line = 336:15@247:13] [debug variable = WBSlave.ack_o.m_if.Val]
  call void @llvm.dbg.value(metadata !{i1* %WBSlave_int_o_m_if_Val}, i64 0, metadata !6819), !dbg !6809 ; [debug line = 336:15@247:13] [debug variable = WBSlave.int_o.m_if.Val]
  call void @llvm.dbg.value(metadata !{[16 x i32]* %WBSlave_regs}, i64 0, metadata !6820), !dbg !6809 ; [debug line = 336:15@247:13] [debug variable = WBSlave.regs]
  call void @llvm.dbg.value(metadata !{[500 x i32]* %WBSlave_PBuffer}, i64 0, metadata !6821), !dbg !6809 ; [debug line = 336:15@247:13] [debug variable = WBSlave.PBuffer]
  call void @llvm.dbg.value(metadata !{i3* %WBSlave_CTRL_ADDR_V}, i64 0, metadata !6822), !dbg !6809 ; [debug line = 336:15@247:13] [debug variable = WBSlave.CTRL_ADDR.V]
  call void @llvm.dbg.value(metadata !{i3* %WBSlave_STAT_ADDR_V}, i64 0, metadata !6823), !dbg !6809 ; [debug line = 336:15@247:13] [debug variable = WBSlave.STAT_ADDR.V]
  call void @llvm.dbg.value(metadata !{i21* %WBSlave_log_in_V}, i64 0, metadata !6824), !dbg !6809 ; [debug line = 336:15@247:13] [debug variable = WBSlave.log_in.V]
  call void @llvm.dbg.value(metadata !{i21* %WBSlave_log_out_V}, i64 0, metadata !6825), !dbg !6809 ; [debug line = 336:15@247:13] [debug variable = WBSlave.log_out.V]
  call void @llvm.dbg.value(metadata !{i1* %WBSlave_log_start_V}, i64 0, metadata !6826), !dbg !6809 ; [debug line = 336:15@247:13] [debug variable = WBSlave.log_start.V]
  call void @llvm.dbg.value(metadata !{i1* %WBSlave_log_done_V}, i64 0, metadata !6827), !dbg !6809 ; [debug line = 336:15@247:13] [debug variable = WBSlave.log_done.V]
  call void @llvm.dbg.value(metadata !{i3* %WBSlave_REG0_ADDR_V}, i64 0, metadata !6828), !dbg !6809 ; [debug line = 336:15@247:13] [debug variable = WBSlave.REG0_ADDR.V]
  call void @llvm.dbg.value(metadata !{i3* %WBSlave_REG1_ADDR_V}, i64 0, metadata !6829), !dbg !6809 ; [debug line = 336:15@247:13] [debug variable = WBSlave.REG1_ADDR.V]
  call void @llvm.dbg.value(metadata !{i3* %WBSlave_REG2_ADDR_V}, i64 0, metadata !6830), !dbg !6809 ; [debug line = 336:15@247:13] [debug variable = WBSlave.REG2_ADDR.V]
  call void @llvm.dbg.value(metadata !{i3* %WBSlave_REG3_ADDR_V}, i64 0, metadata !6831), !dbg !6809 ; [debug line = 336:15@247:13] [debug variable = WBSlave.REG3_ADDR.V]
  call void @llvm.dbg.value(metadata !{i3* %WBSlave_REG4_ADDR_V}, i64 0, metadata !6832), !dbg !6809 ; [debug line = 336:15@247:13] [debug variable = WBSlave.REG4_ADDR.V]
  call void @llvm.dbg.value(metadata !{i3* %WBSlave_DELAY_ADDR_V}, i64 0, metadata !6833), !dbg !6809 ; [debug line = 336:15@247:13] [debug variable = WBSlave.DELAY_ADDR.V]
  call void @llvm.dbg.value(metadata !{i3* %WBSlave_LAST_ADDR_V}, i64 0, metadata !6834), !dbg !6809 ; [debug line = 336:15@247:13] [debug variable = WBSlave.LAST_ADDR.V]
  call void @llvm.dbg.value(metadata !{i32 %val_V}, i64 0, metadata !6835) nounwind, !dbg !6786 ; [debug line = 374:13@60:21@180:66@351:73@337:25@247:13] [debug variable = val.V]
  %val_V_1 = call i32 @_ssdm_op_Read.ap_auto.volatile.i32P(i32* %WBSlave_dat_i_m_if_Val_V), !dbg !6837 ; [#uses=2 type=i32] [debug line = 374:13@60:21@180:66@351:73@338:18@247:13]
  call void @llvm.dbg.value(metadata !{i32 %val_V_1}, i64 0, metadata !6842) nounwind, !dbg !6837 ; [debug line = 374:13@60:21@180:66@351:73@338:18@247:13] [debug variable = val.V]
  %tmp_14 = call i26 @_ssdm_op_PartSelect.i26.i32.i32.i32(i32 %val_V, i32 6, i32 31), !dbg !6843 ; [#uses=1 type=i26] [debug line = 341:2@247:13]
  %icmp = icmp eq i26 %tmp_14, 0, !dbg !6843      ; [#uses=1 type=i1] [debug line = 341:2@247:13]
  br i1 %icmp, label %4, label %10, !dbg !6843    ; [debug line = 341:2@247:13]

; <label>:4                                       ; preds = %3
  call void @llvm.dbg.value(metadata !{i1* %WBSlave_clk_m_if_Val}, i64 0, metadata !6844), !dbg !6848 ; [debug line = 384:14@342:10@247:13] [debug variable = WBSlave.clk.m_if.Val]
  call void @llvm.dbg.value(metadata !{i1* %WBSlave_reset_m_if_Val}, i64 0, metadata !6849), !dbg !6848 ; [debug line = 384:14@342:10@247:13] [debug variable = WBSlave.reset.m_if.Val]
  call void @llvm.dbg.value(metadata !{i32* %WBSlave_adr_i_m_if_Val_V}, i64 0, metadata !6850), !dbg !6848 ; [debug line = 384:14@342:10@247:13] [debug variable = WBSlave.adr_i.m_if.Val.V]
  call void @llvm.dbg.value(metadata !{i32* %WBSlave_dat_i_m_if_Val_V}, i64 0, metadata !6851), !dbg !6848 ; [debug line = 384:14@342:10@247:13] [debug variable = WBSlave.dat_i.m_if.Val.V]
  call void @llvm.dbg.value(metadata !{i1* %WBSlave_we_i_m_if_Val}, i64 0, metadata !6852), !dbg !6848 ; [debug line = 384:14@342:10@247:13] [debug variable = WBSlave.we_i.m_if.Val]
  call void @llvm.dbg.value(metadata !{i1* %WBSlave_stb_i_m_if_Val}, i64 0, metadata !6853), !dbg !6848 ; [debug line = 384:14@342:10@247:13] [debug variable = WBSlave.stb_i.m_if.Val]
  call void @llvm.dbg.value(metadata !{i1* %WBSlave_cyc_i_m_if_Val}, i64 0, metadata !6854), !dbg !6848 ; [debug line = 384:14@342:10@247:13] [debug variable = WBSlave.cyc_i.m_if.Val]
  call void @llvm.dbg.value(metadata !{i4* %WBSlave_sel_i_m_if_Val_V}, i64 0, metadata !6855), !dbg !6848 ; [debug line = 384:14@342:10@247:13] [debug variable = WBSlave.sel_i.m_if.Val.V]
  call void @llvm.dbg.value(metadata !{i32* %WBSlave_dat_o_m_if_Val_V}, i64 0, metadata !6856), !dbg !6848 ; [debug line = 384:14@342:10@247:13] [debug variable = WBSlave.dat_o.m_if.Val.V]
  call void @llvm.dbg.value(metadata !{i1* %WBSlave_ack_o_m_if_Val}, i64 0, metadata !6857), !dbg !6848 ; [debug line = 384:14@342:10@247:13] [debug variable = WBSlave.ack_o.m_if.Val]
  call void @llvm.dbg.value(metadata !{i1* %WBSlave_int_o_m_if_Val}, i64 0, metadata !6858), !dbg !6848 ; [debug line = 384:14@342:10@247:13] [debug variable = WBSlave.int_o.m_if.Val]
  call void @llvm.dbg.value(metadata !{[16 x i32]* %WBSlave_regs}, i64 0, metadata !6859), !dbg !6848 ; [debug line = 384:14@342:10@247:13] [debug variable = WBSlave.regs]
  call void @llvm.dbg.value(metadata !{[500 x i32]* %WBSlave_PBuffer}, i64 0, metadata !6860), !dbg !6848 ; [debug line = 384:14@342:10@247:13] [debug variable = WBSlave.PBuffer]
  call void @llvm.dbg.value(metadata !{i3* %WBSlave_CTRL_ADDR_V}, i64 0, metadata !6861), !dbg !6848 ; [debug line = 384:14@342:10@247:13] [debug variable = WBSlave.CTRL_ADDR.V]
  call void @llvm.dbg.value(metadata !{i3* %WBSlave_STAT_ADDR_V}, i64 0, metadata !6862), !dbg !6848 ; [debug line = 384:14@342:10@247:13] [debug variable = WBSlave.STAT_ADDR.V]
  call void @llvm.dbg.value(metadata !{i21* %WBSlave_log_in_V}, i64 0, metadata !6863), !dbg !6848 ; [debug line = 384:14@342:10@247:13] [debug variable = WBSlave.log_in.V]
  call void @llvm.dbg.value(metadata !{i21* %WBSlave_log_out_V}, i64 0, metadata !6864), !dbg !6848 ; [debug line = 384:14@342:10@247:13] [debug variable = WBSlave.log_out.V]
  call void @llvm.dbg.value(metadata !{i1* %WBSlave_log_start_V}, i64 0, metadata !6865), !dbg !6848 ; [debug line = 384:14@342:10@247:13] [debug variable = WBSlave.log_start.V]
  call void @llvm.dbg.value(metadata !{i1* %WBSlave_log_done_V}, i64 0, metadata !6866), !dbg !6848 ; [debug line = 384:14@342:10@247:13] [debug variable = WBSlave.log_done.V]
  call void @llvm.dbg.value(metadata !{i3* %WBSlave_REG0_ADDR_V}, i64 0, metadata !6867), !dbg !6848 ; [debug line = 384:14@342:10@247:13] [debug variable = WBSlave.REG0_ADDR.V]
  call void @llvm.dbg.value(metadata !{i3* %WBSlave_REG1_ADDR_V}, i64 0, metadata !6868), !dbg !6848 ; [debug line = 384:14@342:10@247:13] [debug variable = WBSlave.REG1_ADDR.V]
  call void @llvm.dbg.value(metadata !{i3* %WBSlave_REG2_ADDR_V}, i64 0, metadata !6869), !dbg !6848 ; [debug line = 384:14@342:10@247:13] [debug variable = WBSlave.REG2_ADDR.V]
  call void @llvm.dbg.value(metadata !{i3* %WBSlave_REG3_ADDR_V}, i64 0, metadata !6870), !dbg !6848 ; [debug line = 384:14@342:10@247:13] [debug variable = WBSlave.REG3_ADDR.V]
  call void @llvm.dbg.value(metadata !{i3* %WBSlave_REG4_ADDR_V}, i64 0, metadata !6871), !dbg !6848 ; [debug line = 384:14@342:10@247:13] [debug variable = WBSlave.REG4_ADDR.V]
  call void @llvm.dbg.value(metadata !{i3* %WBSlave_DELAY_ADDR_V}, i64 0, metadata !6872), !dbg !6848 ; [debug line = 384:14@342:10@247:13] [debug variable = WBSlave.DELAY_ADDR.V]
  call void @llvm.dbg.value(metadata !{i3* %WBSlave_LAST_ADDR_V}, i64 0, metadata !6873), !dbg !6848 ; [debug line = 384:14@342:10@247:13] [debug variable = WBSlave.LAST_ADDR.V]
  %val_V_2 = call i4 @_ssdm_op_Read.ap_auto.volatile.i4P(i4* %WBSlave_sel_i_m_if_Val_V), !dbg !6874 ; [#uses=1 type=i4] [debug line = 374:13@60:21@180:66@351:73@386:22@342:10@247:13]
  call void @llvm.dbg.value(metadata !{i4 %val_V_2}, i64 0, metadata !6893), !dbg !6874 ; [debug line = 374:13@60:21@180:66@351:73@386:22@342:10@247:13] [debug variable = val.V]
  %select = zext i4 %val_V_2 to i32, !dbg !6891   ; [#uses=1 type=i32] [debug line = 386:22@342:10@247:13]
  call void @llvm.dbg.value(metadata !{i32 %select}, i64 0, metadata !6895), !dbg !6891 ; [debug line = 386:22@342:10@247:13] [debug variable = select]
  br label %5, !dbg !6896                         ; [debug line = 387:23@342:10@247:13]

; <label>:5                                       ; preds = %6, %4
  %mask = phi i32 [ 0, %4 ], [ %mask_3, %6 ]      ; [#uses=3 type=i32]
  %select_0_i = phi i32 [ %select, %4 ], [ %select_4, %6 ] ; [#uses=2 type=i32]
  %i_0_i = phi i3 [ 0, %4 ], [ %i, %6 ]           ; [#uses=2 type=i3]
  %exitcond_i1 = icmp eq i3 %i_0_i, -4, !dbg !6896 ; [#uses=1 type=i1] [debug line = 387:23@342:10@247:13]
  %empty_21 = call i32 (...)* @_ssdm_op_SpecLoopTripCount(i64 4, i64 4, i64 4) ; [#uses=0 type=i32]
  %i = add i3 %i_0_i, 1, !dbg !6898               ; [#uses=1 type=i3] [debug line = 387:32@342:10@247:13]
  br i1 %exitcond_i1, label %gen_select_mask.exit, label %6, !dbg !6896 ; [debug line = 387:23@342:10@247:13]

; <label>:6                                       ; preds = %5
  %mask_1 = shl i32 %mask, 8, !dbg !6899          ; [#uses=2 type=i32] [debug line = 388:13@342:10@247:13]
  call void @llvm.dbg.value(metadata !{i32 %mask_1}, i64 0, metadata !6901), !dbg !6899 ; [debug line = 388:13@342:10@247:13] [debug variable = mask]
  %tmp_21 = call i1 @_ssdm_op_BitSelect.i1.i32.i32(i32 %select_0_i, i32 3), !dbg !6902 ; [#uses=1 type=i1] [debug line = 389:13@342:10@247:13]
  %mask_2 = or i32 %mask_1, 255, !dbg !6903       ; [#uses=1 type=i32] [debug line = 390:17@342:10@247:13]
  call void @llvm.dbg.value(metadata !{i32 %mask_2}, i64 0, metadata !6901), !dbg !6903 ; [debug line = 390:17@342:10@247:13] [debug variable = mask]
  %mask_3 = select i1 %tmp_21, i32 %mask_2, i32 %mask_1, !dbg !6902 ; [#uses=1 type=i32] [debug line = 389:13@342:10@247:13]
  call void @llvm.dbg.value(metadata !{i32 %mask_3}, i64 0, metadata !6901), !dbg !6902 ; [debug line = 389:13@342:10@247:13] [debug variable = mask]
  %select_4 = shl i32 %select_0_i, 1, !dbg !6905  ; [#uses=1 type=i32] [debug line = 392:13@342:10@247:13]
  call void @llvm.dbg.value(metadata !{i32 %select_4}, i64 0, metadata !6895), !dbg !6905 ; [debug line = 392:13@342:10@247:13] [debug variable = select]
  call void @llvm.dbg.value(metadata !{i3 %i}, i64 0, metadata !6906), !dbg !6898 ; [debug line = 387:32@342:10@247:13] [debug variable = i]
  br label %5, !dbg !6898                         ; [debug line = 387:32@342:10@247:13]

gen_select_mask.exit:                             ; preds = %5
  call void @llvm.dbg.value(metadata !{i32 %mask}, i64 0, metadata !6907) nounwind, !dbg !6847 ; [debug line = 342:10@247:13] [debug variable = mask]
  %tmp_1 = zext i30 %r_V to i64, !dbg !6908       ; [#uses=1 type=i64] [debug line = 343:3@247:13]
  %WBSlave_regs_addr_1 = getelementptr [16 x i32]* %WBSlave_regs, i64 0, i64 %tmp_1, !dbg !6908 ; [#uses=2 type=i32*] [debug line = 343:3@247:13]
  %WBSlave_regs_load = load i32* %WBSlave_regs_addr_1, align 4, !dbg !6908 ; [#uses=1 type=i32] [debug line = 343:3@247:13]
  %tmp_2 = xor i32 %mask, -1, !dbg !6908          ; [#uses=1 type=i32] [debug line = 343:3@247:13]
  %tmp_4 = and i32 %WBSlave_regs_load, %tmp_2, !dbg !6908 ; [#uses=1 type=i32] [debug line = 343:3@247:13]
  %tmp_10 = and i32 %mask, %val_V_1, !dbg !6909   ; [#uses=1 type=i32] [debug line = 343:42@247:13]
  %tmp_11 = or i32 %tmp_4, %tmp_10, !dbg !6909    ; [#uses=1 type=i32] [debug line = 343:42@247:13]
  store i32 %tmp_11, i32* %WBSlave_regs_addr_1, align 4, !dbg !6909 ; [debug line = 343:42@247:13]
  %WBSlave_regs_load_1 = load i32* %WBSlave_regs_addr, align 4, !dbg !6910 ; [#uses=3 type=i32] [debug line = 344:12@247:13]
  %tmp_12 = icmp eq i32 %WBSlave_regs_load_1, 0, !dbg !6910 ; [#uses=1 type=i1] [debug line = 344:12@247:13]
  br i1 %tmp_12, label %_ZN7_ap_sc_7sc_core4waitEi.exit9.i, label %7, !dbg !6910 ; [debug line = 344:12@247:13]

; <label>:7                                       ; preds = %gen_select_mask.exit
  call void @llvm.dbg.value(metadata !{i32 %WBSlave_regs_load_1}, i64 0, metadata !6911) nounwind, !dbg !6916 ; [debug line = 802:53@344:39@247:13] [debug variable = n]
  %tmp_34 = call i31 @_ssdm_op_PartSelect.i31.i32.i32.i32(i32 %WBSlave_regs_load_1, i32 1, i32 31), !dbg !6917 ; [#uses=1 type=i31] [debug line = 803:5@344:39@247:13]
  %icmp8 = icmp slt i31 %tmp_34, 1, !dbg !6917    ; [#uses=1 type=i1] [debug line = 803:5@344:39@247:13]
  br i1 %icmp8, label %8, label %.preheader79.i, !dbg !6917 ; [debug line = 803:5@344:39@247:13]

; <label>:8                                       ; preds = %7
  call void (...)* @_ssdm_op_Wait(i32 1) nounwind, !dbg !6919 ; [debug line = 803:19@344:39@247:13]
  br label %_ZN7_ap_sc_7sc_core4waitEi.exit5.i, !dbg !6921 ; [debug line = 803:37@344:39@247:13]

.preheader79.i:                                   ; preds = %9, %7
  %i_i4_0_i = phi i31 [ %i_4, %9 ], [ 0, %7 ]     ; [#uses=2 type=i31]
  %i_i4_0_i_cast = zext i31 %i_i4_0_i to i32, !dbg !6922 ; [#uses=1 type=i32] [debug line = 804:19@344:39@247:13]
  %exitcond78_i = icmp eq i32 %i_i4_0_i_cast, %WBSlave_regs_load_1, !dbg !6922 ; [#uses=1 type=i1] [debug line = 804:19@344:39@247:13]
  %empty_22 = call i32 (...)* @_ssdm_op_SpecLoopTripCount(i64 2, i64 -1, i64 0) ; [#uses=0 type=i32]
  %i_4 = add i31 %i_i4_0_i, 1, !dbg !6924         ; [#uses=1 type=i31] [debug line = 804:28@344:39@247:13]
  br i1 %exitcond78_i, label %_ZN7_ap_sc_7sc_core4waitEi.exit5.i, label %9, !dbg !6922 ; [debug line = 804:19@344:39@247:13]

; <label>:9                                       ; preds = %.preheader79.i
  call void (...)* @_ssdm_op_Wait(i32 1) nounwind, !dbg !6925 ; [debug line = 806:2@344:39@247:13]
  call void @llvm.dbg.value(metadata !{i31 %i_4}, i64 0, metadata !6927) nounwind, !dbg !6924 ; [debug line = 804:28@344:39@247:13] [debug variable = i]
  br label %.preheader79.i, !dbg !6924            ; [debug line = 804:28@344:39@247:13]

_ZN7_ap_sc_7sc_core4waitEi.exit5.i:               ; preds = %.preheader79.i, %8
  br label %_ZN7_ap_sc_7sc_core4waitEi.exit9.i, !dbg !6915 ; [debug line = 344:39@247:13]

_ZN7_ap_sc_7sc_core4waitEi.exit9.i:               ; preds = %_ZN7_ap_sc_7sc_core4waitEi.exit5.i, %gen_select_mask.exit
  call void @llvm.dbg.value(metadata !{i1* %WBSlave_ack_o_m_if_Val}, i64 0, metadata !6928) nounwind, !dbg !6932 ; [debug line = 128:96@207:13@427:73@345:3@247:13] [debug variable = P]
  call void @_ssdm_op_Write.ap_auto.volatile.i1P(i1* %WBSlave_ack_o_m_if_Val, i1 true), !dbg !6933 ; [debug line = 167:116@207:13@427:73@345:3@247:13]
  %WBSlave_regs_load_6 = load i32* %WBSlave_regs_addr_3, align 4, !dbg !6743 ; [#uses=1 type=i32] [debug line = 346:20@247:13]
  %v = icmp ne i32 %WBSlave_regs_load_6, 0, !dbg !6743 ; [#uses=1 type=i1] [debug line = 346:20@247:13]
  call void @llvm.dbg.value(metadata !{i1 %v}, i64 0, metadata !6934) nounwind, !dbg !6936 ; [debug line = 206:21@427:73@346:20@247:13] [debug variable = v]
  call void @llvm.dbg.value(metadata !{i1* %WBSlave_int_o_m_if_Val}, i64 0, metadata !6937) nounwind, !dbg !6939 ; [debug line = 128:96@207:13@427:73@346:20@247:13] [debug variable = P]
  call void @_ssdm_op_Write.ap_auto.volatile.i1P(i1* %WBSlave_int_o_m_if_Val, i1 %v), !dbg !6940 ; [debug line = 167:116@207:13@427:73@346:20@247:13]
  call void (...)* @_ssdm_op_Wait(i32 1) nounwind, !dbg !6941 ; [debug line = 803:19@347:7@247:13]
  br label %receive.exit, !dbg !6943              ; [debug line = 348:6@247:13]

; <label>:10                                      ; preds = %3
  %tmp_18 = call i24 @_ssdm_op_PartSelect.i24.i32.i32.i32(i32 %val_V, i32 8, i32 31), !dbg !6944 ; [#uses=1 type=i24] [debug line = 350:4@247:13]
  %icmp2 = icmp ne i24 %tmp_18, 0, !dbg !6944     ; [#uses=1 type=i1] [debug line = 350:4@247:13]
  %tmp_5 = icmp ult i32 %val_V, 1280, !dbg !6944  ; [#uses=1 type=i1] [debug line = 350:4@247:13]
  %or_cond_i = and i1 %icmp2, %tmp_5, !dbg !6944  ; [#uses=1 type=i1] [debug line = 350:4@247:13]
  br i1 %or_cond_i, label %11, label %._crit_edge.i, !dbg !6944 ; [debug line = 350:4@247:13]

; <label>:11                                      ; preds = %10
  call void @llvm.dbg.value(metadata !{i1* %WBSlave_clk_m_if_Val}, i64 0, metadata !6945), !dbg !6949 ; [debug line = 384:14@351:10@247:13] [debug variable = WBSlave.clk.m_if.Val]
  call void @llvm.dbg.value(metadata !{i1* %WBSlave_reset_m_if_Val}, i64 0, metadata !6950), !dbg !6949 ; [debug line = 384:14@351:10@247:13] [debug variable = WBSlave.reset.m_if.Val]
  call void @llvm.dbg.value(metadata !{i32* %WBSlave_adr_i_m_if_Val_V}, i64 0, metadata !6951), !dbg !6949 ; [debug line = 384:14@351:10@247:13] [debug variable = WBSlave.adr_i.m_if.Val.V]
  call void @llvm.dbg.value(metadata !{i32* %WBSlave_dat_i_m_if_Val_V}, i64 0, metadata !6952), !dbg !6949 ; [debug line = 384:14@351:10@247:13] [debug variable = WBSlave.dat_i.m_if.Val.V]
  call void @llvm.dbg.value(metadata !{i1* %WBSlave_we_i_m_if_Val}, i64 0, metadata !6953), !dbg !6949 ; [debug line = 384:14@351:10@247:13] [debug variable = WBSlave.we_i.m_if.Val]
  call void @llvm.dbg.value(metadata !{i1* %WBSlave_stb_i_m_if_Val}, i64 0, metadata !6954), !dbg !6949 ; [debug line = 384:14@351:10@247:13] [debug variable = WBSlave.stb_i.m_if.Val]
  call void @llvm.dbg.value(metadata !{i1* %WBSlave_cyc_i_m_if_Val}, i64 0, metadata !6955), !dbg !6949 ; [debug line = 384:14@351:10@247:13] [debug variable = WBSlave.cyc_i.m_if.Val]
  call void @llvm.dbg.value(metadata !{i4* %WBSlave_sel_i_m_if_Val_V}, i64 0, metadata !6956), !dbg !6949 ; [debug line = 384:14@351:10@247:13] [debug variable = WBSlave.sel_i.m_if.Val.V]
  call void @llvm.dbg.value(metadata !{i32* %WBSlave_dat_o_m_if_Val_V}, i64 0, metadata !6957), !dbg !6949 ; [debug line = 384:14@351:10@247:13] [debug variable = WBSlave.dat_o.m_if.Val.V]
  call void @llvm.dbg.value(metadata !{i1* %WBSlave_ack_o_m_if_Val}, i64 0, metadata !6958), !dbg !6949 ; [debug line = 384:14@351:10@247:13] [debug variable = WBSlave.ack_o.m_if.Val]
  call void @llvm.dbg.value(metadata !{i1* %WBSlave_int_o_m_if_Val}, i64 0, metadata !6959), !dbg !6949 ; [debug line = 384:14@351:10@247:13] [debug variable = WBSlave.int_o.m_if.Val]
  call void @llvm.dbg.value(metadata !{[16 x i32]* %WBSlave_regs}, i64 0, metadata !6960), !dbg !6949 ; [debug line = 384:14@351:10@247:13] [debug variable = WBSlave.regs]
  call void @llvm.dbg.value(metadata !{[500 x i32]* %WBSlave_PBuffer}, i64 0, metadata !6961), !dbg !6949 ; [debug line = 384:14@351:10@247:13] [debug variable = WBSlave.PBuffer]
  call void @llvm.dbg.value(metadata !{i3* %WBSlave_CTRL_ADDR_V}, i64 0, metadata !6962), !dbg !6949 ; [debug line = 384:14@351:10@247:13] [debug variable = WBSlave.CTRL_ADDR.V]
  call void @llvm.dbg.value(metadata !{i3* %WBSlave_STAT_ADDR_V}, i64 0, metadata !6963), !dbg !6949 ; [debug line = 384:14@351:10@247:13] [debug variable = WBSlave.STAT_ADDR.V]
  call void @llvm.dbg.value(metadata !{i21* %WBSlave_log_in_V}, i64 0, metadata !6964), !dbg !6949 ; [debug line = 384:14@351:10@247:13] [debug variable = WBSlave.log_in.V]
  call void @llvm.dbg.value(metadata !{i21* %WBSlave_log_out_V}, i64 0, metadata !6965), !dbg !6949 ; [debug line = 384:14@351:10@247:13] [debug variable = WBSlave.log_out.V]
  call void @llvm.dbg.value(metadata !{i1* %WBSlave_log_start_V}, i64 0, metadata !6966), !dbg !6949 ; [debug line = 384:14@351:10@247:13] [debug variable = WBSlave.log_start.V]
  call void @llvm.dbg.value(metadata !{i1* %WBSlave_log_done_V}, i64 0, metadata !6967), !dbg !6949 ; [debug line = 384:14@351:10@247:13] [debug variable = WBSlave.log_done.V]
  call void @llvm.dbg.value(metadata !{i3* %WBSlave_REG0_ADDR_V}, i64 0, metadata !6968), !dbg !6949 ; [debug line = 384:14@351:10@247:13] [debug variable = WBSlave.REG0_ADDR.V]
  call void @llvm.dbg.value(metadata !{i3* %WBSlave_REG1_ADDR_V}, i64 0, metadata !6969), !dbg !6949 ; [debug line = 384:14@351:10@247:13] [debug variable = WBSlave.REG1_ADDR.V]
  call void @llvm.dbg.value(metadata !{i3* %WBSlave_REG2_ADDR_V}, i64 0, metadata !6970), !dbg !6949 ; [debug line = 384:14@351:10@247:13] [debug variable = WBSlave.REG2_ADDR.V]
  call void @llvm.dbg.value(metadata !{i3* %WBSlave_REG3_ADDR_V}, i64 0, metadata !6971), !dbg !6949 ; [debug line = 384:14@351:10@247:13] [debug variable = WBSlave.REG3_ADDR.V]
  call void @llvm.dbg.value(metadata !{i3* %WBSlave_REG4_ADDR_V}, i64 0, metadata !6972), !dbg !6949 ; [debug line = 384:14@351:10@247:13] [debug variable = WBSlave.REG4_ADDR.V]
  call void @llvm.dbg.value(metadata !{i3* %WBSlave_DELAY_ADDR_V}, i64 0, metadata !6973), !dbg !6949 ; [debug line = 384:14@351:10@247:13] [debug variable = WBSlave.DELAY_ADDR.V]
  call void @llvm.dbg.value(metadata !{i3* %WBSlave_LAST_ADDR_V}, i64 0, metadata !6974), !dbg !6949 ; [debug line = 384:14@351:10@247:13] [debug variable = WBSlave.LAST_ADDR.V]
  %val_V_4 = call i4 @_ssdm_op_Read.ap_auto.volatile.i4P(i4* %WBSlave_sel_i_m_if_Val_V), !dbg !6975 ; [#uses=1 type=i4] [debug line = 374:13@60:21@180:66@351:73@386:22@351:10@247:13]
  call void @llvm.dbg.value(metadata !{i4 %val_V_4}, i64 0, metadata !6980), !dbg !6975 ; [debug line = 374:13@60:21@180:66@351:73@386:22@351:10@247:13] [debug variable = val.V]
  %select_2 = zext i4 %val_V_4 to i32, !dbg !6979 ; [#uses=1 type=i32] [debug line = 386:22@351:10@247:13]
  call void @llvm.dbg.value(metadata !{i32 %select_2}, i64 0, metadata !6981), !dbg !6979 ; [debug line = 386:22@351:10@247:13] [debug variable = select]
  br label %12, !dbg !6982                        ; [debug line = 387:23@351:10@247:13]

; <label>:12                                      ; preds = %13, %11
  %mask_8 = phi i32 [ 0, %11 ], [ %mask_11, %13 ] ; [#uses=3 type=i32]
  %select_0_i2 = phi i32 [ %select_2, %11 ], [ %select_6, %13 ] ; [#uses=2 type=i32]
  %i_0_i2 = phi i3 [ 0, %11 ], [ %i_2, %13 ]      ; [#uses=2 type=i3]
  %exitcond_i3 = icmp eq i3 %i_0_i2, -4, !dbg !6982 ; [#uses=1 type=i1] [debug line = 387:23@351:10@247:13]
  %empty_23 = call i32 (...)* @_ssdm_op_SpecLoopTripCount(i64 4, i64 4, i64 4) ; [#uses=0 type=i32]
  %i_2 = add i3 %i_0_i2, 1, !dbg !6983            ; [#uses=1 type=i3] [debug line = 387:32@351:10@247:13]
  br i1 %exitcond_i3, label %gen_select_mask.exit66, label %13, !dbg !6982 ; [debug line = 387:23@351:10@247:13]

; <label>:13                                      ; preds = %12
  %mask_9 = shl i32 %mask_8, 8, !dbg !6984        ; [#uses=2 type=i32] [debug line = 388:13@351:10@247:13]
  call void @llvm.dbg.value(metadata !{i32 %mask_9}, i64 0, metadata !6985), !dbg !6984 ; [debug line = 388:13@351:10@247:13] [debug variable = mask]
  %tmp_36 = call i1 @_ssdm_op_BitSelect.i1.i32.i32(i32 %select_0_i2, i32 3), !dbg !6986 ; [#uses=1 type=i1] [debug line = 389:13@351:10@247:13]
  %mask_10 = or i32 %mask_9, 255, !dbg !6987      ; [#uses=1 type=i32] [debug line = 390:17@351:10@247:13]
  call void @llvm.dbg.value(metadata !{i32 %mask_10}, i64 0, metadata !6985), !dbg !6987 ; [debug line = 390:17@351:10@247:13] [debug variable = mask]
  %mask_11 = select i1 %tmp_36, i32 %mask_10, i32 %mask_9, !dbg !6986 ; [#uses=1 type=i32] [debug line = 389:13@351:10@247:13]
  call void @llvm.dbg.value(metadata !{i32 %mask_11}, i64 0, metadata !6985), !dbg !6986 ; [debug line = 389:13@351:10@247:13] [debug variable = mask]
  %select_6 = shl i32 %select_0_i2, 1, !dbg !6988 ; [#uses=1 type=i32] [debug line = 392:13@351:10@247:13]
  call void @llvm.dbg.value(metadata !{i32 %select_6}, i64 0, metadata !6981), !dbg !6988 ; [debug line = 392:13@351:10@247:13] [debug variable = select]
  call void @llvm.dbg.value(metadata !{i3 %i_2}, i64 0, metadata !6989), !dbg !6983 ; [debug line = 387:32@351:10@247:13] [debug variable = i]
  br label %12, !dbg !6983                        ; [debug line = 387:32@351:10@247:13]

gen_select_mask.exit66:                           ; preds = %12
  call void @llvm.dbg.value(metadata !{i32 %mask_8}, i64 0, metadata !6907) nounwind, !dbg !6947 ; [debug line = 351:10@247:13] [debug variable = mask]
  %tmp_20 = zext i30 %r_V to i64, !dbg !6990      ; [#uses=1 type=i64] [debug line = 352:3@247:13]
  %WBSlave_PBuffer_addr = getelementptr [500 x i32]* %WBSlave_PBuffer, i64 0, i64 %tmp_20, !dbg !6990 ; [#uses=2 type=i32*] [debug line = 352:3@247:13]
  %WBSlave_PBuffer_load = load i32* %WBSlave_PBuffer_addr, align 4, !dbg !6990 ; [#uses=1 type=i32] [debug line = 352:3@247:13]
  %tmp_22 = xor i32 %mask_8, -1, !dbg !6990       ; [#uses=1 type=i32] [debug line = 352:3@247:13]
  %tmp_23 = and i32 %WBSlave_PBuffer_load, %tmp_22, !dbg !6990 ; [#uses=1 type=i32] [debug line = 352:3@247:13]
  %tmp_24 = and i32 %mask_8, %val_V_1, !dbg !6991 ; [#uses=1 type=i32] [debug line = 352:48@247:13]
  %tmp_25 = or i32 %tmp_23, %tmp_24, !dbg !6991   ; [#uses=1 type=i32] [debug line = 352:48@247:13]
  store i32 %tmp_25, i32* %WBSlave_PBuffer_addr, align 4, !dbg !6991 ; [debug line = 352:48@247:13]
  %WBSlave_regs_load_4 = load i32* %WBSlave_regs_addr, align 4, !dbg !6992 ; [#uses=3 type=i32] [debug line = 353:12@247:13]
  %tmp_26 = icmp eq i32 %WBSlave_regs_load_4, 0, !dbg !6992 ; [#uses=1 type=i1] [debug line = 353:12@247:13]
  br i1 %tmp_26, label %_ZN7_ap_sc_7sc_core4waitEi.exit.i, label %14, !dbg !6992 ; [debug line = 353:12@247:13]

; <label>:14                                      ; preds = %gen_select_mask.exit66
  call void @llvm.dbg.value(metadata !{i32 %WBSlave_regs_load_4}, i64 0, metadata !6993) nounwind, !dbg !6995 ; [debug line = 802:53@353:39@247:13] [debug variable = n]
  %tmp_42 = call i31 @_ssdm_op_PartSelect.i31.i32.i32.i32(i32 %WBSlave_regs_load_4, i32 1, i32 31), !dbg !6996 ; [#uses=1 type=i31] [debug line = 803:5@353:39@247:13]
  %icmp5 = icmp slt i31 %tmp_42, 1, !dbg !6996    ; [#uses=1 type=i1] [debug line = 803:5@353:39@247:13]
  br i1 %icmp5, label %15, label %.preheader.i, !dbg !6996 ; [debug line = 803:5@353:39@247:13]

; <label>:15                                      ; preds = %14
  call void (...)* @_ssdm_op_Wait(i32 1) nounwind, !dbg !6997 ; [debug line = 803:19@353:39@247:13]
  br label %_ZN7_ap_sc_7sc_core4waitEi.exit3.i, !dbg !6998 ; [debug line = 803:37@353:39@247:13]

.preheader.i:                                     ; preds = %16, %14
  %i_i2_0_i = phi i31 [ %i_6, %16 ], [ 0, %14 ]   ; [#uses=2 type=i31]
  %i_i2_0_i_cast = zext i31 %i_i2_0_i to i32, !dbg !6999 ; [#uses=1 type=i32] [debug line = 804:19@353:39@247:13]
  %exitcond_i = icmp eq i32 %i_i2_0_i_cast, %WBSlave_regs_load_4, !dbg !6999 ; [#uses=1 type=i1] [debug line = 804:19@353:39@247:13]
  %empty_24 = call i32 (...)* @_ssdm_op_SpecLoopTripCount(i64 2, i64 -1, i64 0) ; [#uses=0 type=i32]
  %i_6 = add i31 %i_i2_0_i, 1, !dbg !7000         ; [#uses=1 type=i31] [debug line = 804:28@353:39@247:13]
  br i1 %exitcond_i, label %_ZN7_ap_sc_7sc_core4waitEi.exit3.i, label %16, !dbg !6999 ; [debug line = 804:19@353:39@247:13]

; <label>:16                                      ; preds = %.preheader.i
  call void (...)* @_ssdm_op_Wait(i32 1) nounwind, !dbg !7001 ; [debug line = 806:2@353:39@247:13]
  call void @llvm.dbg.value(metadata !{i31 %i_6}, i64 0, metadata !7002) nounwind, !dbg !7000 ; [debug line = 804:28@353:39@247:13] [debug variable = i]
  br label %.preheader.i, !dbg !7000              ; [debug line = 804:28@353:39@247:13]

_ZN7_ap_sc_7sc_core4waitEi.exit3.i:               ; preds = %.preheader.i, %15
  br label %_ZN7_ap_sc_7sc_core4waitEi.exit.i, !dbg !6994 ; [debug line = 353:39@247:13]

_ZN7_ap_sc_7sc_core4waitEi.exit.i:                ; preds = %_ZN7_ap_sc_7sc_core4waitEi.exit3.i, %gen_select_mask.exit66
  call void @llvm.dbg.value(metadata !{i1* %WBSlave_ack_o_m_if_Val}, i64 0, metadata !7003) nounwind, !dbg !7007 ; [debug line = 128:96@207:13@427:73@354:3@247:13] [debug variable = P]
  call void @_ssdm_op_Write.ap_auto.volatile.i1P(i1* %WBSlave_ack_o_m_if_Val, i1 true), !dbg !7008 ; [debug line = 167:116@207:13@427:73@354:3@247:13]
  %WBSlave_regs_load_8 = load i32* %WBSlave_regs_addr_3, align 4, !dbg !7009 ; [#uses=1 type=i32] [debug line = 355:20@247:13]
  %v_2 = icmp ne i32 %WBSlave_regs_load_8, 0, !dbg !7009 ; [#uses=1 type=i1] [debug line = 355:20@247:13]
  call void @llvm.dbg.value(metadata !{i1 %v_2}, i64 0, metadata !7010) nounwind, !dbg !7012 ; [debug line = 206:21@427:73@355:20@247:13] [debug variable = v]
  call void @llvm.dbg.value(metadata !{i1* %WBSlave_int_o_m_if_Val}, i64 0, metadata !7013) nounwind, !dbg !7015 ; [debug line = 128:96@207:13@427:73@355:20@247:13] [debug variable = P]
  call void @_ssdm_op_Write.ap_auto.volatile.i1P(i1* %WBSlave_int_o_m_if_Val, i1 %v_2), !dbg !7016 ; [debug line = 167:116@207:13@427:73@355:20@247:13]
  call void (...)* @_ssdm_op_Wait(i32 1) nounwind, !dbg !7017 ; [debug line = 803:19@356:7@247:13]
  br label %._crit_edge.i, !dbg !7019             ; [debug line = 357:2@247:13]

._crit_edge.i:                                    ; preds = %_ZN7_ap_sc_7sc_core4waitEi.exit.i, %10
  br label %receive.exit

receive.exit:                                     ; preds = %._crit_edge.i, %_ZN7_ap_sc_7sc_core4waitEi.exit9.i
  br label %31, !dbg !7020                        ; [debug line = 248:9]

; <label>:17                                      ; preds = %._crit_edge
  call void @llvm.dbg.value(metadata !{i1* %WBSlave_clk_m_if_Val}, i64 0, metadata !7021), !dbg !7026 ; [debug line = 360:15@249:13] [debug variable = WBSlave.clk.m_if.Val]
  call void @llvm.dbg.value(metadata !{i1* %WBSlave_reset_m_if_Val}, i64 0, metadata !7027), !dbg !7026 ; [debug line = 360:15@249:13] [debug variable = WBSlave.reset.m_if.Val]
  call void @llvm.dbg.value(metadata !{i32* %WBSlave_adr_i_m_if_Val_V}, i64 0, metadata !7028), !dbg !7026 ; [debug line = 360:15@249:13] [debug variable = WBSlave.adr_i.m_if.Val.V]
  call void @llvm.dbg.value(metadata !{i32* %WBSlave_dat_i_m_if_Val_V}, i64 0, metadata !7029), !dbg !7026 ; [debug line = 360:15@249:13] [debug variable = WBSlave.dat_i.m_if.Val.V]
  call void @llvm.dbg.value(metadata !{i1* %WBSlave_we_i_m_if_Val}, i64 0, metadata !7030), !dbg !7026 ; [debug line = 360:15@249:13] [debug variable = WBSlave.we_i.m_if.Val]
  call void @llvm.dbg.value(metadata !{i1* %WBSlave_stb_i_m_if_Val}, i64 0, metadata !7031), !dbg !7026 ; [debug line = 360:15@249:13] [debug variable = WBSlave.stb_i.m_if.Val]
  call void @llvm.dbg.value(metadata !{i1* %WBSlave_cyc_i_m_if_Val}, i64 0, metadata !7032), !dbg !7026 ; [debug line = 360:15@249:13] [debug variable = WBSlave.cyc_i.m_if.Val]
  call void @llvm.dbg.value(metadata !{i4* %WBSlave_sel_i_m_if_Val_V}, i64 0, metadata !7033), !dbg !7026 ; [debug line = 360:15@249:13] [debug variable = WBSlave.sel_i.m_if.Val.V]
  call void @llvm.dbg.value(metadata !{i32* %WBSlave_dat_o_m_if_Val_V}, i64 0, metadata !7034), !dbg !7026 ; [debug line = 360:15@249:13] [debug variable = WBSlave.dat_o.m_if.Val.V]
  call void @llvm.dbg.value(metadata !{i1* %WBSlave_ack_o_m_if_Val}, i64 0, metadata !7035), !dbg !7026 ; [debug line = 360:15@249:13] [debug variable = WBSlave.ack_o.m_if.Val]
  call void @llvm.dbg.value(metadata !{i1* %WBSlave_int_o_m_if_Val}, i64 0, metadata !7036), !dbg !7026 ; [debug line = 360:15@249:13] [debug variable = WBSlave.int_o.m_if.Val]
  call void @llvm.dbg.value(metadata !{[16 x i32]* %WBSlave_regs}, i64 0, metadata !7037), !dbg !7026 ; [debug line = 360:15@249:13] [debug variable = WBSlave.regs]
  call void @llvm.dbg.value(metadata !{[500 x i32]* %WBSlave_PBuffer}, i64 0, metadata !7038), !dbg !7026 ; [debug line = 360:15@249:13] [debug variable = WBSlave.PBuffer]
  call void @llvm.dbg.value(metadata !{i3* %WBSlave_CTRL_ADDR_V}, i64 0, metadata !7039), !dbg !7026 ; [debug line = 360:15@249:13] [debug variable = WBSlave.CTRL_ADDR.V]
  call void @llvm.dbg.value(metadata !{i3* %WBSlave_STAT_ADDR_V}, i64 0, metadata !7040), !dbg !7026 ; [debug line = 360:15@249:13] [debug variable = WBSlave.STAT_ADDR.V]
  call void @llvm.dbg.value(metadata !{i21* %WBSlave_log_in_V}, i64 0, metadata !7041), !dbg !7026 ; [debug line = 360:15@249:13] [debug variable = WBSlave.log_in.V]
  call void @llvm.dbg.value(metadata !{i21* %WBSlave_log_out_V}, i64 0, metadata !7042), !dbg !7026 ; [debug line = 360:15@249:13] [debug variable = WBSlave.log_out.V]
  call void @llvm.dbg.value(metadata !{i1* %WBSlave_log_start_V}, i64 0, metadata !7043), !dbg !7026 ; [debug line = 360:15@249:13] [debug variable = WBSlave.log_start.V]
  call void @llvm.dbg.value(metadata !{i1* %WBSlave_log_done_V}, i64 0, metadata !7044), !dbg !7026 ; [debug line = 360:15@249:13] [debug variable = WBSlave.log_done.V]
  call void @llvm.dbg.value(metadata !{i3* %WBSlave_REG0_ADDR_V}, i64 0, metadata !7045), !dbg !7026 ; [debug line = 360:15@249:13] [debug variable = WBSlave.REG0_ADDR.V]
  call void @llvm.dbg.value(metadata !{i3* %WBSlave_REG1_ADDR_V}, i64 0, metadata !7046), !dbg !7026 ; [debug line = 360:15@249:13] [debug variable = WBSlave.REG1_ADDR.V]
  call void @llvm.dbg.value(metadata !{i3* %WBSlave_REG2_ADDR_V}, i64 0, metadata !7047), !dbg !7026 ; [debug line = 360:15@249:13] [debug variable = WBSlave.REG2_ADDR.V]
  call void @llvm.dbg.value(metadata !{i3* %WBSlave_REG3_ADDR_V}, i64 0, metadata !7048), !dbg !7026 ; [debug line = 360:15@249:13] [debug variable = WBSlave.REG3_ADDR.V]
  call void @llvm.dbg.value(metadata !{i3* %WBSlave_REG4_ADDR_V}, i64 0, metadata !7049), !dbg !7026 ; [debug line = 360:15@249:13] [debug variable = WBSlave.REG4_ADDR.V]
  call void @llvm.dbg.value(metadata !{i3* %WBSlave_DELAY_ADDR_V}, i64 0, metadata !7050), !dbg !7026 ; [debug line = 360:15@249:13] [debug variable = WBSlave.DELAY_ADDR.V]
  call void @llvm.dbg.value(metadata !{i3* %WBSlave_LAST_ADDR_V}, i64 0, metadata !7051), !dbg !7026 ; [debug line = 360:15@249:13] [debug variable = WBSlave.LAST_ADDR.V]
  call void @llvm.dbg.value(metadata !{i32 %val_V}, i64 0, metadata !7052) nounwind, !dbg !7058 ; [debug line = 374:13@60:21@180:66@351:73@361:22@249:13] [debug variable = val.V]
  %tmp_15 = call i26 @_ssdm_op_PartSelect.i26.i32.i32.i32(i32 %val_V, i32 6, i32 31), !dbg !7059 ; [#uses=1 type=i26] [debug line = 364:2@249:13]
  %icmp1 = icmp eq i26 %tmp_15, 0, !dbg !7059     ; [#uses=1 type=i1] [debug line = 364:2@249:13]
  br i1 %icmp1, label %18, label %24, !dbg !7059  ; [debug line = 364:2@249:13]

; <label>:18                                      ; preds = %17
  call void @llvm.dbg.value(metadata !{i1* %WBSlave_clk_m_if_Val}, i64 0, metadata !7060), !dbg !7064 ; [debug line = 384:14@365:10@249:13] [debug variable = WBSlave.clk.m_if.Val]
  call void @llvm.dbg.value(metadata !{i1* %WBSlave_reset_m_if_Val}, i64 0, metadata !7065), !dbg !7064 ; [debug line = 384:14@365:10@249:13] [debug variable = WBSlave.reset.m_if.Val]
  call void @llvm.dbg.value(metadata !{i32* %WBSlave_adr_i_m_if_Val_V}, i64 0, metadata !7066), !dbg !7064 ; [debug line = 384:14@365:10@249:13] [debug variable = WBSlave.adr_i.m_if.Val.V]
  call void @llvm.dbg.value(metadata !{i32* %WBSlave_dat_i_m_if_Val_V}, i64 0, metadata !7067), !dbg !7064 ; [debug line = 384:14@365:10@249:13] [debug variable = WBSlave.dat_i.m_if.Val.V]
  call void @llvm.dbg.value(metadata !{i1* %WBSlave_we_i_m_if_Val}, i64 0, metadata !7068), !dbg !7064 ; [debug line = 384:14@365:10@249:13] [debug variable = WBSlave.we_i.m_if.Val]
  call void @llvm.dbg.value(metadata !{i1* %WBSlave_stb_i_m_if_Val}, i64 0, metadata !7069), !dbg !7064 ; [debug line = 384:14@365:10@249:13] [debug variable = WBSlave.stb_i.m_if.Val]
  call void @llvm.dbg.value(metadata !{i1* %WBSlave_cyc_i_m_if_Val}, i64 0, metadata !7070), !dbg !7064 ; [debug line = 384:14@365:10@249:13] [debug variable = WBSlave.cyc_i.m_if.Val]
  call void @llvm.dbg.value(metadata !{i4* %WBSlave_sel_i_m_if_Val_V}, i64 0, metadata !7071), !dbg !7064 ; [debug line = 384:14@365:10@249:13] [debug variable = WBSlave.sel_i.m_if.Val.V]
  call void @llvm.dbg.value(metadata !{i32* %WBSlave_dat_o_m_if_Val_V}, i64 0, metadata !7072), !dbg !7064 ; [debug line = 384:14@365:10@249:13] [debug variable = WBSlave.dat_o.m_if.Val.V]
  call void @llvm.dbg.value(metadata !{i1* %WBSlave_ack_o_m_if_Val}, i64 0, metadata !7073), !dbg !7064 ; [debug line = 384:14@365:10@249:13] [debug variable = WBSlave.ack_o.m_if.Val]
  call void @llvm.dbg.value(metadata !{i1* %WBSlave_int_o_m_if_Val}, i64 0, metadata !7074), !dbg !7064 ; [debug line = 384:14@365:10@249:13] [debug variable = WBSlave.int_o.m_if.Val]
  call void @llvm.dbg.value(metadata !{[16 x i32]* %WBSlave_regs}, i64 0, metadata !7075), !dbg !7064 ; [debug line = 384:14@365:10@249:13] [debug variable = WBSlave.regs]
  call void @llvm.dbg.value(metadata !{[500 x i32]* %WBSlave_PBuffer}, i64 0, metadata !7076), !dbg !7064 ; [debug line = 384:14@365:10@249:13] [debug variable = WBSlave.PBuffer]
  call void @llvm.dbg.value(metadata !{i3* %WBSlave_CTRL_ADDR_V}, i64 0, metadata !7077), !dbg !7064 ; [debug line = 384:14@365:10@249:13] [debug variable = WBSlave.CTRL_ADDR.V]
  call void @llvm.dbg.value(metadata !{i3* %WBSlave_STAT_ADDR_V}, i64 0, metadata !7078), !dbg !7064 ; [debug line = 384:14@365:10@249:13] [debug variable = WBSlave.STAT_ADDR.V]
  call void @llvm.dbg.value(metadata !{i21* %WBSlave_log_in_V}, i64 0, metadata !7079), !dbg !7064 ; [debug line = 384:14@365:10@249:13] [debug variable = WBSlave.log_in.V]
  call void @llvm.dbg.value(metadata !{i21* %WBSlave_log_out_V}, i64 0, metadata !7080), !dbg !7064 ; [debug line = 384:14@365:10@249:13] [debug variable = WBSlave.log_out.V]
  call void @llvm.dbg.value(metadata !{i1* %WBSlave_log_start_V}, i64 0, metadata !7081), !dbg !7064 ; [debug line = 384:14@365:10@249:13] [debug variable = WBSlave.log_start.V]
  call void @llvm.dbg.value(metadata !{i1* %WBSlave_log_done_V}, i64 0, metadata !7082), !dbg !7064 ; [debug line = 384:14@365:10@249:13] [debug variable = WBSlave.log_done.V]
  call void @llvm.dbg.value(metadata !{i3* %WBSlave_REG0_ADDR_V}, i64 0, metadata !7083), !dbg !7064 ; [debug line = 384:14@365:10@249:13] [debug variable = WBSlave.REG0_ADDR.V]
  call void @llvm.dbg.value(metadata !{i3* %WBSlave_REG1_ADDR_V}, i64 0, metadata !7084), !dbg !7064 ; [debug line = 384:14@365:10@249:13] [debug variable = WBSlave.REG1_ADDR.V]
  call void @llvm.dbg.value(metadata !{i3* %WBSlave_REG2_ADDR_V}, i64 0, metadata !7085), !dbg !7064 ; [debug line = 384:14@365:10@249:13] [debug variable = WBSlave.REG2_ADDR.V]
  call void @llvm.dbg.value(metadata !{i3* %WBSlave_REG3_ADDR_V}, i64 0, metadata !7086), !dbg !7064 ; [debug line = 384:14@365:10@249:13] [debug variable = WBSlave.REG3_ADDR.V]
  call void @llvm.dbg.value(metadata !{i3* %WBSlave_REG4_ADDR_V}, i64 0, metadata !7087), !dbg !7064 ; [debug line = 384:14@365:10@249:13] [debug variable = WBSlave.REG4_ADDR.V]
  call void @llvm.dbg.value(metadata !{i3* %WBSlave_DELAY_ADDR_V}, i64 0, metadata !7088), !dbg !7064 ; [debug line = 384:14@365:10@249:13] [debug variable = WBSlave.DELAY_ADDR.V]
  call void @llvm.dbg.value(metadata !{i3* %WBSlave_LAST_ADDR_V}, i64 0, metadata !7089), !dbg !7064 ; [debug line = 384:14@365:10@249:13] [debug variable = WBSlave.LAST_ADDR.V]
  %val_V_3 = call i4 @_ssdm_op_Read.ap_auto.volatile.i4P(i4* %WBSlave_sel_i_m_if_Val_V), !dbg !7090 ; [#uses=1 type=i4] [debug line = 374:13@60:21@180:66@351:73@386:22@365:10@249:13]
  call void @llvm.dbg.value(metadata !{i4 %val_V_3}, i64 0, metadata !7095), !dbg !7090 ; [debug line = 374:13@60:21@180:66@351:73@386:22@365:10@249:13] [debug variable = val.V]
  %select_1 = zext i4 %val_V_3 to i32, !dbg !7094 ; [#uses=1 type=i32] [debug line = 386:22@365:10@249:13]
  call void @llvm.dbg.value(metadata !{i32 %select_1}, i64 0, metadata !7096), !dbg !7094 ; [debug line = 386:22@365:10@249:13] [debug variable = select]
  br label %19, !dbg !7097                        ; [debug line = 387:23@365:10@249:13]

; <label>:19                                      ; preds = %20, %18
  %mask_4 = phi i32 [ 0, %18 ], [ %mask_7, %20 ]  ; [#uses=2 type=i32]
  %select_0_i1 = phi i32 [ %select_1, %18 ], [ %select_5, %20 ] ; [#uses=2 type=i32]
  %i_0_i1 = phi i3 [ 0, %18 ], [ %i_1, %20 ]      ; [#uses=2 type=i3]
  %exitcond_i2 = icmp eq i3 %i_0_i1, -4, !dbg !7097 ; [#uses=1 type=i1] [debug line = 387:23@365:10@249:13]
  %empty_25 = call i32 (...)* @_ssdm_op_SpecLoopTripCount(i64 4, i64 4, i64 4) ; [#uses=0 type=i32]
  %i_1 = add i3 %i_0_i1, 1, !dbg !7098            ; [#uses=1 type=i3] [debug line = 387:32@365:10@249:13]
  br i1 %exitcond_i2, label %gen_select_mask.exit72, label %20, !dbg !7097 ; [debug line = 387:23@365:10@249:13]

; <label>:20                                      ; preds = %19
  %mask_5 = shl i32 %mask_4, 8, !dbg !7099        ; [#uses=2 type=i32] [debug line = 388:13@365:10@249:13]
  call void @llvm.dbg.value(metadata !{i32 %mask_5}, i64 0, metadata !7100), !dbg !7099 ; [debug line = 388:13@365:10@249:13] [debug variable = mask]
  %tmp_32 = call i1 @_ssdm_op_BitSelect.i1.i32.i32(i32 %select_0_i1, i32 3), !dbg !7101 ; [#uses=1 type=i1] [debug line = 389:13@365:10@249:13]
  %mask_6 = or i32 %mask_5, 255, !dbg !7102       ; [#uses=1 type=i32] [debug line = 390:17@365:10@249:13]
  call void @llvm.dbg.value(metadata !{i32 %mask_6}, i64 0, metadata !7100), !dbg !7102 ; [debug line = 390:17@365:10@249:13] [debug variable = mask]
  %mask_7 = select i1 %tmp_32, i32 %mask_6, i32 %mask_5, !dbg !7101 ; [#uses=1 type=i32] [debug line = 389:13@365:10@249:13]
  call void @llvm.dbg.value(metadata !{i32 %mask_7}, i64 0, metadata !7100), !dbg !7101 ; [debug line = 389:13@365:10@249:13] [debug variable = mask]
  %select_5 = shl i32 %select_0_i1, 1, !dbg !7103 ; [#uses=1 type=i32] [debug line = 392:13@365:10@249:13]
  call void @llvm.dbg.value(metadata !{i32 %select_5}, i64 0, metadata !7096), !dbg !7103 ; [debug line = 392:13@365:10@249:13] [debug variable = select]
  call void @llvm.dbg.value(metadata !{i3 %i_1}, i64 0, metadata !7104), !dbg !7098 ; [debug line = 387:32@365:10@249:13] [debug variable = i]
  br label %19, !dbg !7098                        ; [debug line = 387:32@365:10@249:13]

gen_select_mask.exit72:                           ; preds = %19
  call void @llvm.dbg.value(metadata !{i32 %mask_4}, i64 0, metadata !7105) nounwind, !dbg !7062 ; [debug line = 365:10@249:13] [debug variable = mask]
  %tmp_16 = zext i30 %r_V to i64, !dbg !7106      ; [#uses=1 type=i64] [debug line = 366:3@249:13]
  %WBSlave_regs_addr_2 = getelementptr [16 x i32]* %WBSlave_regs, i64 0, i64 %tmp_16, !dbg !7106 ; [#uses=1 type=i32*] [debug line = 366:3@249:13]
  %WBSlave_regs_load_2 = load i32* %WBSlave_regs_addr_2, align 4, !dbg !7106 ; [#uses=1 type=i32] [debug line = 366:3@249:13]
  %v_V = and i32 %WBSlave_regs_load_2, %mask_4, !dbg !7106 ; [#uses=1 type=i32] [debug line = 366:3@249:13]
  call void @llvm.dbg.value(metadata !{i32 %v_V}, i64 0, metadata !7107) nounwind, !dbg !7109 ; [debug line = 344:68@366:3@249:13] [debug variable = v]
  call void @llvm.dbg.value(metadata !{i32 %v_V}, i64 0, metadata !7110) nounwind, !dbg !7113 ; [debug line = 344:68@344:91@366:3@249:13] [debug variable = v]
  call void @llvm.dbg.value(metadata !{i32 %v_V}, i64 0, metadata !7114) nounwind, !dbg !7117 ; [debug line = 1457:77@344:89@344:91@366:3@249:13] [debug variable = op]
  call void @llvm.dbg.value(metadata !{i32 %v_V}, i64 0, metadata !7118) nounwind, !dbg !7121 ; [debug line = 206:21@427:73@366:3@249:13] [debug variable = v.V]
  call void @_ssdm_op_Write.ap_auto.volatile.i32P(i32* %WBSlave_dat_o_m_if_Val_V, i32 %v_V), !dbg !7122 ; [debug line = 365:13@56:100@207:13@427:73@366:3@249:13]
  %WBSlave_regs_load_3 = load i32* %WBSlave_regs_addr, align 4, !dbg !7125 ; [#uses=3 type=i32] [debug line = 367:12@249:13]
  %tmp_17 = icmp eq i32 %WBSlave_regs_load_3, 0, !dbg !7125 ; [#uses=1 type=i1] [debug line = 367:12@249:13]
  br i1 %tmp_17, label %_ZN7_ap_sc_7sc_core4waitEi.exit11.i, label %21, !dbg !7125 ; [debug line = 367:12@249:13]

; <label>:21                                      ; preds = %gen_select_mask.exit72
  call void @llvm.dbg.value(metadata !{i32 %WBSlave_regs_load_3}, i64 0, metadata !7126) nounwind, !dbg !7128 ; [debug line = 802:53@367:39@249:13] [debug variable = n]
  %tmp_38 = call i31 @_ssdm_op_PartSelect.i31.i32.i32.i32(i32 %WBSlave_regs_load_3, i32 1, i32 31), !dbg !7129 ; [#uses=1 type=i31] [debug line = 803:5@367:39@249:13]
  %icmp4 = icmp slt i31 %tmp_38, 1, !dbg !7129    ; [#uses=1 type=i1] [debug line = 803:5@367:39@249:13]
  br i1 %icmp4, label %22, label %.preheader106.i, !dbg !7129 ; [debug line = 803:5@367:39@249:13]

; <label>:22                                      ; preds = %21
  call void (...)* @_ssdm_op_Wait(i32 1) nounwind, !dbg !7130 ; [debug line = 803:19@367:39@249:13]
  br label %_ZN7_ap_sc_7sc_core4waitEi.exit7.i, !dbg !7131 ; [debug line = 803:37@367:39@249:13]

.preheader106.i:                                  ; preds = %23, %21
  %i_i6_0_i = phi i31 [ %i_5, %23 ], [ 0, %21 ]   ; [#uses=2 type=i31]
  %i_i6_0_i_cast = zext i31 %i_i6_0_i to i32, !dbg !7132 ; [#uses=1 type=i32] [debug line = 804:19@367:39@249:13]
  %exitcond105_i = icmp eq i32 %i_i6_0_i_cast, %WBSlave_regs_load_3, !dbg !7132 ; [#uses=1 type=i1] [debug line = 804:19@367:39@249:13]
  %empty_26 = call i32 (...)* @_ssdm_op_SpecLoopTripCount(i64 2, i64 -1, i64 0) ; [#uses=0 type=i32]
  %i_5 = add i31 %i_i6_0_i, 1, !dbg !7133         ; [#uses=1 type=i31] [debug line = 804:28@367:39@249:13]
  br i1 %exitcond105_i, label %_ZN7_ap_sc_7sc_core4waitEi.exit7.i, label %23, !dbg !7132 ; [debug line = 804:19@367:39@249:13]

; <label>:23                                      ; preds = %.preheader106.i
  call void (...)* @_ssdm_op_Wait(i32 1) nounwind, !dbg !7134 ; [debug line = 806:2@367:39@249:13]
  call void @llvm.dbg.value(metadata !{i31 %i_5}, i64 0, metadata !7135) nounwind, !dbg !7133 ; [debug line = 804:28@367:39@249:13] [debug variable = i]
  br label %.preheader106.i, !dbg !7133           ; [debug line = 804:28@367:39@249:13]

_ZN7_ap_sc_7sc_core4waitEi.exit7.i:               ; preds = %.preheader106.i, %22
  br label %_ZN7_ap_sc_7sc_core4waitEi.exit11.i, !dbg !7127 ; [debug line = 367:39@249:13]

_ZN7_ap_sc_7sc_core4waitEi.exit11.i:              ; preds = %_ZN7_ap_sc_7sc_core4waitEi.exit7.i, %gen_select_mask.exit72
  call void @llvm.dbg.value(metadata !{i1* %WBSlave_ack_o_m_if_Val}, i64 0, metadata !7136) nounwind, !dbg !7140 ; [debug line = 128:96@207:13@427:73@368:3@249:13] [debug variable = P]
  call void @_ssdm_op_Write.ap_auto.volatile.i1P(i1* %WBSlave_ack_o_m_if_Val, i1 true), !dbg !7141 ; [debug line = 167:116@207:13@427:73@368:3@249:13]
  %WBSlave_regs_load_7 = load i32* %WBSlave_regs_addr_3, align 4, !dbg !7142 ; [#uses=1 type=i32] [debug line = 369:20@249:13]
  %v_1 = icmp ne i32 %WBSlave_regs_load_7, 0, !dbg !7142 ; [#uses=1 type=i1] [debug line = 369:20@249:13]
  call void @llvm.dbg.value(metadata !{i1 %v_1}, i64 0, metadata !7143) nounwind, !dbg !7145 ; [debug line = 206:21@427:73@369:20@249:13] [debug variable = v]
  call void @llvm.dbg.value(metadata !{i1* %WBSlave_int_o_m_if_Val}, i64 0, metadata !7146) nounwind, !dbg !7148 ; [debug line = 128:96@207:13@427:73@369:20@249:13] [debug variable = P]
  call void @_ssdm_op_Write.ap_auto.volatile.i1P(i1* %WBSlave_int_o_m_if_Val, i1 %v_1), !dbg !7149 ; [debug line = 167:116@207:13@427:73@369:20@249:13]
  call void (...)* @_ssdm_op_Wait(i32 1) nounwind, !dbg !7150 ; [debug line = 803:19@370:3@249:13]
  br label %send.exit, !dbg !7152                 ; [debug line = 371:6@249:13]

; <label>:24                                      ; preds = %17
  %tmp_19 = call i24 @_ssdm_op_PartSelect.i24.i32.i32.i32(i32 %val_V, i32 8, i32 31), !dbg !7153 ; [#uses=1 type=i24] [debug line = 373:5@249:13]
  %icmp3 = icmp ne i24 %tmp_19, 0, !dbg !7153     ; [#uses=1 type=i1] [debug line = 373:5@249:13]
  %tmp_9 = icmp ult i32 %val_V, 1280, !dbg !7153  ; [#uses=1 type=i1] [debug line = 373:5@249:13]
  %or_cond_i1 = and i1 %icmp3, %tmp_9, !dbg !7153 ; [#uses=1 type=i1] [debug line = 373:5@249:13]
  br i1 %or_cond_i1, label %25, label %._crit_edge.i59, !dbg !7153 ; [debug line = 373:5@249:13]

; <label>:25                                      ; preds = %24
  call void @llvm.dbg.value(metadata !{i1* %WBSlave_clk_m_if_Val}, i64 0, metadata !7154), !dbg !7158 ; [debug line = 384:14@374:10@249:13] [debug variable = WBSlave.clk.m_if.Val]
  call void @llvm.dbg.value(metadata !{i1* %WBSlave_reset_m_if_Val}, i64 0, metadata !7159), !dbg !7158 ; [debug line = 384:14@374:10@249:13] [debug variable = WBSlave.reset.m_if.Val]
  call void @llvm.dbg.value(metadata !{i32* %WBSlave_adr_i_m_if_Val_V}, i64 0, metadata !7160), !dbg !7158 ; [debug line = 384:14@374:10@249:13] [debug variable = WBSlave.adr_i.m_if.Val.V]
  call void @llvm.dbg.value(metadata !{i32* %WBSlave_dat_i_m_if_Val_V}, i64 0, metadata !7161), !dbg !7158 ; [debug line = 384:14@374:10@249:13] [debug variable = WBSlave.dat_i.m_if.Val.V]
  call void @llvm.dbg.value(metadata !{i1* %WBSlave_we_i_m_if_Val}, i64 0, metadata !7162), !dbg !7158 ; [debug line = 384:14@374:10@249:13] [debug variable = WBSlave.we_i.m_if.Val]
  call void @llvm.dbg.value(metadata !{i1* %WBSlave_stb_i_m_if_Val}, i64 0, metadata !7163), !dbg !7158 ; [debug line = 384:14@374:10@249:13] [debug variable = WBSlave.stb_i.m_if.Val]
  call void @llvm.dbg.value(metadata !{i1* %WBSlave_cyc_i_m_if_Val}, i64 0, metadata !7164), !dbg !7158 ; [debug line = 384:14@374:10@249:13] [debug variable = WBSlave.cyc_i.m_if.Val]
  call void @llvm.dbg.value(metadata !{i4* %WBSlave_sel_i_m_if_Val_V}, i64 0, metadata !7165), !dbg !7158 ; [debug line = 384:14@374:10@249:13] [debug variable = WBSlave.sel_i.m_if.Val.V]
  call void @llvm.dbg.value(metadata !{i32* %WBSlave_dat_o_m_if_Val_V}, i64 0, metadata !7166), !dbg !7158 ; [debug line = 384:14@374:10@249:13] [debug variable = WBSlave.dat_o.m_if.Val.V]
  call void @llvm.dbg.value(metadata !{i1* %WBSlave_ack_o_m_if_Val}, i64 0, metadata !7167), !dbg !7158 ; [debug line = 384:14@374:10@249:13] [debug variable = WBSlave.ack_o.m_if.Val]
  call void @llvm.dbg.value(metadata !{i1* %WBSlave_int_o_m_if_Val}, i64 0, metadata !7168), !dbg !7158 ; [debug line = 384:14@374:10@249:13] [debug variable = WBSlave.int_o.m_if.Val]
  call void @llvm.dbg.value(metadata !{[16 x i32]* %WBSlave_regs}, i64 0, metadata !7169), !dbg !7158 ; [debug line = 384:14@374:10@249:13] [debug variable = WBSlave.regs]
  call void @llvm.dbg.value(metadata !{[500 x i32]* %WBSlave_PBuffer}, i64 0, metadata !7170), !dbg !7158 ; [debug line = 384:14@374:10@249:13] [debug variable = WBSlave.PBuffer]
  call void @llvm.dbg.value(metadata !{i3* %WBSlave_CTRL_ADDR_V}, i64 0, metadata !7171), !dbg !7158 ; [debug line = 384:14@374:10@249:13] [debug variable = WBSlave.CTRL_ADDR.V]
  call void @llvm.dbg.value(metadata !{i3* %WBSlave_STAT_ADDR_V}, i64 0, metadata !7172), !dbg !7158 ; [debug line = 384:14@374:10@249:13] [debug variable = WBSlave.STAT_ADDR.V]
  call void @llvm.dbg.value(metadata !{i21* %WBSlave_log_in_V}, i64 0, metadata !7173), !dbg !7158 ; [debug line = 384:14@374:10@249:13] [debug variable = WBSlave.log_in.V]
  call void @llvm.dbg.value(metadata !{i21* %WBSlave_log_out_V}, i64 0, metadata !7174), !dbg !7158 ; [debug line = 384:14@374:10@249:13] [debug variable = WBSlave.log_out.V]
  call void @llvm.dbg.value(metadata !{i1* %WBSlave_log_start_V}, i64 0, metadata !7175), !dbg !7158 ; [debug line = 384:14@374:10@249:13] [debug variable = WBSlave.log_start.V]
  call void @llvm.dbg.value(metadata !{i1* %WBSlave_log_done_V}, i64 0, metadata !7176), !dbg !7158 ; [debug line = 384:14@374:10@249:13] [debug variable = WBSlave.log_done.V]
  call void @llvm.dbg.value(metadata !{i3* %WBSlave_REG0_ADDR_V}, i64 0, metadata !7177), !dbg !7158 ; [debug line = 384:14@374:10@249:13] [debug variable = WBSlave.REG0_ADDR.V]
  call void @llvm.dbg.value(metadata !{i3* %WBSlave_REG1_ADDR_V}, i64 0, metadata !7178), !dbg !7158 ; [debug line = 384:14@374:10@249:13] [debug variable = WBSlave.REG1_ADDR.V]
  call void @llvm.dbg.value(metadata !{i3* %WBSlave_REG2_ADDR_V}, i64 0, metadata !7179), !dbg !7158 ; [debug line = 384:14@374:10@249:13] [debug variable = WBSlave.REG2_ADDR.V]
  call void @llvm.dbg.value(metadata !{i3* %WBSlave_REG3_ADDR_V}, i64 0, metadata !7180), !dbg !7158 ; [debug line = 384:14@374:10@249:13] [debug variable = WBSlave.REG3_ADDR.V]
  call void @llvm.dbg.value(metadata !{i3* %WBSlave_REG4_ADDR_V}, i64 0, metadata !7181), !dbg !7158 ; [debug line = 384:14@374:10@249:13] [debug variable = WBSlave.REG4_ADDR.V]
  call void @llvm.dbg.value(metadata !{i3* %WBSlave_DELAY_ADDR_V}, i64 0, metadata !7182), !dbg !7158 ; [debug line = 384:14@374:10@249:13] [debug variable = WBSlave.DELAY_ADDR.V]
  call void @llvm.dbg.value(metadata !{i3* %WBSlave_LAST_ADDR_V}, i64 0, metadata !7183), !dbg !7158 ; [debug line = 384:14@374:10@249:13] [debug variable = WBSlave.LAST_ADDR.V]
  %val_V_5 = call i4 @_ssdm_op_Read.ap_auto.volatile.i4P(i4* %WBSlave_sel_i_m_if_Val_V), !dbg !7184 ; [#uses=1 type=i4] [debug line = 374:13@60:21@180:66@351:73@386:22@374:10@249:13]
  call void @llvm.dbg.value(metadata !{i4 %val_V_5}, i64 0, metadata !7189), !dbg !7184 ; [debug line = 374:13@60:21@180:66@351:73@386:22@374:10@249:13] [debug variable = val.V]
  %select_3 = zext i4 %val_V_5 to i32, !dbg !7188 ; [#uses=1 type=i32] [debug line = 386:22@374:10@249:13]
  call void @llvm.dbg.value(metadata !{i32 %select_3}, i64 0, metadata !7190), !dbg !7188 ; [debug line = 386:22@374:10@249:13] [debug variable = select]
  br label %26, !dbg !7191                        ; [debug line = 387:23@374:10@249:13]

; <label>:26                                      ; preds = %27, %25
  %mask_12 = phi i32 [ 0, %25 ], [ %mask_15, %27 ] ; [#uses=2 type=i32]
  %select_0_i3 = phi i32 [ %select_3, %25 ], [ %select_7, %27 ] ; [#uses=2 type=i32]
  %i_0_i3 = phi i3 [ 0, %25 ], [ %i_3, %27 ]      ; [#uses=2 type=i3]
  %exitcond_i4 = icmp eq i3 %i_0_i3, -4, !dbg !7191 ; [#uses=1 type=i1] [debug line = 387:23@374:10@249:13]
  %empty_27 = call i32 (...)* @_ssdm_op_SpecLoopTripCount(i64 4, i64 4, i64 4) ; [#uses=0 type=i32]
  %i_3 = add i3 %i_0_i3, 1, !dbg !7192            ; [#uses=1 type=i3] [debug line = 387:32@374:10@249:13]
  br i1 %exitcond_i4, label %gen_select_mask.exit78, label %27, !dbg !7191 ; [debug line = 387:23@374:10@249:13]

; <label>:27                                      ; preds = %26
  %mask_13 = shl i32 %mask_12, 8, !dbg !7193      ; [#uses=2 type=i32] [debug line = 388:13@374:10@249:13]
  call void @llvm.dbg.value(metadata !{i32 %mask_13}, i64 0, metadata !7194), !dbg !7193 ; [debug line = 388:13@374:10@249:13] [debug variable = mask]
  %tmp_40 = call i1 @_ssdm_op_BitSelect.i1.i32.i32(i32 %select_0_i3, i32 3), !dbg !7195 ; [#uses=1 type=i1] [debug line = 389:13@374:10@249:13]
  %mask_14 = or i32 %mask_13, 255, !dbg !7196     ; [#uses=1 type=i32] [debug line = 390:17@374:10@249:13]
  call void @llvm.dbg.value(metadata !{i32 %mask_14}, i64 0, metadata !7194), !dbg !7196 ; [debug line = 390:17@374:10@249:13] [debug variable = mask]
  %mask_15 = select i1 %tmp_40, i32 %mask_14, i32 %mask_13, !dbg !7195 ; [#uses=1 type=i32] [debug line = 389:13@374:10@249:13]
  call void @llvm.dbg.value(metadata !{i32 %mask_15}, i64 0, metadata !7194), !dbg !7195 ; [debug line = 389:13@374:10@249:13] [debug variable = mask]
  %select_7 = shl i32 %select_0_i3, 1, !dbg !7197 ; [#uses=1 type=i32] [debug line = 392:13@374:10@249:13]
  call void @llvm.dbg.value(metadata !{i32 %select_7}, i64 0, metadata !7190), !dbg !7197 ; [debug line = 392:13@374:10@249:13] [debug variable = select]
  call void @llvm.dbg.value(metadata !{i3 %i_3}, i64 0, metadata !7198), !dbg !7192 ; [debug line = 387:32@374:10@249:13] [debug variable = i]
  br label %26, !dbg !7192                        ; [debug line = 387:32@374:10@249:13]

gen_select_mask.exit78:                           ; preds = %26
  call void @llvm.dbg.value(metadata !{i32 %mask_12}, i64 0, metadata !7105) nounwind, !dbg !7156 ; [debug line = 374:10@249:13] [debug variable = mask]
  %tmp_27 = zext i30 %r_V to i64, !dbg !7199      ; [#uses=1 type=i64] [debug line = 375:3@249:13]
  %WBSlave_PBuffer_addr_1 = getelementptr [500 x i32]* %WBSlave_PBuffer, i64 0, i64 %tmp_27, !dbg !7199 ; [#uses=1 type=i32*] [debug line = 375:3@249:13]
  %WBSlave_PBuffer_load_1 = load i32* %WBSlave_PBuffer_addr_1, align 4, !dbg !7199 ; [#uses=1 type=i32] [debug line = 375:3@249:13]
  %v_V_1 = and i32 %WBSlave_PBuffer_load_1, %mask_12, !dbg !7199 ; [#uses=1 type=i32] [debug line = 375:3@249:13]
  call void @llvm.dbg.value(metadata !{i32 %v_V_1}, i64 0, metadata !7200) nounwind, !dbg !7201 ; [debug line = 344:68@375:3@249:13] [debug variable = v]
  call void @llvm.dbg.value(metadata !{i32 %v_V_1}, i64 0, metadata !7202) nounwind, !dbg !7204 ; [debug line = 344:68@344:91@375:3@249:13] [debug variable = v]
  call void @llvm.dbg.value(metadata !{i32 %v_V_1}, i64 0, metadata !7205) nounwind, !dbg !7207 ; [debug line = 1457:77@344:89@344:91@375:3@249:13] [debug variable = op]
  call void @llvm.dbg.value(metadata !{i32 %v_V_1}, i64 0, metadata !7208) nounwind, !dbg !7210 ; [debug line = 206:21@427:73@375:3@249:13] [debug variable = v.V]
  call void @_ssdm_op_Write.ap_auto.volatile.i32P(i32* %WBSlave_dat_o_m_if_Val_V, i32 %v_V_1), !dbg !7211 ; [debug line = 365:13@56:100@207:13@427:73@375:3@249:13]
  %WBSlave_regs_load_5 = load i32* %WBSlave_regs_addr, align 4, !dbg !7214 ; [#uses=3 type=i32] [debug line = 376:12@249:13]
  %tmp_28 = icmp eq i32 %WBSlave_regs_load_5, 0, !dbg !7214 ; [#uses=1 type=i1] [debug line = 376:12@249:13]
  br i1 %tmp_28, label %_ZN7_ap_sc_7sc_core4waitEi.exit.i58, label %28, !dbg !7214 ; [debug line = 376:12@249:13]

; <label>:28                                      ; preds = %gen_select_mask.exit78
  call void @llvm.dbg.value(metadata !{i32 %WBSlave_regs_load_5}, i64 0, metadata !7215) nounwind, !dbg !7217 ; [debug line = 802:53@376:39@249:13] [debug variable = n]
  %tmp_43 = call i31 @_ssdm_op_PartSelect.i31.i32.i32.i32(i32 %WBSlave_regs_load_5, i32 1, i32 31), !dbg !7218 ; [#uses=1 type=i31] [debug line = 803:5@376:39@249:13]
  %icmp6 = icmp slt i31 %tmp_43, 1, !dbg !7218    ; [#uses=1 type=i1] [debug line = 803:5@376:39@249:13]
  br i1 %icmp6, label %29, label %.preheader.i53, !dbg !7218 ; [debug line = 803:5@376:39@249:13]

; <label>:29                                      ; preds = %28
  call void (...)* @_ssdm_op_Wait(i32 1) nounwind, !dbg !7219 ; [debug line = 803:19@376:39@249:13]
  br label %_ZN7_ap_sc_7sc_core4waitEi.exit3.i54, !dbg !7220 ; [debug line = 803:37@376:39@249:13]

.preheader.i53:                                   ; preds = %30, %28
  %i_i2_0_i1 = phi i31 [ %i_7, %30 ], [ 0, %28 ]  ; [#uses=2 type=i31]
  %i_i2_0_i1_cast = zext i31 %i_i2_0_i1 to i32, !dbg !7221 ; [#uses=1 type=i32] [debug line = 804:19@376:39@249:13]
  %exitcond_i5 = icmp eq i32 %i_i2_0_i1_cast, %WBSlave_regs_load_5, !dbg !7221 ; [#uses=1 type=i1] [debug line = 804:19@376:39@249:13]
  %empty_28 = call i32 (...)* @_ssdm_op_SpecLoopTripCount(i64 2, i64 -1, i64 0) ; [#uses=0 type=i32]
  %i_7 = add i31 %i_i2_0_i1, 1, !dbg !7222        ; [#uses=1 type=i31] [debug line = 804:28@376:39@249:13]
  br i1 %exitcond_i5, label %_ZN7_ap_sc_7sc_core4waitEi.exit3.i54, label %30, !dbg !7221 ; [debug line = 804:19@376:39@249:13]

; <label>:30                                      ; preds = %.preheader.i53
  call void (...)* @_ssdm_op_Wait(i32 1) nounwind, !dbg !7223 ; [debug line = 806:2@376:39@249:13]
  call void @llvm.dbg.value(metadata !{i31 %i_7}, i64 0, metadata !7224) nounwind, !dbg !7222 ; [debug line = 804:28@376:39@249:13] [debug variable = i]
  br label %.preheader.i53, !dbg !7222            ; [debug line = 804:28@376:39@249:13]

_ZN7_ap_sc_7sc_core4waitEi.exit3.i54:             ; preds = %.preheader.i53, %29
  br label %_ZN7_ap_sc_7sc_core4waitEi.exit.i58, !dbg !7216 ; [debug line = 376:39@249:13]

_ZN7_ap_sc_7sc_core4waitEi.exit.i58:              ; preds = %_ZN7_ap_sc_7sc_core4waitEi.exit3.i54, %gen_select_mask.exit78
  call void @llvm.dbg.value(metadata !{i1* %WBSlave_ack_o_m_if_Val}, i64 0, metadata !7225) nounwind, !dbg !7229 ; [debug line = 128:96@207:13@427:73@377:3@249:13] [debug variable = P]
  call void @_ssdm_op_Write.ap_auto.volatile.i1P(i1* %WBSlave_ack_o_m_if_Val, i1 true), !dbg !7230 ; [debug line = 167:116@207:13@427:73@377:3@249:13]
  %WBSlave_regs_load_9 = load i32* %WBSlave_regs_addr_3, align 4, !dbg !7231 ; [#uses=1 type=i32] [debug line = 378:20@249:13]
  %v_3 = icmp ne i32 %WBSlave_regs_load_9, 0, !dbg !7231 ; [#uses=1 type=i1] [debug line = 378:20@249:13]
  call void @llvm.dbg.value(metadata !{i1 %v_3}, i64 0, metadata !7232) nounwind, !dbg !7234 ; [debug line = 206:21@427:73@378:20@249:13] [debug variable = v]
  call void @llvm.dbg.value(metadata !{i1* %WBSlave_int_o_m_if_Val}, i64 0, metadata !7235) nounwind, !dbg !7237 ; [debug line = 128:96@207:13@427:73@378:20@249:13] [debug variable = P]
  call void @_ssdm_op_Write.ap_auto.volatile.i1P(i1* %WBSlave_int_o_m_if_Val, i1 %v_3), !dbg !7238 ; [debug line = 167:116@207:13@427:73@378:20@249:13]
  call void (...)* @_ssdm_op_Wait(i32 1) nounwind, !dbg !7239 ; [debug line = 803:19@379:3@249:13]
  br label %._crit_edge.i59, !dbg !7241           ; [debug line = 380:2@249:13]

._crit_edge.i59:                                  ; preds = %_ZN7_ap_sc_7sc_core4waitEi.exit.i58, %24
  br label %send.exit

send.exit:                                        ; preds = %._crit_edge.i59, %_ZN7_ap_sc_7sc_core4waitEi.exit11.i
  br label %31

; <label>:31                                      ; preds = %send.exit, %receive.exit
  br label %1, !dbg !7242                         ; [debug line = 251:5]
}

; [#uses=3]
define weak void @_ssdm_op_SpecProcessDecl(...) nounwind {
entry:
  ret void
}

; [#uses=6]
define weak void @_ssdm_op_SpecSensitive(...) nounwind {
entry:
  ret void
}

; [#uses=1]
define void @"WBSlave::WBSlave_WBSlave::processSlave"(i1* %WBSlave_clk_m_if_Val, i1* %WBSlave_reset_m_if_Val, i32* %WBSlave_adr_i_m_if_Val_V, i32* %WBSlave_dat_i_m_if_Val_V, i1* %WBSlave_we_i_m_if_Val, i1* %WBSlave_stb_i_m_if_Val, i1* %WBSlave_cyc_i_m_if_Val, i4* %WBSlave_sel_i_m_if_Val_V, i32* %WBSlave_dat_o_m_if_Val_V, i1* %WBSlave_ack_o_m_if_Val, i1* %WBSlave_int_o_m_if_Val, [16 x i32]* %WBSlave_regs, [500 x i32]* %WBSlave_PBuffer, i3* %WBSlave_CTRL_ADDR_V, i3* %WBSlave_STAT_ADDR_V, i21* %WBSlave_log_in_V, i21* %WBSlave_log_out_V, i1* %WBSlave_log_start_V, i1* %WBSlave_log_done_V, i3* %WBSlave_REG0_ADDR_V, i3* %WBSlave_REG1_ADDR_V, i3* %WBSlave_REG2_ADDR_V, i3* %WBSlave_REG3_ADDR_V, i3* %WBSlave_REG4_ADDR_V, i3* %WBSlave_DELAY_ADDR_V, i3* %WBSlave_LAST_ADDR_V) {
_ZrsILi32ELb0EE11ap_int_baseIXT_EXT0_EXleT_Li64EEERKS1_i.exit1._crit_edge.i.i:
  %thresh = alloca i32, align 4                   ; [#uses=3 type=i32*]
  %psiMax_V_1 = alloca i21, align 4               ; [#uses=2 type=i21*]
  call void (...)* @_ssdm_op_SpecBitsMap(i1* %WBSlave_clk_m_if_Val), !map !156
  call void (...)* @_ssdm_op_SpecBitsMap(i1* %WBSlave_reset_m_if_Val), !map !160
  call void (...)* @_ssdm_op_SpecBitsMap(i32* %WBSlave_adr_i_m_if_Val_V), !map !164
  call void (...)* @_ssdm_op_SpecBitsMap(i32* %WBSlave_dat_i_m_if_Val_V), !map !168
  call void (...)* @_ssdm_op_SpecBitsMap(i1* %WBSlave_we_i_m_if_Val), !map !172
  call void (...)* @_ssdm_op_SpecBitsMap(i1* %WBSlave_stb_i_m_if_Val), !map !176
  call void (...)* @_ssdm_op_SpecBitsMap(i1* %WBSlave_cyc_i_m_if_Val), !map !180
  call void (...)* @_ssdm_op_SpecBitsMap(i4* %WBSlave_sel_i_m_if_Val_V), !map !184
  call void (...)* @_ssdm_op_SpecBitsMap(i32* %WBSlave_dat_o_m_if_Val_V), !map !188
  call void (...)* @_ssdm_op_SpecBitsMap(i1* %WBSlave_ack_o_m_if_Val), !map !192
  call void (...)* @_ssdm_op_SpecBitsMap(i1* %WBSlave_int_o_m_if_Val), !map !196
  call void (...)* @_ssdm_op_SpecBitsMap([16 x i32]* %WBSlave_regs), !map !200
  call void (...)* @_ssdm_op_SpecBitsMap([500 x i32]* %WBSlave_PBuffer), !map !204
  call void (...)* @_ssdm_op_SpecBitsMap(i3* %WBSlave_CTRL_ADDR_V), !map !208
  call void (...)* @_ssdm_op_SpecBitsMap(i3* %WBSlave_STAT_ADDR_V), !map !212
  call void (...)* @_ssdm_op_SpecBitsMap(i21* %WBSlave_log_in_V), !map !216
  call void (...)* @_ssdm_op_SpecBitsMap(i21* %WBSlave_log_out_V), !map !220
  call void (...)* @_ssdm_op_SpecBitsMap(i1* %WBSlave_log_start_V), !map !224
  call void (...)* @_ssdm_op_SpecBitsMap(i1* %WBSlave_log_done_V), !map !228
  call void (...)* @_ssdm_op_SpecBitsMap(i3* %WBSlave_REG0_ADDR_V), !map !232
  call void (...)* @_ssdm_op_SpecBitsMap(i3* %WBSlave_REG1_ADDR_V), !map !236
  call void (...)* @_ssdm_op_SpecBitsMap(i3* %WBSlave_REG2_ADDR_V), !map !240
  call void (...)* @_ssdm_op_SpecBitsMap(i3* %WBSlave_REG3_ADDR_V), !map !244
  call void (...)* @_ssdm_op_SpecBitsMap(i3* %WBSlave_REG4_ADDR_V), !map !248
  call void (...)* @_ssdm_op_SpecBitsMap(i3* %WBSlave_DELAY_ADDR_V), !map !252
  call void (...)* @_ssdm_op_SpecBitsMap(i3* %WBSlave_LAST_ADDR_V), !map !256
  %prob_V = alloca [256 x i21], align 4           ; [#uses=3 type=[256 x i21]*]
  call void @llvm.dbg.value(metadata !{i1* %WBSlave_clk_m_if_Val}, i64 0, metadata !7243), !dbg !7246 ; [debug line = 254:15] [debug variable = WBSlave.clk.m_if.Val]
  call void @llvm.dbg.value(metadata !{i1* %WBSlave_reset_m_if_Val}, i64 0, metadata !7247), !dbg !7246 ; [debug line = 254:15] [debug variable = WBSlave.reset.m_if.Val]
  call void @llvm.dbg.value(metadata !{i32* %WBSlave_adr_i_m_if_Val_V}, i64 0, metadata !7248), !dbg !7246 ; [debug line = 254:15] [debug variable = WBSlave.adr_i.m_if.Val.V]
  call void @llvm.dbg.value(metadata !{i32* %WBSlave_dat_i_m_if_Val_V}, i64 0, metadata !7249), !dbg !7246 ; [debug line = 254:15] [debug variable = WBSlave.dat_i.m_if.Val.V]
  call void @llvm.dbg.value(metadata !{i1* %WBSlave_we_i_m_if_Val}, i64 0, metadata !7250), !dbg !7246 ; [debug line = 254:15] [debug variable = WBSlave.we_i.m_if.Val]
  call void @llvm.dbg.value(metadata !{i1* %WBSlave_stb_i_m_if_Val}, i64 0, metadata !7251), !dbg !7246 ; [debug line = 254:15] [debug variable = WBSlave.stb_i.m_if.Val]
  call void @llvm.dbg.value(metadata !{i1* %WBSlave_cyc_i_m_if_Val}, i64 0, metadata !7252), !dbg !7246 ; [debug line = 254:15] [debug variable = WBSlave.cyc_i.m_if.Val]
  call void @llvm.dbg.value(metadata !{i4* %WBSlave_sel_i_m_if_Val_V}, i64 0, metadata !7253), !dbg !7246 ; [debug line = 254:15] [debug variable = WBSlave.sel_i.m_if.Val.V]
  call void @llvm.dbg.value(metadata !{i32* %WBSlave_dat_o_m_if_Val_V}, i64 0, metadata !7254), !dbg !7246 ; [debug line = 254:15] [debug variable = WBSlave.dat_o.m_if.Val.V]
  call void @llvm.dbg.value(metadata !{i1* %WBSlave_ack_o_m_if_Val}, i64 0, metadata !7255), !dbg !7246 ; [debug line = 254:15] [debug variable = WBSlave.ack_o.m_if.Val]
  call void @llvm.dbg.value(metadata !{i1* %WBSlave_int_o_m_if_Val}, i64 0, metadata !7256), !dbg !7246 ; [debug line = 254:15] [debug variable = WBSlave.int_o.m_if.Val]
  call void @llvm.dbg.value(metadata !{[16 x i32]* %WBSlave_regs}, i64 0, metadata !7257), !dbg !7246 ; [debug line = 254:15] [debug variable = WBSlave.regs]
  call void @llvm.dbg.value(metadata !{[500 x i32]* %WBSlave_PBuffer}, i64 0, metadata !7258), !dbg !7246 ; [debug line = 254:15] [debug variable = WBSlave.PBuffer]
  call void @llvm.dbg.value(metadata !{i3* %WBSlave_CTRL_ADDR_V}, i64 0, metadata !7259), !dbg !7246 ; [debug line = 254:15] [debug variable = WBSlave.CTRL_ADDR.V]
  call void @llvm.dbg.value(metadata !{i3* %WBSlave_STAT_ADDR_V}, i64 0, metadata !7260), !dbg !7246 ; [debug line = 254:15] [debug variable = WBSlave.STAT_ADDR.V]
  call void @llvm.dbg.value(metadata !{i21* %WBSlave_log_in_V}, i64 0, metadata !7261), !dbg !7246 ; [debug line = 254:15] [debug variable = WBSlave.log_in.V]
  call void @llvm.dbg.value(metadata !{i21* %WBSlave_log_out_V}, i64 0, metadata !7262), !dbg !7246 ; [debug line = 254:15] [debug variable = WBSlave.log_out.V]
  call void @llvm.dbg.value(metadata !{i1* %WBSlave_log_start_V}, i64 0, metadata !7263), !dbg !7246 ; [debug line = 254:15] [debug variable = WBSlave.log_start.V]
  call void @llvm.dbg.value(metadata !{i1* %WBSlave_log_done_V}, i64 0, metadata !7264), !dbg !7246 ; [debug line = 254:15] [debug variable = WBSlave.log_done.V]
  call void @llvm.dbg.value(metadata !{i3* %WBSlave_REG0_ADDR_V}, i64 0, metadata !7265), !dbg !7246 ; [debug line = 254:15] [debug variable = WBSlave.REG0_ADDR.V]
  call void @llvm.dbg.value(metadata !{i3* %WBSlave_REG1_ADDR_V}, i64 0, metadata !7266), !dbg !7246 ; [debug line = 254:15] [debug variable = WBSlave.REG1_ADDR.V]
  call void @llvm.dbg.value(metadata !{i3* %WBSlave_REG2_ADDR_V}, i64 0, metadata !7267), !dbg !7246 ; [debug line = 254:15] [debug variable = WBSlave.REG2_ADDR.V]
  call void @llvm.dbg.value(metadata !{i3* %WBSlave_REG3_ADDR_V}, i64 0, metadata !7268), !dbg !7246 ; [debug line = 254:15] [debug variable = WBSlave.REG3_ADDR.V]
  call void @llvm.dbg.value(metadata !{i3* %WBSlave_REG4_ADDR_V}, i64 0, metadata !7269), !dbg !7246 ; [debug line = 254:15] [debug variable = WBSlave.REG4_ADDR.V]
  call void @llvm.dbg.value(metadata !{i3* %WBSlave_DELAY_ADDR_V}, i64 0, metadata !7270), !dbg !7246 ; [debug line = 254:15] [debug variable = WBSlave.DELAY_ADDR.V]
  call void @llvm.dbg.value(metadata !{i3* %WBSlave_LAST_ADDR_V}, i64 0, metadata !7271), !dbg !7246 ; [debug line = 254:15] [debug variable = WBSlave.LAST_ADDR.V]
  call void (...)* @_ssdm_op_SpecPort([8 x i8]* @p_str8, i32 0, [7 x i8]* @p_str14, [4 x i8]* @p_str10, i32 0, i32 0, i1* %WBSlave_clk_m_if_Val) nounwind, !dbg !7272 ; [debug line = 255:4]
  call void (...)* @_ssdm_op_SpecPort([8 x i8]* @p_str8, i32 0, [7 x i8]* @p_str14, [6 x i8]* @p_str11, i32 0, i32 0, i1* %WBSlave_reset_m_if_Val) nounwind, !dbg !7274 ; [debug line = 256:3]
  call void (...)* @_ssdm_op_SpecPort([8 x i8]* @p_str8, i32 0, [8 x i8]* @p_str15, [6 x i8]* @p_str16, i32 0, i32 0, i32* %WBSlave_adr_i_m_if_Val_V) nounwind, !dbg !7275 ; [debug line = 257:3]
  call void (...)* @_ssdm_op_SpecPort([8 x i8]* @p_str8, i32 0, [8 x i8]* @p_str15, [6 x i8]* @p_str17, i32 0, i32 0, i32* %WBSlave_dat_i_m_if_Val_V) nounwind, !dbg !7276 ; [debug line = 258:3]
  call void (...)* @_ssdm_op_SpecPort([8 x i8]* @p_str8, i32 0, [7 x i8]* @p_str14, [5 x i8]* @p_str18, i32 0, i32 0, i1* %WBSlave_we_i_m_if_Val) nounwind, !dbg !7277 ; [debug line = 259:3]
  call void (...)* @_ssdm_op_SpecPort([8 x i8]* @p_str8, i32 0, [7 x i8]* @p_str14, [6 x i8]* @p_str19, i32 0, i32 0, i1* %WBSlave_stb_i_m_if_Val) nounwind, !dbg !7278 ; [debug line = 260:3]
  call void (...)* @_ssdm_op_SpecPort([8 x i8]* @p_str8, i32 0, [7 x i8]* @p_str14, [6 x i8]* @p_str20, i32 0, i32 0, i1* %WBSlave_cyc_i_m_if_Val) nounwind, !dbg !7279 ; [debug line = 261:3]
  call void (...)* @_ssdm_op_SpecPort([8 x i8]* @p_str8, i32 0, [31 x i8]* @p_str21, [6 x i8]* @p_str22, i32 0, i32 0, i4* %WBSlave_sel_i_m_if_Val_V) nounwind, !dbg !7280 ; [debug line = 262:3]
  call void (...)* @_ssdm_op_SpecPort([8 x i8]* @p_str8, i32 1, [8 x i8]* @p_str15, [6 x i8]* @p_str23, i32 0, i32 0, i32* %WBSlave_dat_o_m_if_Val_V) nounwind, !dbg !7281 ; [debug line = 263:3]
  call void (...)* @_ssdm_op_SpecPort([8 x i8]* @p_str8, i32 1, [7 x i8]* @p_str14, [6 x i8]* @p_str24, i32 0, i32 0, i1* %WBSlave_ack_o_m_if_Val) nounwind, !dbg !7282 ; [debug line = 264:3]
  call void (...)* @_ssdm_op_SpecPort([8 x i8]* @p_str8, i32 1, [7 x i8]* @p_str14, [6 x i8]* @p_str25, i32 0, i32 0, i1* %WBSlave_int_o_m_if_Val) nounwind, !dbg !7283 ; [debug line = 265:3]
  call void (...)* @_ssdm_op_SpecProcessDef([8 x i8]* @p_str8, i32 2, [13 x i8]* @p_str12) nounwind, !dbg !7284 ; [debug line = 266:3]
  %tmp = call i32 (...)* @_ssdm_op_SpecRegionBegin([15 x i8]* @p_str42), !dbg !7285 ; [#uses=1 type=i32] [debug line = 266:111]
  call void (...)* @_ssdm_op_SpecProtocol(i32 1, [1 x i8]* @p_str43) nounwind, !dbg !7286 ; [debug line = 266:195]
  %p_ssdm_reset_v = call i32 (...)* @_ssdm_op_SpecStateBegin(i32 0, i32 0, i32 1) nounwind, !dbg !7287 ; [#uses=1 type=i32] [debug line = 266:245]
  call void @llvm.dbg.value(metadata !{i32 %p_ssdm_reset_v}, i64 0, metadata !7288), !dbg !7287 ; [debug line = 266:245] [debug variable = _ssdm_reset_v]
  call void @llvm.dbg.declare(metadata !{[256 x i21]* %prob_V}, metadata !7289), !dbg !7295 ; [debug line = 258:39] [debug variable = prob.V]
  %empty = call i32 (...)* @_ssdm_op_SpecStateEnd(i32 %p_ssdm_reset_v) nounwind, !dbg !7296 ; [#uses=0 type=i32] [debug line = 261:50]
  %empty_29 = call i32 (...)* @_ssdm_op_SpecRegionEnd([15 x i8]* @p_str42, i32 %tmp), !dbg !7297 ; [#uses=0 type=i32] [debug line = 261:88]
  %WBSlave_PBuffer_addr = getelementptr [500 x i32]* %WBSlave_PBuffer, i64 0, i64 64, !dbg !7298 ; [#uses=1 type=i32*] [debug line = 324:3]
  %WBSlave_log_done_V_read = call i1 @_ssdm_op_Read.ap_auto.i1P(i1* %WBSlave_log_done_V), !dbg !7300 ; [#uses=3 type=i1] [debug line = 1973:9@3722:144@282:38]
  %p_Val2_9 = call i21 @_ssdm_op_Read.ap_auto.i21P(i21* %WBSlave_log_out_V), !dbg !7316 ; [#uses=2 type=i21] [debug line = 283:5]
  %OP2_V_cast = sext i21 %p_Val2_9 to i42, !dbg !7317 ; [#uses=2 type=i42] [debug line = 1295:9@286:11]
  %tmp_32 = call i26 @_ssdm_op_BitConcatenate.i26.i21.i5(i21 %p_Val2_9, i5 0), !dbg !7326 ; [#uses=1 type=i26] [debug line = 691:17@761:5@1329:0@313:18]
  %tmp_102_cast = sext i26 %tmp_32 to i43, !dbg !7326 ; [#uses=1 type=i43] [debug line = 691:17@761:5@1329:0@313:18]
  store i32 0, i32* %thresh, align 4
  br label %_ZN7_ap_sc_7sc_core4waitEi.exit6, !dbg !7344 ; [debug line = 261:123]

_ZN7_ap_sc_7sc_core4waitEi.exit6:                 ; preds = %_ZN7_ap_sc_7sc_core4waitEi.exit, %_ZrsILi32ELb0EE11ap_int_baseIXT_EXT0_EXleT_Li64EEERKS1_i.exit1._crit_edge.i.i
  %loop_begin = call i32 (...)* @_ssdm_op_SpecLoopBegin() nounwind ; [#uses=0 type=i32]
  call void (...)* @_ssdm_op_Wait(i32 1) nounwind, !dbg !7345 ; [debug line = 266:6]
  %WBSlave_CTRL_ADDR_V_read = call i3 @_ssdm_op_Read.ap_auto.i3P(i3* %WBSlave_CTRL_ADDR_V), !dbg !7347 ; [#uses=1 type=i3] [debug line = 1654:70@266:41]
  %tmp_s = zext i3 %WBSlave_CTRL_ADDR_V_read to i64, !dbg !7348 ; [#uses=1 type=i64] [debug line = 266:41]
  %WBSlave_regs_addr = getelementptr [16 x i32]* %WBSlave_regs, i64 0, i64 %tmp_s, !dbg !7348 ; [#uses=2 type=i32*] [debug line = 266:41]
  %WBSlave_regs_load = load i32* %WBSlave_regs_addr, align 4, !dbg !7348 ; [#uses=1 type=i32] [debug line = 266:41]
  %tmp_33 = icmp ne i32 %WBSlave_regs_load, 0, !dbg !7348 ; [#uses=1 type=i1] [debug line = 266:41]
  call void (...)* @_ssdm_op_Poll(i1 %tmp_33), !dbg !7349 ; [debug line = 266:61]
  %WBSlave_REG1_ADDR_V_read = call i3 @_ssdm_op_Read.ap_auto.i3P(i3* %WBSlave_REG1_ADDR_V), !dbg !7350 ; [#uses=1 type=i3] [debug line = 1654:70@268:12]
  %tmp_35 = zext i3 %WBSlave_REG1_ADDR_V_read to i64, !dbg !7351 ; [#uses=1 type=i64] [debug line = 268:12]
  %WBSlave_regs_addr_4 = getelementptr [16 x i32]* %WBSlave_regs, i64 0, i64 %tmp_35, !dbg !7351 ; [#uses=1 type=i32*] [debug line = 268:12]
  %p_Val2_s = load i32* %WBSlave_regs_addr_4, align 4, !dbg !7351 ; [#uses=4 type=i32] [debug line = 268:12]
  call void @llvm.dbg.value(metadata !{i32 %p_Val2_s}, i64 0, metadata !7352), !dbg !7388 ; [debug line = 1036:62@268:12] [debug variable = v]
  call void @llvm.dbg.value(metadata !{i32 %p_Val2_s}, i64 0, metadata !7389), !dbg !7391 ; [debug line = 1036:62@1036:86@268:12] [debug variable = v]
  call void @llvm.dbg.value(metadata !{i32 %p_Val2_s}, i64 0, metadata !7393), !dbg !7395 ; [debug line = 784:71@1036:84@1036:86@268:12] [debug variable = b]
  call void @llvm.dbg.value(metadata !{i32 %p_Val2_s}, i64 0, metadata !7397), !dbg !7834 ; [debug line = 2170:120@784:77@1036:84@1036:86@268:12] [debug variable = i_op]
  call void @llvm.dbg.value(metadata !{i32 %p_Val2_s}, i64 0, metadata !7837), !dbg !7839 ; [debug line = 2170:120@2170:144@784:77@1036:84@1036:86@268:12] [debug variable = i_op]
  call void @llvm.dbg.value(metadata !{i32 %p_Val2_s}, i64 0, metadata !7841) nounwind, !dbg !7849 ; [debug line = 663:0@761:5@784:77@1036:84@1036:86@268:12] [debug variable = __Val2__]
  %p_Val2_1 = shl i32 %p_Val2_s, 16, !dbg !7850   ; [#uses=1 type=i32] [debug line = 691:17@761:5@784:77@1036:84@1036:86@268:12]
  call void @llvm.dbg.value(metadata !{i32 %p_Val2_1}, i64 0, metadata !7852) nounwind, !dbg !7855 ; [debug line = 705:100@761:5@784:77@1036:84@1036:86@268:12] [debug variable = __Val2__]
  %tmp_50 = call i1 @_ssdm_op_BitSelect.i1.i32.i32(i32 %p_Val2_s, i32 15), !dbg !7856 ; [#uses=1 type=i1] [debug line = 705:102@761:5@784:77@1036:84@1036:86@268:12]
  call void @llvm.dbg.value(metadata !{i32 %p_Val2_s}, i64 0, metadata !7857) nounwind, !dbg !7859 ; [debug line = 709:0@761:5@784:77@1036:84@1036:86@268:12] [debug variable = __Val2__]
  call void @llvm.dbg.value(metadata !{i32 %p_Val2_s}, i64 0, metadata !7860) nounwind, !dbg !7864 ; [debug line = 723:0@761:5@784:77@1036:84@1036:86@268:12] [debug variable = __Val2__]
  call void @llvm.dbg.value(metadata !{i32 %p_Val2_s}, i64 0, metadata !7865) nounwind, !dbg !7868 ; [debug line = 731:0@761:5@784:77@1036:84@1036:86@268:12] [debug variable = __Val2__]
  %tmp_56 = call i1 @_ssdm_op_BitSelect.i1.i32.i32(i32 %p_Val2_s, i32 16) ; [#uses=1 type=i1]
  %tmp_36 = or i1 %tmp_56, %tmp_50                ; [#uses=1 type=i1]
  %tmp_37 = call i15 @_ssdm_op_PartSelect.i15.i32.i32.i32(i32 %p_Val2_s, i32 17, i32 31) ; [#uses=1 type=i15]
  %tmp_38 = call i32 @_ssdm_op_BitConcatenate.i32.i16.i15.i1(i16 0, i15 %tmp_37, i1 %tmp_36), !dbg !7869 ; [#uses=1 type=i32] [debug line = 753:66@761:5@784:77@1036:84@1036:86@268:12]
  %overflow = icmp eq i32 %tmp_38, 0, !dbg !7869  ; [#uses=1 type=i1] [debug line = 753:66@761:5@784:77@1036:84@1036:86@268:12]
  call void @llvm.dbg.value(metadata !{i1 %overflow}, i64 0, metadata !7870) nounwind, !dbg !7871 ; [debug line = 753:18@761:5@784:77@1036:84@1036:86@268:12] [debug variable = overflow]
  call void @llvm.dbg.value(metadata !{i1 %overflow}, i64 0, metadata !7872) nounwind, !dbg !7875 ; [debug line = 510:73@759:13@761:5@784:77@1036:84@1036:86@268:12] [debug variable = overflow]
  %n_V = select i1 %overflow, i32 %p_Val2_1, i32 2147483647, !dbg !7876 ; [#uses=1 type=i32] [debug line = 515:2@759:13@761:5@784:77@1036:84@1036:86@268:12]
  call void @llvm.dbg.value(metadata !{i32 %n_V}, i64 0, metadata !7878), !dbg !7886 ; [debug line = 988:9@1027:12@268:12] [debug variable = n.V]
  call void (...)* @_ssdm_op_Wait(i32 1) nounwind, !dbg !7895 ; [debug line = 803:19@269:3]
  %tmp_39 = sext i32 %n_V to i64, !dbg !7897      ; [#uses=1 type=i64] [debug line = 1311:9@273:14]
  br label %0, !dbg !8143                         ; [debug line = 271:7]

; <label>:0                                       ; preds = %_ZN7_ap_sc_7sc_core4waitEi.exit8_ifconv, %_ZN7_ap_sc_7sc_core4waitEi.exit6
  %i = phi i9 [ 0, %_ZN7_ap_sc_7sc_core4waitEi.exit6 ], [ %i_8, %_ZN7_ap_sc_7sc_core4waitEi.exit8_ifconv ] ; [#uses=4 type=i9]
  %exitcond1 = icmp eq i9 %i, -256, !dbg !8143    ; [#uses=1 type=i1] [debug line = 271:7]
  %empty_30 = call i32 (...)* @_ssdm_op_SpecLoopTripCount(i64 256, i64 256, i64 256) ; [#uses=0 type=i32]
  %i_8 = add i9 %i, 1, !dbg !8144                 ; [#uses=1 type=i9] [debug line = 271:21]
  br i1 %exitcond1, label %.preheader8, label %_ZN7_ap_sc_7sc_core4waitEi.exit8_ifconv, !dbg !8143 ; [debug line = 271:7]

_ZN7_ap_sc_7sc_core4waitEi.exit8_ifconv:          ; preds = %0
  %tmp_40 = add i9 %i, 64, !dbg !8145             ; [#uses=1 type=i9] [debug line = 272:4]
  %tmp_43 = zext i9 %tmp_40 to i64, !dbg !8145    ; [#uses=1 type=i64] [debug line = 272:4]
  %WBSlave_PBuffer_addr_2 = getelementptr [500 x i32]* %WBSlave_PBuffer, i64 0, i64 %tmp_43, !dbg !8145 ; [#uses=1 type=i32*] [debug line = 272:4]
  %p_Val2_2 = load i32* %WBSlave_PBuffer_addr_2, align 4, !dbg !8145 ; [#uses=4 type=i32] [debug line = 272:4]
  call void @llvm.dbg.value(metadata !{i32 %p_Val2_2}, i64 0, metadata !7352), !dbg !8146 ; [debug line = 1036:62@272:4] [debug variable = v]
  call void @llvm.dbg.value(metadata !{i32 %p_Val2_2}, i64 0, metadata !7389), !dbg !8147 ; [debug line = 1036:62@1036:86@272:4] [debug variable = v]
  call void @llvm.dbg.value(metadata !{i32 %p_Val2_2}, i64 0, metadata !7393), !dbg !8149 ; [debug line = 784:71@1036:84@1036:86@272:4] [debug variable = b]
  call void @llvm.dbg.value(metadata !{i32 %p_Val2_2}, i64 0, metadata !7397), !dbg !8151 ; [debug line = 2170:120@784:77@1036:84@1036:86@272:4] [debug variable = i_op]
  call void @llvm.dbg.value(metadata !{i32 %p_Val2_2}, i64 0, metadata !7837), !dbg !8153 ; [debug line = 2170:120@2170:144@784:77@1036:84@1036:86@272:4] [debug variable = i_op]
  call void @llvm.dbg.value(metadata !{i32 %p_Val2_2}, i64 0, metadata !8155) nounwind, !dbg !8157 ; [debug line = 663:0@761:5@784:77@1036:84@1036:86@272:4] [debug variable = __Val2__]
  %p_Val2_3 = shl i32 %p_Val2_2, 16, !dbg !8158   ; [#uses=1 type=i32] [debug line = 691:17@761:5@784:77@1036:84@1036:86@272:4]
  call void @llvm.dbg.value(metadata !{i32 %p_Val2_3}, i64 0, metadata !8159) nounwind, !dbg !8160 ; [debug line = 705:100@761:5@784:77@1036:84@1036:86@272:4] [debug variable = __Val2__]
  %tmp_92 = call i1 @_ssdm_op_BitSelect.i1.i32.i32(i32 %p_Val2_2, i32 15), !dbg !8161 ; [#uses=1 type=i1] [debug line = 705:102@761:5@784:77@1036:84@1036:86@272:4]
  call void @llvm.dbg.value(metadata !{i32 %p_Val2_2}, i64 0, metadata !8162) nounwind, !dbg !8163 ; [debug line = 709:0@761:5@784:77@1036:84@1036:86@272:4] [debug variable = __Val2__]
  call void @llvm.dbg.value(metadata !{i32 %p_Val2_2}, i64 0, metadata !8164) nounwind, !dbg !8165 ; [debug line = 723:0@761:5@784:77@1036:84@1036:86@272:4] [debug variable = __Val2__]
  call void @llvm.dbg.value(metadata !{i32 %p_Val2_2}, i64 0, metadata !8166) nounwind, !dbg !8167 ; [debug line = 731:0@761:5@784:77@1036:84@1036:86@272:4] [debug variable = __Val2__]
  %tmp_94 = call i1 @_ssdm_op_BitSelect.i1.i32.i32(i32 %p_Val2_2, i32 16) ; [#uses=1 type=i1]
  %tmp_41 = or i1 %tmp_94, %tmp_92                ; [#uses=1 type=i1]
  %tmp_42 = call i15 @_ssdm_op_PartSelect.i15.i32.i32.i32(i32 %p_Val2_2, i32 17, i32 31) ; [#uses=1 type=i15]
  %tmp_44 = call i32 @_ssdm_op_BitConcatenate.i32.i16.i15.i1(i16 0, i15 %tmp_42, i1 %tmp_41), !dbg !8168 ; [#uses=1 type=i32] [debug line = 753:66@761:5@784:77@1036:84@1036:86@272:4]
  %overflow_1 = icmp eq i32 %tmp_44, 0, !dbg !8168 ; [#uses=1 type=i1] [debug line = 753:66@761:5@784:77@1036:84@1036:86@272:4]
  call void @llvm.dbg.value(metadata !{i1 %overflow_1}, i64 0, metadata !8169) nounwind, !dbg !8170 ; [debug line = 753:18@761:5@784:77@1036:84@1036:86@272:4] [debug variable = overflow]
  call void @llvm.dbg.value(metadata !{i1 %overflow_1}, i64 0, metadata !8171) nounwind, !dbg !8173 ; [debug line = 510:73@759:13@761:5@784:77@1036:84@1036:86@272:4] [debug variable = overflow]
  %tmp_45 = zext i9 %i to i64, !dbg !8174         ; [#uses=1 type=i64] [debug line = 273:4]
  %tmp_46 = select i1 %overflow_1, i32 %p_Val2_3, i32 2147483647, !dbg !8175 ; [#uses=1 type=i32] [debug line = 515:2@759:13@761:5@784:77@1036:84@1036:86@272:4]
  %tmp_47 = call i64 @_ssdm_op_BitConcatenate.i64.i32.i32(i32 %tmp_46, i32 0), !dbg !8176 ; [#uses=1 type=i64] [debug line = 691:17@761:5@1309:45@273:14]
  %tmp_48 = sdiv i64 %tmp_47, %tmp_39, !dbg !7897 ; [#uses=9 type=i64] [debug line = 1311:9@273:14]
  %signbit = call i1 @_ssdm_op_BitSelect.i1.i64.i32(i64 %tmp_48, i32 63), !dbg !8408 ; [#uses=2 type=i1] [debug line = 663:0@1033:31@1033:33@273:14]
  call void @llvm.dbg.value(metadata !{i1 %signbit}, i64 0, metadata !8425) nounwind, !dbg !8408 ; [debug line = 663:0@1033:31@1033:33@273:14] [debug variable = signbit]
  call void @llvm.dbg.value(metadata !{i1 %signbit}, i64 0, metadata !8426) nounwind, !dbg !8427 ; [debug line = 665:14@1033:31@1033:33@273:14] [debug variable = isneg]
  %p_Val2_4 = call i21 @_ssdm_op_PartSelect.i21.i64.i32.i32(i64 %tmp_48, i32 16, i32 36), !dbg !8428 ; [#uses=1 type=i21] [debug line = 670:17@1033:31@1033:33@273:14]
  %qbit = call i1 @_ssdm_op_BitSelect.i1.i64.i32(i64 %tmp_48, i32 15), !dbg !8430 ; [#uses=1 type=i1] [debug line = 677:0@1033:31@1033:33@273:14]
  call void @llvm.dbg.value(metadata !{i1 %qbit}, i64 0, metadata !8433) nounwind, !dbg !8430 ; [debug line = 677:0@1033:31@1033:33@273:14] [debug variable = qbit]
  call void @llvm.dbg.value(metadata !{i1 %qbit}, i64 0, metadata !8434) nounwind, !dbg !8435 ; [debug line = 679:73@1033:31@1033:33@273:14] [debug variable = qb]
  %tmp_126 = trunc i64 %tmp_48 to i15, !dbg !8436 ; [#uses=1 type=i15] [debug line = 682:0@1033:31@1033:33@273:14]
  %r = icmp ne i15 %tmp_126, 0, !dbg !8436        ; [#uses=1 type=i1] [debug line = 682:0@1033:31@1033:33@273:14]
  call void @llvm.dbg.value(metadata !{i1 %r}, i64 0, metadata !8438) nounwind, !dbg !8436 ; [debug line = 682:0@1033:31@1033:33@273:14] [debug variable = r]
  call void @llvm.dbg.value(metadata !{i1 %qbit}, i64 0, metadata !8439) nounwind, !dbg !8442 ; [debug line = 583:61@685:25@1033:31@1033:33@273:14] [debug variable = qb]
  call void @llvm.dbg.value(metadata !{i1 %r}, i64 0, metadata !8443) nounwind, !dbg !8444 ; [debug line = 583:70@685:25@1033:31@1033:33@273:14] [debug variable = r]
  call void @llvm.dbg.value(metadata !{i1 %signbit}, i64 0, metadata !8445) nounwind, !dbg !8446 ; [debug line = 583:78@685:25@1033:31@1033:33@273:14] [debug variable = s]
  call void @llvm.dbg.value(metadata !{i21 %p_Val2_4}, i64 0, metadata !8447) nounwind, !dbg !8450 ; [debug line = 587:88@685:25@1033:31@1033:33@273:14] [debug variable = __Val2__]
  %tmp_127 = call i1 @_ssdm_op_BitSelect.i1.i64.i32(i64 %tmp_48, i32 36), !dbg !8451 ; [#uses=1 type=i1] [debug line = 587:90@685:25@1033:31@1033:33@273:14]
  call void @llvm.dbg.value(metadata !{i21 %p_Val2_4}, i64 0, metadata !8452) nounwind, !dbg !8454 ; [debug line = 597:88@685:25@1033:31@1033:33@273:14] [debug variable = __Val2__]
  %tmp_128 = call i1 @_ssdm_op_BitSelect.i1.i64.i32(i64 %tmp_48, i32 16), !dbg !8455 ; [#uses=1 type=i1] [debug line = 597:90@685:25@1033:31@1033:33@273:14]
  %r_i_i = or i1 %tmp_128, %r, !dbg !8456         ; [#uses=1 type=i1] [debug line = 597:189@685:25@1033:31@1033:33@273:14]
  %qb_assign_1 = and i1 %r_i_i, %qbit, !dbg !8456 ; [#uses=1 type=i1] [debug line = 597:189@685:25@1033:31@1033:33@273:14]
  call void @llvm.dbg.value(metadata !{i1 %qb_assign_1}, i64 0, metadata !8439) nounwind, !dbg !8456 ; [debug line = 597:189@685:25@1033:31@1033:33@273:14] [debug variable = qb]
  %tmp_49 = zext i1 %qb_assign_1 to i21, !dbg !8457 ; [#uses=1 type=i21] [debug line = 600:9@685:25@1033:31@1033:33@273:14]
  %p_Val2_5 = add i21 %p_Val2_4, %tmp_49, !dbg !8457 ; [#uses=4 type=i21] [debug line = 600:9@685:25@1033:31@1033:33@273:14]
  call void @llvm.dbg.value(metadata !{i21 %p_Val2_5}, i64 0, metadata !8458) nounwind, !dbg !8460 ; [debug line = 602:100@685:25@1033:31@1033:33@273:14] [debug variable = __Val2__]
  %newsignbit = call i1 @_ssdm_op_BitSelect.i1.i21.i32(i21 %p_Val2_5, i32 20), !dbg !8461 ; [#uses=3 type=i1] [debug line = 602:102@685:25@1033:31@1033:33@273:14]
  %tmp_51 = xor i1 %newsignbit, true, !dbg !8462  ; [#uses=1 type=i1] [debug line = 602:213@685:25@1033:31@1033:33@273:14]
  %carry = and i1 %tmp_127, %tmp_51, !dbg !8441   ; [#uses=3 type=i1] [debug line = 685:25@1033:31@1033:33@273:14]
  call void @llvm.dbg.value(metadata !{i1 %carry}, i64 0, metadata !8463) nounwind, !dbg !8441 ; [debug line = 685:25@1033:31@1033:33@273:14] [debug variable = carry]
  call void @llvm.dbg.value(metadata !{i1 %signbit}, i64 0, metadata !8464) nounwind, !dbg !8466 ; [debug line = 702:33@1033:31@1033:33@273:14] [debug variable = neg_src]
  call void @llvm.dbg.value(metadata !{i21 %p_Val2_5}, i64 0, metadata !8467) nounwind, !dbg !8469 ; [debug line = 705:100@1033:31@1033:33@273:14] [debug variable = __Val2__]
  call void @llvm.dbg.value(metadata !{i1 %newsignbit}, i64 0, metadata !8470) nounwind, !dbg !8471 ; [debug line = 705:213@1033:31@1033:33@273:14] [debug variable = newsignbit]
  %tmp_130 = call i1 @_ssdm_op_BitSelect.i1.i64.i32(i64 %tmp_48, i32 37), !dbg !8472 ; [#uses=1 type=i1] [debug line = 709:0@1033:31@1033:33@273:14]
  %tmp_52 = call i26 @_ssdm_op_PartSelect.i26.i64.i32.i32(i64 %tmp_48, i32 38, i32 63), !dbg !8474 ; [#uses=1 type=i26] [debug line = 723:0@1033:31@1033:33@273:14]
  %Range2_all_ones = icmp eq i26 %tmp_52, -1, !dbg !8478 ; [#uses=1 type=i1] [debug line = 2913:9@726:50@1033:31@1033:33@273:14]
  call void @llvm.dbg.value(metadata !{i1 %Range2_all_ones}, i64 0, metadata !9001) nounwind, !dbg !9000 ; [debug line = 726:50@1033:31@1033:33@273:14] [debug variable = Range2_all_ones]
  %tmp_53 = call i27 @_ssdm_op_PartSelect.i27.i64.i32.i32(i64 %tmp_48, i32 37, i32 63), !dbg !9002 ; [#uses=2 type=i27] [debug line = 731:0@1033:31@1033:33@273:14]
  %Range1_all_ones = icmp eq i27 %tmp_53, -1, !dbg !9005 ; [#uses=3 type=i1] [debug line = 2913:9@735:50@1033:31@1033:33@273:14]
  call void @llvm.dbg.value(metadata !{i1 %Range1_all_ones}, i64 0, metadata !9007) nounwind, !dbg !9006 ; [debug line = 735:50@1033:31@1033:33@273:14] [debug variable = Range1_all_ones]
  %Range1_all_zeros = icmp eq i27 %tmp_53, 0, !dbg !9008 ; [#uses=1 type=i1] [debug line = 736:21@1033:31@1033:33@273:14]
  call void @llvm.dbg.value(metadata !{i1 %Range1_all_zeros}, i64 0, metadata !9009) nounwind, !dbg !9008 ; [debug line = 736:21@1033:31@1033:33@273:14] [debug variable = Range1_all_zeros]
  %deleted_zeros = select i1 %carry, i1 %Range1_all_ones, i1 %Range1_all_zeros, !dbg !9010 ; [#uses=1 type=i1] [debug line = 746:17@1033:31@1033:33@273:14]
  call void @llvm.dbg.value(metadata !{i1 %deleted_zeros}, i64 0, metadata !9011) nounwind, !dbg !9012 ; [debug line = 700:18@1033:31@1033:33@273:14] [debug variable = deleted_zeros]
  %tmp_57 = xor i1 %tmp_130, true, !dbg !9013     ; [#uses=1 type=i1] [debug line = 747:17@1033:31@1033:33@273:14]
  %p_41_i = and i1 %Range2_all_ones, %tmp_57, !dbg !9013 ; [#uses=1 type=i1] [debug line = 747:17@1033:31@1033:33@273:14]
  %deleted_ones = select i1 %carry, i1 %p_41_i, i1 %Range1_all_ones, !dbg !9014 ; [#uses=1 type=i1] [debug line = 701:18@1033:31@1033:33@273:14]
  call void @llvm.dbg.value(metadata !{i1 %deleted_ones}, i64 0, metadata !9015) nounwind, !dbg !9014 ; [debug line = 701:18@1033:31@1033:33@273:14] [debug variable = deleted_ones]
  %p_38_i = and i1 %carry, %Range1_all_ones, !dbg !9016 ; [#uses=1 type=i1] [debug line = 749:17@1033:31@1033:33@273:14]
  %tmp_58 = xor i1 %p_38_i, true                  ; [#uses=1 type=i1]
  call void @llvm.dbg.value(metadata !{i1 %newsignbit}, i64 0, metadata !9017) nounwind, !dbg !9018 ; [debug line = 752:47@1033:31@1033:33@273:14] [debug variable = neg_trg]
  %p_not_i = xor i1 %deleted_zeros, true, !dbg !9019 ; [#uses=1 type=i1] [debug line = 753:66@1033:31@1033:33@273:14]
  %brmerge_i = or i1 %newsignbit, %p_not_i, !dbg !9019 ; [#uses=1 type=i1] [debug line = 753:66@1033:31@1033:33@273:14]
  %tmp_59 = xor i1 %signbit, true, !dbg !9019     ; [#uses=1 type=i1] [debug line = 753:66@1033:31@1033:33@273:14]
  %overflow_2 = and i1 %brmerge_i, %tmp_59, !dbg !9019 ; [#uses=2 type=i1] [debug line = 753:66@1033:31@1033:33@273:14]
  call void @llvm.dbg.value(metadata !{i1 %overflow_2}, i64 0, metadata !9020) nounwind, !dbg !9021 ; [debug line = 753:18@1033:31@1033:33@273:14] [debug variable = overflow]
  %brmerge40_demorgan_i = and i1 %newsignbit, %deleted_ones, !dbg !9022 ; [#uses=1 type=i1] [debug line = 754:68@1033:31@1033:33@273:14]
  %brmerge40_i = xor i1 %brmerge40_demorgan_i, true, !dbg !9022 ; [#uses=1 type=i1] [debug line = 754:68@1033:31@1033:33@273:14]
  call void @llvm.dbg.value(metadata !{i21 %p_Val2_5}, i64 0, metadata !9023) nounwind, !dbg !9025 ; [debug line = 757:88@1033:31@1033:33@273:14] [debug variable = __Val2__]
  %tmp_131 = trunc i21 %p_Val2_5 to i20, !dbg !9026 ; [#uses=1 type=i20] [debug line = 757:90@1033:31@1033:33@273:14]
  %tmp_60 = icmp eq i20 %tmp_131, 0, !dbg !9027   ; [#uses=1 type=i1] [debug line = 757:185@1033:31@1033:33@273:14]
  %tmp_64 = or i1 %tmp_60, %brmerge40_i           ; [#uses=1 type=i1]
  %tmp7 = and i1 %tmp_64, %tmp_58                 ; [#uses=1 type=i1]
  %underflow = and i1 %tmp7, %signbit             ; [#uses=3 type=i1]
  call void @llvm.dbg.value(metadata !{i1 %underflow}, i64 0, metadata !9028) nounwind, !dbg !9029 ; [debug line = 754:18@1033:31@1033:33@273:14] [debug variable = underflow]
  call void @llvm.dbg.value(metadata !{i1 %underflow}, i64 0, metadata !9030) nounwind, !dbg !9033 ; [debug line = 510:57@759:13@1033:31@1033:33@273:14] [debug variable = underflow]
  call void @llvm.dbg.value(metadata !{i1 %overflow_2}, i64 0, metadata !9034) nounwind, !dbg !9035 ; [debug line = 510:73@759:13@1033:31@1033:33@273:14] [debug variable = overflow]
  %brmerge_i_i1 = or i1 %underflow, %overflow_2, !dbg !9036 ; [#uses=1 type=i1] [debug line = 515:2@759:13@1033:31@1033:33@273:14]
  %underflow_12_not = xor i1 %underflow, true, !dbg !9036 ; [#uses=1 type=i1] [debug line = 515:2@759:13@1033:31@1033:33@273:14]
  %brmerge = or i1 %overflow_2, %underflow_12_not, !dbg !9036 ; [#uses=1 type=i1] [debug line = 515:2@759:13@1033:31@1033:33@273:14]
  %p_Val2_8_mux = select i1 %brmerge_i_i1, i21 1048575, i21 %p_Val2_5, !dbg !9036 ; [#uses=1 type=i21] [debug line = 515:2@759:13@1033:31@1033:33@273:14]
  %p_Val2_8 = select i1 %underflow, i21 -1048575, i21 %p_Val2_5, !dbg !9038 ; [#uses=1 type=i21] [debug line = 567:24@759:13@1033:31@1033:33@273:14]
  %this_assign_9_1 = select i1 %brmerge, i21 %p_Val2_8_mux, i21 %p_Val2_8 ; [#uses=1 type=i21]
  %prob_V_addr_2 = getelementptr [256 x i21]* %prob_V, i64 0, i64 %tmp_45, !dbg !9041 ; [#uses=1 type=i21*] [debug line = 988:9@1027:12@273:14]
  store i21 %this_assign_9_1, i21* %prob_V_addr_2, align 4, !dbg !9041 ; [debug line = 988:9@1027:12@273:14]
  call void (...)* @_ssdm_op_Wait(i32 1) nounwind, !dbg !9052 ; [debug line = 803:19@274:4]
  call void @llvm.dbg.value(metadata !{i9 %i_8}, i64 0, metadata !9054), !dbg !8144 ; [debug line = 271:21] [debug variable = i]
  br label %0, !dbg !8144                         ; [debug line = 271:21]

.preheader8:                                      ; preds = %_ZN7_ap_sc_7sc_core4waitEi.exit12, %0
  %p_Val2_11 = phi i21 [ %Hn_1, %_ZN7_ap_sc_7sc_core4waitEi.exit12 ], [ 0, %0 ] ; [#uses=4 type=i21]
  %i_1 = phi i9 [ %i_9, %_ZN7_ap_sc_7sc_core4waitEi.exit12 ], [ 0, %0 ] ; [#uses=3 type=i9]
  %exitcond2 = icmp eq i9 %i_1, -256, !dbg !9055  ; [#uses=1 type=i1] [debug line = 278:15]
  %empty_31 = call i32 (...)* @_ssdm_op_SpecLoopTripCount(i64 256, i64 256, i64 256) ; [#uses=0 type=i32]
  %i_9 = add i9 %i_1, 1, !dbg !9056               ; [#uses=1 type=i9] [debug line = 278:34]
  br i1 %exitcond2, label %.preheader7.preheader, label %1, !dbg !9055 ; [debug line = 278:15]

.preheader7.preheader:                            ; preds = %.preheader8
  %tmp_69 = sext i21 %p_Val2_11 to i22, !dbg !9057 ; [#uses=1 type=i22] [debug line = 667:13@761:5@1330:0@313:29]
  br label %.preheader7, !dbg !9070               ; [debug line = 290:15]

; <label>:1                                       ; preds = %.preheader8
  %tmp_54 = zext i9 %i_1 to i64, !dbg !9071       ; [#uses=1 type=i64] [debug line = 279:8]
  %prob_V_addr = getelementptr [256 x i21]* %prob_V, i64 0, i64 %tmp_54, !dbg !9072 ; [#uses=1 type=i21*] [debug line = 1081:13@1895:86@279:8]
  %prob_V_load = load i21* %prob_V_addr, align 4, !dbg !9072 ; [#uses=4 type=i21] [debug line = 1081:13@1895:86@279:8]
  %tmp_55 = icmp eq i21 %prob_V_load, 0, !dbg !9072 ; [#uses=1 type=i1] [debug line = 1081:13@1895:86@279:8]
  br i1 %tmp_55, label %_ZN7_ap_sc_7sc_core4waitEi.exit12, label %to_double.exit463, !dbg !9072 ; [debug line = 1081:13@1895:86@279:8]

to_double.exit463:                                ; preds = %1
  %dp_1 = sitofp i21 %prob_V_load to double, !dbg !9079 ; [#uses=1 type=double] [debug line = 1083:32@1895:86@279:8]
  call void @llvm.dbg.value(metadata !{double %dp_1}, i64 0, metadata !9080) nounwind, !dbg !9079 ; [debug line = 1083:32@1895:86@279:8] [debug variable = dp]
  call void @llvm.dbg.value(metadata !{double %dp_1}, i64 0, metadata !9081) nounwind, !dbg !9084 ; [debug line = 837:85@1085:21@1895:86@279:8] [debug variable = pf]
  %res_V_7 = bitcast double %dp_1 to i64, !dbg !9085 ; [#uses=3 type=i64] [debug line = 842:9@1085:21@1895:86@279:8]
  call void @llvm.dbg.value(metadata !{i64 %res_V_7}, i64 0, metadata !9087) nounwind, !dbg !9083 ; [debug line = 1085:21@1895:86@279:8] [debug variable = res.V]
  call void @llvm.dbg.value(metadata !{i64 %res_V_7}, i64 0, metadata !9305) nounwind, !dbg !9307 ; [debug line = 1087:84@1895:86@279:8] [debug variable = __Val2__]
  %exp_V = call i11 @_ssdm_op_PartSelect.i11.i64.i32.i32(i64 %res_V_7, i32 52, i32 62), !dbg !9308 ; [#uses=1 type=i11] [debug line = 1087:86@1895:86@279:8]
  call void @llvm.dbg.value(metadata !{i11 %exp_V}, i64 0, metadata !9309) nounwind, !dbg !9761 ; [debug line = 1087:175@1895:86@279:8] [debug variable = exp.V]
  %exp_V_7 = add i11 %exp_V, -16, !dbg !9762      ; [#uses=2 type=i11] [debug line = 1819:147@3734:159@1088:13@1895:86@279:8]
  call void @llvm.dbg.value(metadata !{i11 %exp_V_7}, i64 0, metadata !9772) nounwind, !dbg !9762 ; [debug line = 1819:147@3734:159@1088:13@1895:86@279:8] [debug variable = exp.V]
  call void @llvm.dbg.value(metadata !{i64 %res_V_7}, i64 0, metadata !9773) nounwind, !dbg !9775 ; [debug line = 1089:84@1895:86@279:8] [debug variable = __Val2__]
  call void @llvm.dbg.value(metadata !{i11 %exp_V_7}, i64 0, metadata !9776) nounwind, !dbg !9777 ; [debug line = 1089:117@1895:86@279:8] [debug variable = __Repl2__]
  %p_Result_s = call i64 @llvm.part.set.i64.i11(i64 %res_V_7, i11 %exp_V_7, i32 52, i32 62) nounwind, !dbg !9778 ; [#uses=1 type=i64] [debug line = 1089:119@1895:86@279:8]
  call void @llvm.dbg.value(metadata !{i64 %p_Result_s}, i64 0, metadata !9779) nounwind, !dbg !9778 ; [debug line = 1089:119@1895:86@279:8] [debug variable = __Result__]
  call void @llvm.dbg.value(metadata !{i64 %p_Result_s}, i64 0, metadata !9087) nounwind, !dbg !9780 ; [debug line = 1089:226@1895:86@279:8] [debug variable = res.V]
  call void @llvm.dbg.value(metadata !{i64 %p_Result_s}, i64 0, metadata !9781) nounwind, !dbg !9784 ; [debug line = 854:85@1090:34@1895:86@279:8] [debug variable = pi]
  %dp = bitcast i64 %p_Result_s to double, !dbg !9785 ; [#uses=1 type=double] [debug line = 860:9@1090:34@1895:86@279:8]
  call void @llvm.dbg.value(metadata !{double %dp}, i64 0, metadata !9080) nounwind, !dbg !9783 ; [debug line = 1090:34@1895:86@279:8] [debug variable = dp]
  %tmp_132 = trunc i64 %res_V_7 to i52            ; [#uses=1 type=i52]
  %notlhs = icmp ne i11 %exp_V_7, -1              ; [#uses=1 type=i1]
  %notrhs = icmp eq i52 %tmp_132, 0               ; [#uses=1 type=i1]
  %tmp_22 = or i1 %notrhs, %notlhs                ; [#uses=1 type=i1]
  %tmp_23 = fcmp oeq double %dp, 0.000000e+00, !dbg !9787 ; [#uses=1 type=i1] [debug line = 1091:13@1895:86@279:8]
  %tmp_24 = and i1 %tmp_22, %tmp_23, !dbg !9787   ; [#uses=1 type=i1] [debug line = 1091:13@1895:86@279:8]
  br i1 %tmp_24, label %_ZN7_ap_sc_7sc_core4waitEi.exit12, label %_ZN7_ap_sc_7sc_core4waitEi.exit10_ifconv, !dbg !9071 ; [debug line = 279:8]

_ZN7_ap_sc_7sc_core4waitEi.exit10_ifconv:         ; preds = %to_double.exit463
  call void @llvm.dbg.value(metadata !{i21* %WBSlave_log_in_V}, i64 0, metadata !9788), !dbg !9793 ; [debug line = 1027:12@280:5] [debug variable = ssdm_int<21 + 1024 * 0, true>.V]
  call void @_ssdm_op_Write.ap_auto.i21P(i21* %WBSlave_log_in_V, i21 %prob_V_load), !dbg !9794 ; [debug line = 988:9@1027:12@280:5]
  call void (...)* @_ssdm_op_Wait(i32 1) nounwind, !dbg !9796 ; [debug line = 282:8]
  call void (...)* @_ssdm_op_Poll(i1 %WBSlave_log_done_V_read), !dbg !9797 ; [debug line = 282:56]
  call void @llvm.dbg.value(metadata !{i21 %p_Val2_9}, i64 0, metadata !9798), !dbg !9803 ; [debug line = 1036:62@283:5] [debug variable = v.V]
  call void @llvm.dbg.value(metadata !{i21 %p_Val2_9}, i64 0, metadata !9804) nounwind, !dbg !9813 ; [debug line = 663:0@1036:84@1036:86@283:5] [debug variable = __Val2__]
  call void @_ssdm_op_Write.ap_auto.i1P(i1* %WBSlave_log_start_V, i1 false), !dbg !9814 ; [debug line = 378:13@284:5]
  call void (...)* @_ssdm_op_Wait(i32 1) nounwind, !dbg !9818 ; [debug line = 803:19@285:5]
  %OP1_V_cast = sext i21 %prob_V_load to i42, !dbg !9820 ; [#uses=1 type=i42] [debug line = 1293:9@286:11]
  %p_Val2_10 = mul i42 %OP2_V_cast, %OP1_V_cast, !dbg !9821 ; [#uses=1 type=i42] [debug line = 1296:9@286:11]
  call void @llvm.dbg.value(metadata !{i21 %p_Val2_11}, i64 0, metadata !9822) nounwind, !dbg !9841 ; [debug line = 663:0@761:5@1330:0@1348:246@286:11] [debug variable = __Val2__]
  %tmp_70 = call i37 @_ssdm_op_BitConcatenate.i37.i21.i16(i21 %p_Val2_11, i16 0), !dbg !9842 ; [#uses=1 type=i37] [debug line = 691:17@761:5@1330:0@1348:246@286:11]
  %tmp_70_cast = sext i37 %tmp_70 to i42, !dbg !9842 ; [#uses=1 type=i42] [debug line = 691:17@761:5@1330:0@1348:246@286:11]
  call void @llvm.dbg.value(metadata !{i42 %p_Val2_10}, i64 0, metadata !9844) nounwind, !dbg !9850 ; [debug line = 663:0@761:5@1330:0@1348:246@286:11] [debug variable = __Val2__]
  %p_Val2_13 = sub i42 %tmp_70_cast, %p_Val2_10, !dbg !9828 ; [#uses=9 type=i42] [debug line = 1330:0@1348:246@286:11]
  call void @llvm.dbg.value(metadata !{i42 %p_Val2_13}, i64 0, metadata !9851) nounwind, !dbg !9859 ; [debug line = 663:0@761:5@1348:246@286:11] [debug variable = __Val2__]
  %signbit_1 = call i1 @_ssdm_op_BitSelect.i1.i42.i32(i42 %p_Val2_13, i32 41), !dbg !9859 ; [#uses=2 type=i1] [debug line = 663:0@761:5@1348:246@286:11]
  call void @llvm.dbg.value(metadata !{i1 %signbit_1}, i64 0, metadata !9860) nounwind, !dbg !9859 ; [debug line = 663:0@761:5@1348:246@286:11] [debug variable = signbit]
  call void @llvm.dbg.value(metadata !{i1 %signbit_1}, i64 0, metadata !9861) nounwind, !dbg !9862 ; [debug line = 665:14@761:5@1348:246@286:11] [debug variable = isneg]
  %p_Val2_14 = call i21 @_ssdm_op_PartSelect.i21.i42.i32.i32(i42 %p_Val2_13, i32 16, i32 36), !dbg !9863 ; [#uses=1 type=i21] [debug line = 670:17@761:5@1348:246@286:11]
  call void @llvm.dbg.value(metadata !{i42 %p_Val2_13}, i64 0, metadata !9865) nounwind, !dbg !9868 ; [debug line = 677:0@761:5@1348:246@286:11] [debug variable = __Val2__]
  %qbit_1 = call i1 @_ssdm_op_BitSelect.i1.i42.i32(i42 %p_Val2_13, i32 15), !dbg !9868 ; [#uses=1 type=i1] [debug line = 677:0@761:5@1348:246@286:11]
  call void @llvm.dbg.value(metadata !{i1 %qbit_1}, i64 0, metadata !9869) nounwind, !dbg !9868 ; [debug line = 677:0@761:5@1348:246@286:11] [debug variable = qbit]
  call void @llvm.dbg.value(metadata !{i1 %qbit_1}, i64 0, metadata !9870) nounwind, !dbg !9871 ; [debug line = 679:73@761:5@1348:246@286:11] [debug variable = qb]
  call void @llvm.dbg.value(metadata !{i42 %p_Val2_13}, i64 0, metadata !9872) nounwind, !dbg !9874 ; [debug line = 682:0@761:5@1348:246@286:11] [debug variable = __Val2__]
  %tmp_135 = trunc i42 %p_Val2_13 to i15, !dbg !9874 ; [#uses=1 type=i15] [debug line = 682:0@761:5@1348:246@286:11]
  %r_1 = icmp ne i15 %tmp_135, 0, !dbg !9874      ; [#uses=1 type=i1] [debug line = 682:0@761:5@1348:246@286:11]
  call void @llvm.dbg.value(metadata !{i1 %r_1}, i64 0, metadata !9875) nounwind, !dbg !9874 ; [debug line = 682:0@761:5@1348:246@286:11] [debug variable = r]
  call void @llvm.dbg.value(metadata !{i1 %qbit_1}, i64 0, metadata !9876) nounwind, !dbg !9878 ; [debug line = 583:61@685:25@761:5@1348:246@286:11] [debug variable = qb]
  call void @llvm.dbg.value(metadata !{i1 %r_1}, i64 0, metadata !9879) nounwind, !dbg !9880 ; [debug line = 583:70@685:25@761:5@1348:246@286:11] [debug variable = r]
  call void @llvm.dbg.value(metadata !{i1 %signbit_1}, i64 0, metadata !9881) nounwind, !dbg !9882 ; [debug line = 583:78@685:25@761:5@1348:246@286:11] [debug variable = s]
  call void @llvm.dbg.value(metadata !{i21 %p_Val2_14}, i64 0, metadata !9883) nounwind, !dbg !9884 ; [debug line = 587:88@685:25@761:5@1348:246@286:11] [debug variable = __Val2__]
  %tmp_136 = call i1 @_ssdm_op_BitSelect.i1.i42.i32(i42 %p_Val2_13, i32 36), !dbg !9885 ; [#uses=1 type=i1] [debug line = 587:90@685:25@761:5@1348:246@286:11]
  call void @llvm.dbg.value(metadata !{i21 %p_Val2_14}, i64 0, metadata !9886) nounwind, !dbg !9887 ; [debug line = 597:88@685:25@761:5@1348:246@286:11] [debug variable = __Val2__]
  %tmp_137 = call i1 @_ssdm_op_BitSelect.i1.i42.i32(i42 %p_Val2_13, i32 16), !dbg !9888 ; [#uses=1 type=i1] [debug line = 597:90@685:25@761:5@1348:246@286:11]
  %r_i_i_i1 = or i1 %tmp_137, %r_1, !dbg !9889    ; [#uses=1 type=i1] [debug line = 597:189@685:25@761:5@1348:246@286:11]
  %qb_assign_3 = and i1 %r_i_i_i1, %qbit_1, !dbg !9889 ; [#uses=1 type=i1] [debug line = 597:189@685:25@761:5@1348:246@286:11]
  call void @llvm.dbg.value(metadata !{i1 %qb_assign_3}, i64 0, metadata !9876) nounwind, !dbg !9889 ; [debug line = 597:189@685:25@761:5@1348:246@286:11] [debug variable = qb]
  %tmp_71 = zext i1 %qb_assign_3 to i21, !dbg !9890 ; [#uses=1 type=i21] [debug line = 600:9@685:25@761:5@1348:246@286:11]
  %p_Val2_15 = add i21 %p_Val2_14, %tmp_71, !dbg !9890 ; [#uses=4 type=i21] [debug line = 600:9@685:25@761:5@1348:246@286:11]
  call void @llvm.dbg.value(metadata !{i21 %p_Val2_15}, i64 0, metadata !9891) nounwind, !dbg !9892 ; [debug line = 602:100@685:25@761:5@1348:246@286:11] [debug variable = __Val2__]
  %newsignbit_1 = call i1 @_ssdm_op_BitSelect.i1.i21.i32(i21 %p_Val2_15, i32 20), !dbg !9893 ; [#uses=3 type=i1] [debug line = 602:102@685:25@761:5@1348:246@286:11]
  %tmp_72 = xor i1 %newsignbit_1, true, !dbg !9894 ; [#uses=1 type=i1] [debug line = 602:213@685:25@761:5@1348:246@286:11]
  %carry_1 = and i1 %tmp_136, %tmp_72, !dbg !9877 ; [#uses=3 type=i1] [debug line = 685:25@761:5@1348:246@286:11]
  call void @llvm.dbg.value(metadata !{i1 %carry_1}, i64 0, metadata !9895) nounwind, !dbg !9877 ; [debug line = 685:25@761:5@1348:246@286:11] [debug variable = carry]
  call void @llvm.dbg.value(metadata !{i1 %signbit_1}, i64 0, metadata !9896) nounwind, !dbg !9898 ; [debug line = 702:33@761:5@1348:246@286:11] [debug variable = neg_src]
  call void @llvm.dbg.value(metadata !{i21 %p_Val2_15}, i64 0, metadata !9899) nounwind, !dbg !9901 ; [debug line = 705:100@761:5@1348:246@286:11] [debug variable = __Val2__]
  call void @llvm.dbg.value(metadata !{i1 %newsignbit_1}, i64 0, metadata !9902) nounwind, !dbg !9903 ; [debug line = 705:213@761:5@1348:246@286:11] [debug variable = newsignbit]
  call void @llvm.dbg.value(metadata !{i42 %p_Val2_13}, i64 0, metadata !9904) nounwind, !dbg !9906 ; [debug line = 709:0@761:5@1348:246@286:11] [debug variable = __Val2__]
  %tmp_139 = call i1 @_ssdm_op_BitSelect.i1.i42.i32(i42 %p_Val2_13, i32 37), !dbg !9906 ; [#uses=1 type=i1] [debug line = 709:0@761:5@1348:246@286:11]
  call void @llvm.dbg.value(metadata !{i42 %p_Val2_13}, i64 0, metadata !9907) nounwind, !dbg !9911 ; [debug line = 723:0@761:5@1348:246@286:11] [debug variable = __Val2__]
  %tmp_25 = call i4 @_ssdm_op_PartSelect.i4.i42.i32.i32(i42 %p_Val2_13, i32 38, i32 41), !dbg !9911 ; [#uses=1 type=i4] [debug line = 723:0@761:5@1348:246@286:11]
  %Range2_all_ones_1 = icmp eq i4 %tmp_25, -1, !dbg !9912 ; [#uses=1 type=i1] [debug line = 1973:9@726:50@761:5@1348:246@286:11]
  call void @llvm.dbg.value(metadata !{i1 %Range2_all_ones_1}, i64 0, metadata !10623) nounwind, !dbg !10622 ; [debug line = 726:50@761:5@1348:246@286:11] [debug variable = Range2_all_ones]
  call void @llvm.dbg.value(metadata !{i42 %p_Val2_13}, i64 0, metadata !10624) nounwind, !dbg !10627 ; [debug line = 731:0@761:5@1348:246@286:11] [debug variable = __Val2__]
  %tmp_26 = call i5 @_ssdm_op_PartSelect.i5.i42.i32.i32(i42 %p_Val2_13, i32 37, i32 41), !dbg !10627 ; [#uses=2 type=i5] [debug line = 731:0@761:5@1348:246@286:11]
  %Range1_all_ones_1 = icmp eq i5 %tmp_26, -1, !dbg !10628 ; [#uses=3 type=i1] [debug line = 1973:9@735:50@761:5@1348:246@286:11]
  call void @llvm.dbg.value(metadata !{i1 %Range1_all_ones_1}, i64 0, metadata !10630) nounwind, !dbg !10629 ; [debug line = 735:50@761:5@1348:246@286:11] [debug variable = Range1_all_ones]
  %Range1_all_zeros_1 = icmp eq i5 %tmp_26, 0, !dbg !10631 ; [#uses=1 type=i1] [debug line = 736:21@761:5@1348:246@286:11]
  call void @llvm.dbg.value(metadata !{i1 %Range1_all_zeros_1}, i64 0, metadata !10632) nounwind, !dbg !10631 ; [debug line = 736:21@761:5@1348:246@286:11] [debug variable = Range1_all_zeros]
  %deleted_zeros_1 = select i1 %carry_1, i1 %Range1_all_ones_1, i1 %Range1_all_zeros_1, !dbg !10633 ; [#uses=1 type=i1] [debug line = 746:17@761:5@1348:246@286:11]
  call void @llvm.dbg.value(metadata !{i1 %deleted_zeros_1}, i64 0, metadata !10634) nounwind, !dbg !10635 ; [debug line = 700:18@761:5@1348:246@286:11] [debug variable = deleted_zeros]
  %tmp_73 = xor i1 %tmp_139, true, !dbg !10636    ; [#uses=1 type=i1] [debug line = 747:17@761:5@1348:246@286:11]
  %p_41_i_i1 = and i1 %Range2_all_ones_1, %tmp_73, !dbg !10636 ; [#uses=1 type=i1] [debug line = 747:17@761:5@1348:246@286:11]
  %deleted_ones_1 = select i1 %carry_1, i1 %p_41_i_i1, i1 %Range1_all_ones_1, !dbg !10637 ; [#uses=1 type=i1] [debug line = 701:18@761:5@1348:246@286:11]
  call void @llvm.dbg.value(metadata !{i1 %deleted_ones_1}, i64 0, metadata !10638) nounwind, !dbg !10637 ; [debug line = 701:18@761:5@1348:246@286:11] [debug variable = deleted_ones]
  %p_38_i_i1 = and i1 %carry_1, %Range1_all_ones_1, !dbg !10639 ; [#uses=1 type=i1] [debug line = 749:17@761:5@1348:246@286:11]
  %tmp_74 = xor i1 %p_38_i_i1, true               ; [#uses=1 type=i1]
  call void @llvm.dbg.value(metadata !{i1 %newsignbit_1}, i64 0, metadata !10640) nounwind, !dbg !10641 ; [debug line = 752:47@761:5@1348:246@286:11] [debug variable = neg_trg]
  %p_not_i_i1 = xor i1 %deleted_zeros_1, true, !dbg !10642 ; [#uses=1 type=i1] [debug line = 753:66@761:5@1348:246@286:11]
  %brmerge_i_i2 = or i1 %newsignbit_1, %p_not_i_i1, !dbg !10642 ; [#uses=1 type=i1] [debug line = 753:66@761:5@1348:246@286:11]
  %tmp_75 = xor i1 %signbit_1, true, !dbg !10642  ; [#uses=1 type=i1] [debug line = 753:66@761:5@1348:246@286:11]
  %overflow_3 = and i1 %brmerge_i_i2, %tmp_75, !dbg !10642 ; [#uses=2 type=i1] [debug line = 753:66@761:5@1348:246@286:11]
  call void @llvm.dbg.value(metadata !{i1 %overflow_3}, i64 0, metadata !10643) nounwind, !dbg !10644 ; [debug line = 753:18@761:5@1348:246@286:11] [debug variable = overflow]
  %brmerge40_demorgan_i_i1 = and i1 %newsignbit_1, %deleted_ones_1, !dbg !10645 ; [#uses=1 type=i1] [debug line = 754:68@761:5@1348:246@286:11]
  %brmerge40_i_i1 = xor i1 %brmerge40_demorgan_i_i1, true, !dbg !10645 ; [#uses=1 type=i1] [debug line = 754:68@761:5@1348:246@286:11]
  call void @llvm.dbg.value(metadata !{i21 %p_Val2_15}, i64 0, metadata !10646) nounwind, !dbg !10648 ; [debug line = 757:88@761:5@1348:246@286:11] [debug variable = __Val2__]
  %tmp_140 = trunc i21 %p_Val2_15 to i20, !dbg !10649 ; [#uses=1 type=i20] [debug line = 757:90@761:5@1348:246@286:11]
  %tmp_76 = icmp eq i20 %tmp_140, 0, !dbg !10650  ; [#uses=1 type=i1] [debug line = 757:185@761:5@1348:246@286:11]
  %tmp_78 = or i1 %tmp_76, %brmerge40_i_i1        ; [#uses=1 type=i1]
  %tmp8 = and i1 %tmp_78, %tmp_74                 ; [#uses=1 type=i1]
  %underflow_1 = and i1 %tmp8, %signbit_1         ; [#uses=3 type=i1]
  call void @llvm.dbg.value(metadata !{i1 %underflow_1}, i64 0, metadata !10651) nounwind, !dbg !10652 ; [debug line = 754:18@761:5@1348:246@286:11] [debug variable = underflow]
  call void @llvm.dbg.value(metadata !{i1 %underflow_1}, i64 0, metadata !10653) nounwind, !dbg !10655 ; [debug line = 510:57@759:13@761:5@1348:246@286:11] [debug variable = underflow]
  call void @llvm.dbg.value(metadata !{i1 %overflow_3}, i64 0, metadata !10656) nounwind, !dbg !10657 ; [debug line = 510:73@759:13@761:5@1348:246@286:11] [debug variable = overflow]
  %brmerge_i_i_i1 = or i1 %underflow_1, %overflow_3, !dbg !10658 ; [#uses=1 type=i1] [debug line = 515:2@759:13@761:5@1348:246@286:11]
  %underflow_13_not = xor i1 %underflow_1, true, !dbg !10658 ; [#uses=1 type=i1] [debug line = 515:2@759:13@761:5@1348:246@286:11]
  %brmerge2 = or i1 %overflow_3, %underflow_13_not, !dbg !10658 ; [#uses=1 type=i1] [debug line = 515:2@759:13@761:5@1348:246@286:11]
  %p_Val2_14_mux = select i1 %brmerge_i_i_i1, i21 1048575, i21 %p_Val2_15, !dbg !10658 ; [#uses=1 type=i21] [debug line = 515:2@759:13@761:5@1348:246@286:11]
  br i1 %brmerge2, label %_ZN7_ap_sc_7sc_core4waitEi.exit12, label %._crit_edge1.i.i.i517, !dbg !10658 ; [debug line = 515:2@759:13@761:5@1348:246@286:11]

._crit_edge1.i.i.i517:                            ; preds = %_ZN7_ap_sc_7sc_core4waitEi.exit10_ifconv
  %p_Val2_2_32 = select i1 %underflow_1, i21 -1048575, i21 %p_Val2_15, !dbg !10659 ; [#uses=1 type=i21] [debug line = 567:24@759:13@761:5@1348:246@286:11]
  br label %_ZN7_ap_sc_7sc_core4waitEi.exit12

_ZN7_ap_sc_7sc_core4waitEi.exit12:                ; preds = %._crit_edge1.i.i.i517, %_ZN7_ap_sc_7sc_core4waitEi.exit10_ifconv, %to_double.exit463, %1
  %Hn_1 = phi i21 [ %p_Val2_11, %1 ], [ %p_Val2_11, %to_double.exit463 ], [ %p_Val2_2_32, %._crit_edge1.i.i.i517 ], [ %p_Val2_14_mux, %_ZN7_ap_sc_7sc_core4waitEi.exit10_ifconv ] ; [#uses=1 type=i21]
  call void (...)* @_ssdm_op_Wait(i32 1) nounwind, !dbg !10660 ; [debug line = 803:19@288:4]
  call void @llvm.dbg.value(metadata !{i9 %i_9}, i64 0, metadata !9054), !dbg !9056 ; [debug line = 278:34] [debug variable = i]
  br label %.preheader8, !dbg !9056               ; [debug line = 278:34]

.preheader7:                                      ; preds = %_ZN7_ap_sc_7sc_core4waitEi.exit2, %.preheader7.preheader
  %psiMax = phi i21 [ %psiMax_1, %_ZN7_ap_sc_7sc_core4waitEi.exit2 ], [ 0, %.preheader7.preheader ] ; [#uses=2 type=i21]
  %thresh_1 = phi i9 [ %i_10, %_ZN7_ap_sc_7sc_core4waitEi.exit2 ], [ 1, %.preheader7.preheader ] ; [#uses=4 type=i9]
  %thresh_3_cast1 = zext i9 %thresh_1 to i32, !dbg !9070 ; [#uses=1 type=i32] [debug line = 290:15]
  %thresh_3_cast = zext i9 %thresh_1 to i10, !dbg !9070 ; [#uses=1 type=i10] [debug line = 290:15]
  %exitcond3 = icmp eq i9 %thresh_1, -256, !dbg !9070 ; [#uses=1 type=i1] [debug line = 290:15]
  %empty_33 = call i32 (...)* @_ssdm_op_SpecLoopTripCount(i64 255, i64 255, i64 255) ; [#uses=0 type=i32]
  br i1 %exitcond3, label %_ZN7_ap_sc_7sc_core4waitEi.exit, label %.preheader, !dbg !9070 ; [debug line = 290:15]

.preheader:                                       ; preds = %_ZN7_ap_sc_7sc_core4waitEi.exit25, %.preheader7
  %p_Val2_7 = phi i21 [ %Hs_1, %_ZN7_ap_sc_7sc_core4waitEi.exit25 ], [ 0, %.preheader7 ] ; [#uses=5 type=i21]
  %p_Val2_8_34 = phi i21 [ %Ps_V, %_ZN7_ap_sc_7sc_core4waitEi.exit25 ], [ 0, %.preheader7 ] ; [#uses=6 type=i21]
  %j = phi i8 [ %j_1, %_ZN7_ap_sc_7sc_core4waitEi.exit25 ], [ 0, %.preheader7 ] ; [#uses=3 type=i8]
  %j_cast = zext i8 %j to i10, !dbg !10662        ; [#uses=1 type=i10] [debug line = 291:21]
  %exitcond = icmp eq i10 %j_cast, %thresh_3_cast, !dbg !10662 ; [#uses=1 type=i1] [debug line = 291:21]
  %empty_35 = call i32 (...)* @_ssdm_op_SpecLoopTripCount(i64 1, i64 255, i64 0) ; [#uses=0 type=i32]
  %j_1 = add i8 %j, 1, !dbg !10664                ; [#uses=1 type=i8] [debug line = 291:38]
  br i1 %exitcond, label %2, label %_ifconv, !dbg !10662 ; [debug line = 291:21]

_ifconv:                                          ; preds = %.preheader
  %tmp_66 = zext i8 %j to i64, !dbg !10665        ; [#uses=1 type=i64] [debug line = 292:5]
  call void @llvm.dbg.value(metadata !{i21 %p_Val2_8_34}, i64 0, metadata !10667) nounwind, !dbg !10679 ; [debug line = 663:0@761:5@1329:0@1347:243@292:5] [debug variable = __Val2__]
  %tmp_67 = sext i21 %p_Val2_8_34 to i22, !dbg !10680 ; [#uses=1 type=i22] [debug line = 667:13@761:5@1329:0@1347:243@292:5]
  %prob_V_addr_1 = getelementptr [256 x i21]* %prob_V, i64 0, i64 %tmp_66, !dbg !10679 ; [#uses=1 type=i21*] [debug line = 663:0@761:5@1329:0@1347:243@292:5]
  %p_Val2_16 = load i21* %prob_V_addr_1, align 4, !dbg !10679 ; [#uses=5 type=i21] [debug line = 663:0@761:5@1329:0@1347:243@292:5]
  call void @llvm.dbg.value(metadata !{i21 %p_Val2_16}, i64 0, metadata !10667) nounwind, !dbg !10679 ; [debug line = 663:0@761:5@1329:0@1347:243@292:5] [debug variable = __Val2__]
  %tmp_68 = sext i21 %p_Val2_16 to i22, !dbg !10680 ; [#uses=1 type=i22] [debug line = 667:13@761:5@1329:0@1347:243@292:5]
  %p_Val2_17 = add i22 %tmp_68, %tmp_67, !dbg !10670 ; [#uses=4 type=i22] [debug line = 1329:0@1347:243@292:5]
  call void @llvm.dbg.value(metadata !{i22 %p_Val2_17}, i64 0, metadata !10681) nounwind, !dbg !10689 ; [debug line = 663:0@761:5@1347:243@292:5] [debug variable = __Val2__]
  %isneg = call i1 @_ssdm_op_BitSelect.i1.i22.i32(i22 %p_Val2_17, i32 21), !dbg !10689 ; [#uses=2 type=i1] [debug line = 663:0@761:5@1347:243@292:5]
  call void @llvm.dbg.value(metadata !{i1 %isneg}, i64 0, metadata !10690) nounwind, !dbg !10691 ; [debug line = 665:14@761:5@1347:243@292:5] [debug variable = isneg]
  %p_Val2_18 = trunc i22 %p_Val2_17 to i21, !dbg !10692 ; [#uses=2 type=i21] [debug line = 667:13@761:5@1347:243@292:5]
  call void @llvm.dbg.value(metadata !{i1 %isneg}, i64 0, metadata !10693) nounwind, !dbg !10695 ; [debug line = 702:33@761:5@1347:243@292:5] [debug variable = neg_src]
  call void @llvm.dbg.value(metadata !{i21 %p_Val2_18}, i64 0, metadata !10696) nounwind, !dbg !10698 ; [debug line = 705:100@761:5@1347:243@292:5] [debug variable = __Val2__]
  %newsignbit_2 = call i1 @_ssdm_op_BitSelect.i1.i22.i32(i22 %p_Val2_17, i32 20), !dbg !10699 ; [#uses=2 type=i1] [debug line = 705:102@761:5@1347:243@292:5]
  call void @llvm.dbg.value(metadata !{i1 %newsignbit_2}, i64 0, metadata !10700) nounwind, !dbg !10701 ; [debug line = 705:213@761:5@1347:243@292:5] [debug variable = newsignbit]
  call void @llvm.dbg.value(metadata !{i22 %p_Val2_17}, i64 0, metadata !10702) nounwind, !dbg !10704 ; [debug line = 709:0@761:5@1347:243@292:5] [debug variable = __Val2__]
  call void @llvm.dbg.value(metadata !{i1 %isneg}, i64 0, metadata !10705) nounwind, !dbg !10704 ; [debug line = 709:0@761:5@1347:243@292:5] [debug variable = lD]
  call void @llvm.dbg.value(metadata !{i1 %isneg}, i64 0, metadata !10706) nounwind, !dbg !10708 ; [debug line = 738:21@761:5@1347:243@292:5] [debug variable = Range1_all_ones]
  call void @llvm.dbg.value(metadata !{i1 %isneg}, i64 0, metadata !10710) nounwind, !dbg !10711 ; [debug line = 701:18@761:5@1347:243@292:5] [debug variable = deleted_ones]
  call void @llvm.dbg.value(metadata !{i1 %newsignbit_2}, i64 0, metadata !10712) nounwind, !dbg !10713 ; [debug line = 752:47@761:5@1347:243@292:5] [debug variable = neg_trg]
  %tmp_27 = xor i1 %isneg, true, !dbg !10714      ; [#uses=1 type=i1] [debug line = 510:73@759:13@761:5@1347:243@292:5]
  %overflow_4 = and i1 %newsignbit_2, %tmp_27, !dbg !10714 ; [#uses=2 type=i1] [debug line = 510:73@759:13@761:5@1347:243@292:5]
  call void @llvm.dbg.value(metadata !{i1 %overflow_4}, i64 0, metadata !10716) nounwind, !dbg !10717 ; [debug line = 753:18@761:5@1347:243@292:5] [debug variable = overflow]
  %tmp_77 = xor i1 %newsignbit_2, true, !dbg !10718 ; [#uses=1 type=i1] [debug line = 754:68@761:5@1347:243@292:5]
  call void @llvm.dbg.value(metadata !{i21 %p_Val2_18}, i64 0, metadata !10719) nounwind, !dbg !10721 ; [debug line = 757:88@761:5@1347:243@292:5] [debug variable = __Val2__]
  %tmp_144 = trunc i22 %p_Val2_17 to i20, !dbg !10722 ; [#uses=1 type=i20] [debug line = 757:90@761:5@1347:243@292:5]
  %tmp_79 = icmp eq i20 %tmp_144, 0, !dbg !10723  ; [#uses=1 type=i1] [debug line = 757:185@761:5@1347:243@292:5]
  %tmp_80 = or i1 %tmp_79, %tmp_77                ; [#uses=1 type=i1]
  %underflow_2 = and i1 %isneg, %tmp_80           ; [#uses=3 type=i1]
  call void @llvm.dbg.value(metadata !{i1 %underflow_2}, i64 0, metadata !10724) nounwind, !dbg !10725 ; [debug line = 754:18@761:5@1347:243@292:5] [debug variable = underflow]
  call void @llvm.dbg.value(metadata !{i1 %underflow_2}, i64 0, metadata !10726) nounwind, !dbg !10727 ; [debug line = 510:57@759:13@761:5@1347:243@292:5] [debug variable = underflow]
  call void @llvm.dbg.value(metadata !{i1 %overflow_4}, i64 0, metadata !10728) nounwind, !dbg !10714 ; [debug line = 510:73@759:13@761:5@1347:243@292:5] [debug variable = overflow]
  call void @llvm.dbg.value(metadata !{i1 %isneg}, i64 0, metadata !10729) nounwind, !dbg !10730 ; [debug line = 510:87@759:13@761:5@1347:243@292:5] [debug variable = lD]
  call void @llvm.dbg.value(metadata !{i1 %isneg}, i64 0, metadata !10731) nounwind, !dbg !10732 ; [debug line = 510:96@759:13@761:5@1347:243@292:5] [debug variable = sign]
  %brmerge_i_i_i = or i1 %underflow_2, %overflow_4, !dbg !10733 ; [#uses=1 type=i1] [debug line = 515:2@759:13@761:5@1347:243@292:5]
  %underflow_14_not = xor i1 %underflow_2, true, !dbg !10733 ; [#uses=1 type=i1] [debug line = 515:2@759:13@761:5@1347:243@292:5]
  %brmerge3 = or i1 %overflow_4, %underflow_14_not, !dbg !10733 ; [#uses=1 type=i1] [debug line = 515:2@759:13@761:5@1347:243@292:5]
  %p_Val2_18_mux = select i1 %brmerge_i_i_i, i21 1048575, i21 %p_Val2_18, !dbg !10733 ; [#uses=1 type=i21] [debug line = 515:2@759:13@761:5@1347:243@292:5]
  %p_Val2_s_36 = select i1 %underflow_2, i21 -1048575, i21 %p_Val2_18, !dbg !10734 ; [#uses=1 type=i21] [debug line = 567:24@759:13@761:5@1347:243@292:5]
  %Ps_V = select i1 %brmerge3, i21 %p_Val2_18_mux, i21 %p_Val2_s_36, !dbg !10735 ; [#uses=1 type=i21] [debug line = 988:9@1347:243@292:5]
  call void @llvm.dbg.value(metadata !{i21 %Ps_V}, i64 0, metadata !10736), !dbg !10735 ; [debug line = 988:9@1347:243@292:5] [debug variable = Ps.V]
  %tmp_81 = icmp eq i21 %p_Val2_16, 0, !dbg !10738 ; [#uses=1 type=i1] [debug line = 1081:13@1896:85@293:9]
  br i1 %tmp_81, label %_ZN7_ap_sc_7sc_core4waitEi.exit25, label %to_double.exit456, !dbg !10738 ; [debug line = 1081:13@1896:85@293:9]

to_double.exit456:                                ; preds = %_ifconv
  %dp_4 = sitofp i21 %p_Val2_16 to double, !dbg !10743 ; [#uses=1 type=double] [debug line = 1083:32@1896:85@293:9]
  call void @llvm.dbg.value(metadata !{double %dp_4}, i64 0, metadata !10744) nounwind, !dbg !10743 ; [debug line = 1083:32@1896:85@293:9] [debug variable = dp]
  call void @llvm.dbg.value(metadata !{double %dp_4}, i64 0, metadata !10745) nounwind, !dbg !10747 ; [debug line = 837:85@1085:21@1896:85@293:9] [debug variable = pf]
  %res_V_8 = bitcast double %dp_4 to i64, !dbg !10748 ; [#uses=3 type=i64] [debug line = 842:9@1085:21@1896:85@293:9]
  call void @llvm.dbg.value(metadata !{i64 %res_V_8}, i64 0, metadata !10749) nounwind, !dbg !10746 ; [debug line = 1085:21@1896:85@293:9] [debug variable = res.V]
  call void @llvm.dbg.value(metadata !{i64 %res_V_8}, i64 0, metadata !10750) nounwind, !dbg !10751 ; [debug line = 1087:84@1896:85@293:9] [debug variable = __Val2__]
  %exp_V_5 = call i11 @_ssdm_op_PartSelect.i11.i64.i32.i32(i64 %res_V_8, i32 52, i32 62), !dbg !10752 ; [#uses=1 type=i11] [debug line = 1087:86@1896:85@293:9]
  call void @llvm.dbg.value(metadata !{i11 %exp_V_5}, i64 0, metadata !10753) nounwind, !dbg !10754 ; [debug line = 1087:175@1896:85@293:9] [debug variable = exp.V]
  %exp_V_8 = add i11 %exp_V_5, -16, !dbg !10755   ; [#uses=2 type=i11] [debug line = 1819:147@3734:159@1088:13@1896:85@293:9]
  call void @llvm.dbg.value(metadata !{i11 %exp_V_8}, i64 0, metadata !10758) nounwind, !dbg !10755 ; [debug line = 1819:147@3734:159@1088:13@1896:85@293:9] [debug variable = exp.V]
  call void @llvm.dbg.value(metadata !{i64 %res_V_8}, i64 0, metadata !10759) nounwind, !dbg !10760 ; [debug line = 1089:84@1896:85@293:9] [debug variable = __Val2__]
  call void @llvm.dbg.value(metadata !{i11 %exp_V_8}, i64 0, metadata !10761) nounwind, !dbg !10762 ; [debug line = 1089:117@1896:85@293:9] [debug variable = __Repl2__]
  %p_Result_1 = call i64 @llvm.part.set.i64.i11(i64 %res_V_8, i11 %exp_V_8, i32 52, i32 62) nounwind, !dbg !10763 ; [#uses=1 type=i64] [debug line = 1089:119@1896:85@293:9]
  call void @llvm.dbg.value(metadata !{i64 %p_Result_1}, i64 0, metadata !10764) nounwind, !dbg !10763 ; [debug line = 1089:119@1896:85@293:9] [debug variable = __Result__]
  call void @llvm.dbg.value(metadata !{i64 %p_Result_1}, i64 0, metadata !10749) nounwind, !dbg !10765 ; [debug line = 1089:226@1896:85@293:9] [debug variable = res.V]
  call void @llvm.dbg.value(metadata !{i64 %p_Result_1}, i64 0, metadata !10766) nounwind, !dbg !10768 ; [debug line = 854:85@1090:34@1896:85@293:9] [debug variable = pi]
  %dp_5 = bitcast i64 %p_Result_1 to double, !dbg !10769 ; [#uses=1 type=double] [debug line = 860:9@1090:34@1896:85@293:9]
  call void @llvm.dbg.value(metadata !{double %dp_5}, i64 0, metadata !10744) nounwind, !dbg !10767 ; [debug line = 1090:34@1896:85@293:9] [debug variable = dp]
  %tmp_146 = trunc i64 %res_V_8 to i52            ; [#uses=1 type=i52]
  %notlhs3 = icmp ne i11 %exp_V_8, -1             ; [#uses=1 type=i1]
  %notrhs3 = icmp eq i52 %tmp_146, 0              ; [#uses=1 type=i1]
  %tmp_83 = or i1 %notrhs3, %notlhs3              ; [#uses=1 type=i1]
  %tmp_84 = fcmp ogt double %dp_5, 0.000000e+00, !dbg !10770 ; [#uses=1 type=i1] [debug line = 1091:13@1896:85@293:9]
  %tmp_85 = and i1 %tmp_83, %tmp_84, !dbg !10770  ; [#uses=1 type=i1] [debug line = 1091:13@1896:85@293:9]
  br i1 %tmp_85, label %_ZN7_ap_sc_7sc_core4waitEi.exit19_ifconv, label %_ZN7_ap_sc_7sc_core4waitEi.exit25, !dbg !10742 ; [debug line = 293:9]

_ZN7_ap_sc_7sc_core4waitEi.exit19_ifconv:         ; preds = %to_double.exit456
  call void @llvm.dbg.value(metadata !{i21* %WBSlave_log_in_V}, i64 0, metadata !10771), !dbg !10775 ; [debug line = 1027:12@294:6] [debug variable = ssdm_int<21 + 1024 * 0, true>.V]
  call void @_ssdm_op_Write.ap_auto.i21P(i21* %WBSlave_log_in_V, i21 %p_Val2_16), !dbg !10776 ; [debug line = 988:9@1027:12@294:6]
  call void (...)* @_ssdm_op_Wait(i32 1) nounwind, !dbg !10778 ; [debug line = 296:9]
  call void (...)* @_ssdm_op_Poll(i1 %WBSlave_log_done_V_read), !dbg !10780 ; [debug line = 296:57]
  call void @llvm.dbg.value(metadata !{i21 %p_Val2_9}, i64 0, metadata !9798), !dbg !10781 ; [debug line = 1036:62@297:6] [debug variable = v.V]
  call void @llvm.dbg.value(metadata !{i21 %p_Val2_9}, i64 0, metadata !10783) nounwind, !dbg !10786 ; [debug line = 663:0@1036:84@1036:86@297:6] [debug variable = __Val2__]
  call void @_ssdm_op_Write.ap_auto.i1P(i1* %WBSlave_log_start_V, i1 false), !dbg !10787 ; [debug line = 378:13@298:6]
  call void (...)* @_ssdm_op_Wait(i32 1) nounwind, !dbg !10789 ; [debug line = 803:19@299:6]
  %OP1_V_2_cast = sext i21 %p_Val2_16 to i42, !dbg !10791 ; [#uses=1 type=i42] [debug line = 1293:9@300:12]
  %p_Val2_30 = mul i42 %OP2_V_cast, %OP1_V_2_cast, !dbg !10793 ; [#uses=1 type=i42] [debug line = 1296:9@300:12]
  call void @llvm.dbg.value(metadata !{i21 %p_Val2_7}, i64 0, metadata !10794) nounwind, !dbg !10798 ; [debug line = 663:0@761:5@1330:0@1348:246@300:12] [debug variable = __Val2__]
  %tmp_108 = call i37 @_ssdm_op_BitConcatenate.i37.i21.i16(i21 %p_Val2_7, i16 0), !dbg !10799 ; [#uses=1 type=i37] [debug line = 691:17@761:5@1330:0@1348:246@300:12]
  %tmp_117_cast = sext i37 %tmp_108 to i42, !dbg !10799 ; [#uses=1 type=i42] [debug line = 691:17@761:5@1330:0@1348:246@300:12]
  call void @llvm.dbg.value(metadata !{i42 %p_Val2_30}, i64 0, metadata !10800) nounwind, !dbg !10802 ; [debug line = 663:0@761:5@1330:0@1348:246@300:12] [debug variable = __Val2__]
  %p_Val2_31 = sub i42 %tmp_117_cast, %p_Val2_30, !dbg !10796 ; [#uses=9 type=i42] [debug line = 1330:0@1348:246@300:12]
  call void @llvm.dbg.value(metadata !{i42 %p_Val2_31}, i64 0, metadata !10803) nounwind, !dbg !10805 ; [debug line = 663:0@761:5@1348:246@300:12] [debug variable = __Val2__]
  %signbit_2 = call i1 @_ssdm_op_BitSelect.i1.i42.i32(i42 %p_Val2_31, i32 41), !dbg !10805 ; [#uses=2 type=i1] [debug line = 663:0@761:5@1348:246@300:12]
  call void @llvm.dbg.value(metadata !{i1 %signbit_2}, i64 0, metadata !10806) nounwind, !dbg !10805 ; [debug line = 663:0@761:5@1348:246@300:12] [debug variable = signbit]
  call void @llvm.dbg.value(metadata !{i1 %signbit_2}, i64 0, metadata !10807) nounwind, !dbg !10808 ; [debug line = 665:14@761:5@1348:246@300:12] [debug variable = isneg]
  %p_Val2_32 = call i21 @_ssdm_op_PartSelect.i21.i42.i32.i32(i42 %p_Val2_31, i32 16, i32 36), !dbg !10809 ; [#uses=1 type=i21] [debug line = 670:17@761:5@1348:246@300:12]
  call void @llvm.dbg.value(metadata !{i42 %p_Val2_31}, i64 0, metadata !10810) nounwind, !dbg !10811 ; [debug line = 677:0@761:5@1348:246@300:12] [debug variable = __Val2__]
  %qbit_2 = call i1 @_ssdm_op_BitSelect.i1.i42.i32(i42 %p_Val2_31, i32 15), !dbg !10811 ; [#uses=1 type=i1] [debug line = 677:0@761:5@1348:246@300:12]
  call void @llvm.dbg.value(metadata !{i1 %qbit_2}, i64 0, metadata !10812) nounwind, !dbg !10811 ; [debug line = 677:0@761:5@1348:246@300:12] [debug variable = qbit]
  call void @llvm.dbg.value(metadata !{i1 %qbit_2}, i64 0, metadata !10813) nounwind, !dbg !10814 ; [debug line = 679:73@761:5@1348:246@300:12] [debug variable = qb]
  call void @llvm.dbg.value(metadata !{i42 %p_Val2_31}, i64 0, metadata !10815) nounwind, !dbg !10816 ; [debug line = 682:0@761:5@1348:246@300:12] [debug variable = __Val2__]
  %tmp_166 = trunc i42 %p_Val2_31 to i15, !dbg !10816 ; [#uses=1 type=i15] [debug line = 682:0@761:5@1348:246@300:12]
  %r_2 = icmp ne i15 %tmp_166, 0, !dbg !10816     ; [#uses=1 type=i1] [debug line = 682:0@761:5@1348:246@300:12]
  call void @llvm.dbg.value(metadata !{i1 %r_2}, i64 0, metadata !10817) nounwind, !dbg !10816 ; [debug line = 682:0@761:5@1348:246@300:12] [debug variable = r]
  call void @llvm.dbg.value(metadata !{i1 %qbit_2}, i64 0, metadata !10818) nounwind, !dbg !10820 ; [debug line = 583:61@685:25@761:5@1348:246@300:12] [debug variable = qb]
  call void @llvm.dbg.value(metadata !{i1 %r_2}, i64 0, metadata !10821) nounwind, !dbg !10822 ; [debug line = 583:70@685:25@761:5@1348:246@300:12] [debug variable = r]
  call void @llvm.dbg.value(metadata !{i1 %signbit_2}, i64 0, metadata !10823) nounwind, !dbg !10824 ; [debug line = 583:78@685:25@761:5@1348:246@300:12] [debug variable = s]
  call void @llvm.dbg.value(metadata !{i21 %p_Val2_32}, i64 0, metadata !10825) nounwind, !dbg !10826 ; [debug line = 587:88@685:25@761:5@1348:246@300:12] [debug variable = __Val2__]
  %tmp_167 = call i1 @_ssdm_op_BitSelect.i1.i42.i32(i42 %p_Val2_31, i32 36), !dbg !10827 ; [#uses=1 type=i1] [debug line = 587:90@685:25@761:5@1348:246@300:12]
  call void @llvm.dbg.value(metadata !{i21 %p_Val2_32}, i64 0, metadata !10828) nounwind, !dbg !10829 ; [debug line = 597:88@685:25@761:5@1348:246@300:12] [debug variable = __Val2__]
  %tmp_168 = call i1 @_ssdm_op_BitSelect.i1.i42.i32(i42 %p_Val2_31, i32 16), !dbg !10830 ; [#uses=1 type=i1] [debug line = 597:90@685:25@761:5@1348:246@300:12]
  %r_i_i_i = or i1 %tmp_168, %r_2, !dbg !10831    ; [#uses=1 type=i1] [debug line = 597:189@685:25@761:5@1348:246@300:12]
  %qb_assign_7 = and i1 %r_i_i_i, %qbit_2, !dbg !10831 ; [#uses=1 type=i1] [debug line = 597:189@685:25@761:5@1348:246@300:12]
  call void @llvm.dbg.value(metadata !{i1 %qb_assign_7}, i64 0, metadata !10818) nounwind, !dbg !10831 ; [debug line = 597:189@685:25@761:5@1348:246@300:12] [debug variable = qb]
  %tmp_109 = zext i1 %qb_assign_7 to i21, !dbg !10832 ; [#uses=1 type=i21] [debug line = 600:9@685:25@761:5@1348:246@300:12]
  %p_Val2_33 = add i21 %p_Val2_32, %tmp_109, !dbg !10832 ; [#uses=4 type=i21] [debug line = 600:9@685:25@761:5@1348:246@300:12]
  call void @llvm.dbg.value(metadata !{i21 %p_Val2_33}, i64 0, metadata !10833) nounwind, !dbg !10834 ; [debug line = 602:100@685:25@761:5@1348:246@300:12] [debug variable = __Val2__]
  %newsignbit_3 = call i1 @_ssdm_op_BitSelect.i1.i21.i32(i21 %p_Val2_33, i32 20), !dbg !10835 ; [#uses=3 type=i1] [debug line = 602:102@685:25@761:5@1348:246@300:12]
  %tmp_110 = xor i1 %newsignbit_3, true, !dbg !10836 ; [#uses=1 type=i1] [debug line = 602:213@685:25@761:5@1348:246@300:12]
  %carry_3 = and i1 %tmp_167, %tmp_110, !dbg !10819 ; [#uses=3 type=i1] [debug line = 685:25@761:5@1348:246@300:12]
  call void @llvm.dbg.value(metadata !{i1 %carry_3}, i64 0, metadata !10837) nounwind, !dbg !10819 ; [debug line = 685:25@761:5@1348:246@300:12] [debug variable = carry]
  call void @llvm.dbg.value(metadata !{i1 %signbit_2}, i64 0, metadata !10838) nounwind, !dbg !10839 ; [debug line = 702:33@761:5@1348:246@300:12] [debug variable = neg_src]
  call void @llvm.dbg.value(metadata !{i21 %p_Val2_33}, i64 0, metadata !10840) nounwind, !dbg !10841 ; [debug line = 705:100@761:5@1348:246@300:12] [debug variable = __Val2__]
  call void @llvm.dbg.value(metadata !{i1 %newsignbit_3}, i64 0, metadata !10842) nounwind, !dbg !10843 ; [debug line = 705:213@761:5@1348:246@300:12] [debug variable = newsignbit]
  call void @llvm.dbg.value(metadata !{i42 %p_Val2_31}, i64 0, metadata !10844) nounwind, !dbg !10845 ; [debug line = 709:0@761:5@1348:246@300:12] [debug variable = __Val2__]
  %tmp_170 = call i1 @_ssdm_op_BitSelect.i1.i42.i32(i42 %p_Val2_31, i32 37), !dbg !10845 ; [#uses=1 type=i1] [debug line = 709:0@761:5@1348:246@300:12]
  call void @llvm.dbg.value(metadata !{i42 %p_Val2_31}, i64 0, metadata !10846) nounwind, !dbg !10847 ; [debug line = 723:0@761:5@1348:246@300:12] [debug variable = __Val2__]
  %tmp_111 = call i4 @_ssdm_op_PartSelect.i4.i42.i32.i32(i42 %p_Val2_31, i32 38, i32 41), !dbg !10847 ; [#uses=1 type=i4] [debug line = 723:0@761:5@1348:246@300:12]
  %Range2_all_ones_2 = icmp eq i4 %tmp_111, -1, !dbg !10848 ; [#uses=1 type=i1] [debug line = 1973:9@726:50@761:5@1348:246@300:12]
  call void @llvm.dbg.value(metadata !{i1 %Range2_all_ones_2}, i64 0, metadata !10850) nounwind, !dbg !10849 ; [debug line = 726:50@761:5@1348:246@300:12] [debug variable = Range2_all_ones]
  call void @llvm.dbg.value(metadata !{i42 %p_Val2_31}, i64 0, metadata !10851) nounwind, !dbg !10852 ; [debug line = 731:0@761:5@1348:246@300:12] [debug variable = __Val2__]
  %tmp_112 = call i5 @_ssdm_op_PartSelect.i5.i42.i32.i32(i42 %p_Val2_31, i32 37, i32 41), !dbg !10852 ; [#uses=2 type=i5] [debug line = 731:0@761:5@1348:246@300:12]
  %Range1_all_ones_3 = icmp eq i5 %tmp_112, -1, !dbg !10853 ; [#uses=3 type=i1] [debug line = 1973:9@735:50@761:5@1348:246@300:12]
  call void @llvm.dbg.value(metadata !{i1 %Range1_all_ones_3}, i64 0, metadata !10855) nounwind, !dbg !10854 ; [debug line = 735:50@761:5@1348:246@300:12] [debug variable = Range1_all_ones]
  %Range1_all_zeros_2 = icmp eq i5 %tmp_112, 0, !dbg !10856 ; [#uses=1 type=i1] [debug line = 736:21@761:5@1348:246@300:12]
  call void @llvm.dbg.value(metadata !{i1 %Range1_all_zeros_2}, i64 0, metadata !10857) nounwind, !dbg !10856 ; [debug line = 736:21@761:5@1348:246@300:12] [debug variable = Range1_all_zeros]
  %deleted_zeros_2 = select i1 %carry_3, i1 %Range1_all_ones_3, i1 %Range1_all_zeros_2, !dbg !10858 ; [#uses=1 type=i1] [debug line = 746:17@761:5@1348:246@300:12]
  call void @llvm.dbg.value(metadata !{i1 %deleted_zeros_2}, i64 0, metadata !10859) nounwind, !dbg !10860 ; [debug line = 700:18@761:5@1348:246@300:12] [debug variable = deleted_zeros]
  %tmp_113 = xor i1 %tmp_170, true, !dbg !10861   ; [#uses=1 type=i1] [debug line = 747:17@761:5@1348:246@300:12]
  %p_41_i_i = and i1 %Range2_all_ones_2, %tmp_113, !dbg !10861 ; [#uses=1 type=i1] [debug line = 747:17@761:5@1348:246@300:12]
  %deleted_ones_3 = select i1 %carry_3, i1 %p_41_i_i, i1 %Range1_all_ones_3, !dbg !10862 ; [#uses=1 type=i1] [debug line = 701:18@761:5@1348:246@300:12]
  call void @llvm.dbg.value(metadata !{i1 %deleted_ones_3}, i64 0, metadata !10863) nounwind, !dbg !10862 ; [debug line = 701:18@761:5@1348:246@300:12] [debug variable = deleted_ones]
  %p_38_i_i = and i1 %carry_3, %Range1_all_ones_3, !dbg !10864 ; [#uses=1 type=i1] [debug line = 749:17@761:5@1348:246@300:12]
  %tmp_114 = xor i1 %p_38_i_i, true               ; [#uses=1 type=i1]
  call void @llvm.dbg.value(metadata !{i1 %newsignbit_3}, i64 0, metadata !10865) nounwind, !dbg !10866 ; [debug line = 752:47@761:5@1348:246@300:12] [debug variable = neg_trg]
  %p_not_i_i = xor i1 %deleted_zeros_2, true, !dbg !10867 ; [#uses=1 type=i1] [debug line = 753:66@761:5@1348:246@300:12]
  %brmerge_i_i4 = or i1 %newsignbit_3, %p_not_i_i, !dbg !10867 ; [#uses=1 type=i1] [debug line = 753:66@761:5@1348:246@300:12]
  %tmp_115 = xor i1 %signbit_2, true, !dbg !10867 ; [#uses=1 type=i1] [debug line = 753:66@761:5@1348:246@300:12]
  %overflow_5 = and i1 %brmerge_i_i4, %tmp_115, !dbg !10867 ; [#uses=2 type=i1] [debug line = 753:66@761:5@1348:246@300:12]
  call void @llvm.dbg.value(metadata !{i1 %overflow_5}, i64 0, metadata !10868) nounwind, !dbg !10869 ; [debug line = 753:18@761:5@1348:246@300:12] [debug variable = overflow]
  %brmerge40_demorgan_i_i = and i1 %newsignbit_3, %deleted_ones_3, !dbg !10870 ; [#uses=1 type=i1] [debug line = 754:68@761:5@1348:246@300:12]
  %brmerge40_i_i = xor i1 %brmerge40_demorgan_i_i, true, !dbg !10870 ; [#uses=1 type=i1] [debug line = 754:68@761:5@1348:246@300:12]
  call void @llvm.dbg.value(metadata !{i21 %p_Val2_33}, i64 0, metadata !10871) nounwind, !dbg !10872 ; [debug line = 757:88@761:5@1348:246@300:12] [debug variable = __Val2__]
  %tmp_171 = trunc i21 %p_Val2_33 to i20, !dbg !10873 ; [#uses=1 type=i20] [debug line = 757:90@761:5@1348:246@300:12]
  %tmp_116 = icmp eq i20 %tmp_171, 0, !dbg !10874 ; [#uses=1 type=i1] [debug line = 757:185@761:5@1348:246@300:12]
  %tmp_117 = or i1 %tmp_116, %brmerge40_i_i       ; [#uses=1 type=i1]
  %tmp9 = and i1 %tmp_117, %tmp_114               ; [#uses=1 type=i1]
  %underflow_3 = and i1 %tmp9, %signbit_2         ; [#uses=3 type=i1]
  call void @llvm.dbg.value(metadata !{i1 %underflow_3}, i64 0, metadata !10875) nounwind, !dbg !10876 ; [debug line = 754:18@761:5@1348:246@300:12] [debug variable = underflow]
  call void @llvm.dbg.value(metadata !{i1 %underflow_3}, i64 0, metadata !10877) nounwind, !dbg !10879 ; [debug line = 510:57@759:13@761:5@1348:246@300:12] [debug variable = underflow]
  call void @llvm.dbg.value(metadata !{i1 %overflow_5}, i64 0, metadata !10880) nounwind, !dbg !10881 ; [debug line = 510:73@759:13@761:5@1348:246@300:12] [debug variable = overflow]
  %brmerge_i_i_i2 = or i1 %underflow_3, %overflow_5, !dbg !10882 ; [#uses=1 type=i1] [debug line = 515:2@759:13@761:5@1348:246@300:12]
  %underflow_15_not = xor i1 %underflow_3, true, !dbg !10882 ; [#uses=1 type=i1] [debug line = 515:2@759:13@761:5@1348:246@300:12]
  %brmerge4 = or i1 %overflow_5, %underflow_15_not, !dbg !10882 ; [#uses=1 type=i1] [debug line = 515:2@759:13@761:5@1348:246@300:12]
  %p_Val2_33_mux = select i1 %brmerge_i_i_i2, i21 1048575, i21 %p_Val2_33, !dbg !10882 ; [#uses=1 type=i21] [debug line = 515:2@759:13@761:5@1348:246@300:12]
  br i1 %brmerge4, label %_ZN7_ap_sc_7sc_core4waitEi.exit25, label %._crit_edge1.i.i.i480, !dbg !10882 ; [debug line = 515:2@759:13@761:5@1348:246@300:12]

._crit_edge1.i.i.i480:                            ; preds = %_ZN7_ap_sc_7sc_core4waitEi.exit19_ifconv
  %p_Val2_4_37 = select i1 %underflow_3, i21 -1048575, i21 %p_Val2_33, !dbg !10883 ; [#uses=1 type=i21] [debug line = 567:24@759:13@761:5@1348:246@300:12]
  br label %_ZN7_ap_sc_7sc_core4waitEi.exit25

_ZN7_ap_sc_7sc_core4waitEi.exit25:                ; preds = %._crit_edge1.i.i.i480, %_ZN7_ap_sc_7sc_core4waitEi.exit19_ifconv, %to_double.exit456, %_ifconv
  %Hs_1 = phi i21 [ %p_Val2_7, %_ifconv ], [ %p_Val2_7, %to_double.exit456 ], [ %p_Val2_4_37, %._crit_edge1.i.i.i480 ], [ %p_Val2_33_mux, %_ZN7_ap_sc_7sc_core4waitEi.exit19_ifconv ] ; [#uses=1 type=i21]
  call void (...)* @_ssdm_op_Wait(i32 1) nounwind, !dbg !10884 ; [debug line = 803:19@302:5]
  call void @llvm.dbg.value(metadata !{i8 %j_1}, i64 0, metadata !10886), !dbg !10664 ; [debug line = 291:38] [debug variable = j]
  br label %.preheader, !dbg !10664               ; [debug line = 291:38]

; <label>:2                                       ; preds = %.preheader
  %tmp_65 = icmp eq i21 %p_Val2_8_34, 0, !dbg !10887 ; [#uses=1 type=i1] [debug line = 1081:13@1896:85@304:8]
  br i1 %tmp_65, label %._crit_edge, label %to_double.exit449, !dbg !10887 ; [debug line = 1081:13@1896:85@304:8]

to_double.exit449:                                ; preds = %2
  %dp_3 = sitofp i21 %p_Val2_8_34 to double, !dbg !10890 ; [#uses=1 type=double] [debug line = 1083:32@1896:85@304:8]
  call void @llvm.dbg.value(metadata !{double %dp_3}, i64 0, metadata !10891) nounwind, !dbg !10890 ; [debug line = 1083:32@1896:85@304:8] [debug variable = dp]
  call void @llvm.dbg.value(metadata !{double %dp_3}, i64 0, metadata !10892) nounwind, !dbg !10894 ; [debug line = 837:85@1085:21@1896:85@304:8] [debug variable = pf]
  %res_V = bitcast double %dp_3 to i64, !dbg !10895 ; [#uses=3 type=i64] [debug line = 842:9@1085:21@1896:85@304:8]
  call void @llvm.dbg.value(metadata !{i64 %res_V}, i64 0, metadata !10896) nounwind, !dbg !10893 ; [debug line = 1085:21@1896:85@304:8] [debug variable = res.V]
  call void @llvm.dbg.value(metadata !{i64 %res_V}, i64 0, metadata !10897) nounwind, !dbg !10898 ; [debug line = 1087:84@1896:85@304:8] [debug variable = __Val2__]
  %exp_V_2 = call i11 @_ssdm_op_PartSelect.i11.i64.i32.i32(i64 %res_V, i32 52, i32 62), !dbg !10899 ; [#uses=1 type=i11] [debug line = 1087:86@1896:85@304:8]
  call void @llvm.dbg.value(metadata !{i11 %exp_V_2}, i64 0, metadata !10900) nounwind, !dbg !10901 ; [debug line = 1087:175@1896:85@304:8] [debug variable = exp.V]
  %exp_V_9 = add i11 %exp_V_2, -16, !dbg !10902   ; [#uses=2 type=i11] [debug line = 1819:147@3734:159@1088:13@1896:85@304:8]
  call void @llvm.dbg.value(metadata !{i11 %exp_V_9}, i64 0, metadata !10905) nounwind, !dbg !10902 ; [debug line = 1819:147@3734:159@1088:13@1896:85@304:8] [debug variable = exp.V]
  call void @llvm.dbg.value(metadata !{i64 %res_V}, i64 0, metadata !10906) nounwind, !dbg !10907 ; [debug line = 1089:84@1896:85@304:8] [debug variable = __Val2__]
  call void @llvm.dbg.value(metadata !{i11 %exp_V_9}, i64 0, metadata !10908) nounwind, !dbg !10909 ; [debug line = 1089:117@1896:85@304:8] [debug variable = __Repl2__]
  %p_Result_2 = call i64 @llvm.part.set.i64.i11(i64 %res_V, i11 %exp_V_9, i32 52, i32 62) nounwind, !dbg !10910 ; [#uses=1 type=i64] [debug line = 1089:119@1896:85@304:8]
  call void @llvm.dbg.value(metadata !{i64 %p_Result_2}, i64 0, metadata !10911) nounwind, !dbg !10910 ; [debug line = 1089:119@1896:85@304:8] [debug variable = __Result__]
  call void @llvm.dbg.value(metadata !{i64 %p_Result_2}, i64 0, metadata !10896) nounwind, !dbg !10912 ; [debug line = 1089:226@1896:85@304:8] [debug variable = res.V]
  call void @llvm.dbg.value(metadata !{i64 %p_Result_2}, i64 0, metadata !10913) nounwind, !dbg !10915 ; [debug line = 854:85@1090:34@1896:85@304:8] [debug variable = pi]
  %dp_2 = bitcast i64 %p_Result_2 to double, !dbg !10916 ; [#uses=2 type=double] [debug line = 860:9@1090:34@1896:85@304:8]
  call void @llvm.dbg.value(metadata !{double %dp_2}, i64 0, metadata !10891) nounwind, !dbg !10914 ; [debug line = 1090:34@1896:85@304:8] [debug variable = dp]
  %tmp_145 = trunc i64 %res_V to i52              ; [#uses=1 type=i52]
  %notlhs1 = icmp ne i11 %exp_V_9, -1             ; [#uses=1 type=i1]
  %notrhs1 = icmp eq i52 %tmp_145, 0              ; [#uses=1 type=i1]
  %tmp_29 = or i1 %notrhs1, %notlhs1              ; [#uses=1 type=i1]
  %tmp_30 = fcmp ogt double %dp_2, 0.000000e+00, !dbg !10917 ; [#uses=1 type=i1] [debug line = 1091:13@1896:85@304:8]
  %tmp_31 = and i1 %tmp_29, %tmp_30, !dbg !10917  ; [#uses=1 type=i1] [debug line = 1091:13@1896:85@304:8]
  %tmp_34 = fcmp olt double %dp_2, 1.000000e+00, !dbg !10918 ; [#uses=1 type=i1] [debug line = 1091:13@1898:85@304:20]
  %or_cond = and i1 %tmp_31, %tmp_34, !dbg !10922 ; [#uses=1 type=i1] [debug line = 304:20]
  call void @llvm.dbg.value(metadata !{double %dp_3}, i64 0, metadata !10923) nounwind, !dbg !10924 ; [debug line = 1083:32@1898:85@304:20] [debug variable = dp]
  call void @llvm.dbg.value(metadata !{double %dp_3}, i64 0, metadata !10925) nounwind, !dbg !10927 ; [debug line = 837:85@1085:21@1898:85@304:20] [debug variable = pf]
  call void @llvm.dbg.value(metadata !{i64 %res_V}, i64 0, metadata !10928) nounwind, !dbg !10926 ; [debug line = 1085:21@1898:85@304:20] [debug variable = res.V]
  call void @llvm.dbg.value(metadata !{i64 %res_V}, i64 0, metadata !10929) nounwind, !dbg !10930 ; [debug line = 1087:84@1898:85@304:20] [debug variable = __Val2__]
  call void @llvm.dbg.value(metadata !{i11 %exp_V_2}, i64 0, metadata !10931) nounwind, !dbg !10932 ; [debug line = 1087:175@1898:85@304:20] [debug variable = exp.V]
  call void @llvm.dbg.value(metadata !{i11 %exp_V_9}, i64 0, metadata !10933) nounwind, !dbg !10936 ; [debug line = 1819:147@3734:159@1088:13@1898:85@304:20] [debug variable = exp.V]
  call void @llvm.dbg.value(metadata !{i64 %res_V}, i64 0, metadata !10937) nounwind, !dbg !10938 ; [debug line = 1089:84@1898:85@304:20] [debug variable = __Val2__]
  call void @llvm.dbg.value(metadata !{i11 %exp_V_9}, i64 0, metadata !10939) nounwind, !dbg !10940 ; [debug line = 1089:117@1898:85@304:20] [debug variable = __Repl2__]
  call void @llvm.dbg.value(metadata !{i64 %p_Result_2}, i64 0, metadata !10941) nounwind, !dbg !10942 ; [debug line = 1089:119@1898:85@304:20] [debug variable = __Result__]
  call void @llvm.dbg.value(metadata !{i64 %p_Result_2}, i64 0, metadata !10928) nounwind, !dbg !10943 ; [debug line = 1089:226@1898:85@304:20] [debug variable = res.V]
  call void @llvm.dbg.value(metadata !{i64 %p_Result_2}, i64 0, metadata !10944) nounwind, !dbg !10946 ; [debug line = 854:85@1090:34@1898:85@304:20] [debug variable = pi]
  call void @llvm.dbg.value(metadata !{double %dp_2}, i64 0, metadata !10923) nounwind, !dbg !10945 ; [debug line = 1090:34@1898:85@304:20] [debug variable = dp]
  br i1 %or_cond, label %_ZN7_ap_sc_7sc_core4waitEi.exit29_ifconv, label %._crit_edge, !dbg !10889 ; [debug line = 304:8]

_ZN7_ap_sc_7sc_core4waitEi.exit29_ifconv:         ; preds = %to_double.exit449
  %OP1_V = sext i21 %p_Val2_8_34 to i42, !dbg !10947 ; [#uses=3 type=i42] [debug line = 1293:9@305:17]
  call void @llvm.dbg.value(metadata !{i42 %OP1_V}, i64 0, metadata !11417), !dbg !10947 ; [debug line = 1293:9@305:17] [debug variable = OP1.V]
  call void @llvm.dbg.value(metadata !{i42 %OP1_V}, i64 0, metadata !11638), !dbg !11640 ; [debug line = 1295:9@305:17] [debug variable = OP2.V]
  %p_Val2_22 = mul nsw i42 %OP1_V, %OP1_V, !dbg !11641 ; [#uses=1 type=i42] [debug line = 1296:9@305:17]
  call void @llvm.dbg.value(metadata !{i21 %p_Val2_8_34}, i64 0, metadata !11642) nounwind, !dbg !11656 ; [debug line = 663:0@761:5@1330:0@305:17] [debug variable = __Val2__]
  %tmp_82 = call i37 @_ssdm_op_BitConcatenate.i37.i21.i16(i21 %p_Val2_8_34, i16 0), !dbg !11657 ; [#uses=1 type=i37] [debug line = 691:17@761:5@1330:0@305:17]
  %tmp_82_cast = sext i37 %tmp_82 to i42, !dbg !11657 ; [#uses=1 type=i42] [debug line = 691:17@761:5@1330:0@305:17]
  call void @llvm.dbg.value(metadata !{i42 %p_Val2_22}, i64 0, metadata !11659) nounwind, !dbg !11665 ; [debug line = 663:0@761:5@1330:0@305:17] [debug variable = __Val2__]
  %p_Val2_23 = sub i42 %tmp_82_cast, %p_Val2_22, !dbg !11648 ; [#uses=4 type=i42] [debug line = 1330:0@305:17]
  call void @llvm.dbg.value(metadata !{i42 %p_Val2_23}, i64 0, metadata !11666) nounwind, !dbg !11681 ; [debug line = 663:0@1033:31@1033:33@305:17] [debug variable = __Val2__]
  %tmp_147 = call i26 @_ssdm_op_PartSelect.i26.i42.i32.i32(i42 %p_Val2_23, i32 16, i32 41), !dbg !11682 ; [#uses=1 type=i26] [debug line = 677:0@1033:31@1033:33@305:17]
  %p_Val2_43_cast_cast = sext i26 %tmp_147 to i27, !dbg !11682 ; [#uses=1 type=i27] [debug line = 677:0@1033:31@1033:33@305:17]
  call void @llvm.dbg.value(metadata !{i42 %p_Val2_23}, i64 0, metadata !11686) nounwind, !dbg !11682 ; [debug line = 677:0@1033:31@1033:33@305:17] [debug variable = __Val2__]
  %qbit_3 = call i1 @_ssdm_op_BitSelect.i1.i42.i32(i42 %p_Val2_23, i32 15), !dbg !11682 ; [#uses=1 type=i1] [debug line = 677:0@1033:31@1033:33@305:17]
  call void @llvm.dbg.value(metadata !{i1 %qbit_3}, i64 0, metadata !11687) nounwind, !dbg !11682 ; [debug line = 677:0@1033:31@1033:33@305:17] [debug variable = qbit]
  call void @llvm.dbg.value(metadata !{i1 %qbit_3}, i64 0, metadata !11688) nounwind, !dbg !11689 ; [debug line = 679:73@1033:31@1033:33@305:17] [debug variable = qb]
  call void @llvm.dbg.value(metadata !{i42 %p_Val2_23}, i64 0, metadata !11690) nounwind, !dbg !11692 ; [debug line = 682:0@1033:31@1033:33@305:17] [debug variable = __Val2__]
  %tmp_149 = trunc i42 %p_Val2_23 to i15, !dbg !11692 ; [#uses=1 type=i15] [debug line = 682:0@1033:31@1033:33@305:17]
  %r_3 = icmp ne i15 %tmp_149, 0, !dbg !11692     ; [#uses=1 type=i1] [debug line = 682:0@1033:31@1033:33@305:17]
  call void @llvm.dbg.value(metadata !{i1 %r_3}, i64 0, metadata !11693) nounwind, !dbg !11692 ; [debug line = 682:0@1033:31@1033:33@305:17] [debug variable = r]
  call void @llvm.dbg.value(metadata !{i1 %qbit_3}, i64 0, metadata !11694) nounwind, !dbg !11697 ; [debug line = 583:61@685:25@1033:31@1033:33@305:17] [debug variable = qb]
  call void @llvm.dbg.value(metadata !{i1 %r_3}, i64 0, metadata !11698) nounwind, !dbg !11699 ; [debug line = 583:70@685:25@1033:31@1033:33@305:17] [debug variable = r]
  %tmp_150 = call i1 @_ssdm_op_BitSelect.i1.i42.i32(i42 %p_Val2_23, i32 16), !dbg !11700 ; [#uses=1 type=i1] [debug line = 597:90@685:25@1033:31@1033:33@305:17]
  %r_i_i1 = or i1 %tmp_150, %r_3, !dbg !11703     ; [#uses=1 type=i1] [debug line = 597:189@685:25@1033:31@1033:33@305:17]
  %qb_assign_5 = and i1 %r_i_i1, %qbit_3, !dbg !11703 ; [#uses=1 type=i1] [debug line = 597:189@685:25@1033:31@1033:33@305:17]
  call void @llvm.dbg.value(metadata !{i1 %qb_assign_5}, i64 0, metadata !11694) nounwind, !dbg !11703 ; [debug line = 597:189@685:25@1033:31@1033:33@305:17] [debug variable = qb]
  %tmp_86_cast_cast = zext i1 %qb_assign_5 to i27, !dbg !11704 ; [#uses=1 type=i27] [debug line = 600:9@685:25@1033:31@1033:33@305:17]
  %p_Val2_24 = add i27 %p_Val2_43_cast_cast, %tmp_86_cast_cast, !dbg !11704 ; [#uses=5 type=i27] [debug line = 600:9@685:25@1033:31@1033:33@305:17]
  call void @llvm.dbg.value(metadata !{i27 %p_Val2_24}, i64 0, metadata !11705) nounwind, !dbg !11707 ; [debug line = 602:100@685:25@1033:31@1033:33@305:17] [debug variable = __Val2__]
  call void (...)* @_ssdm_op_Wait(i32 1) nounwind, !dbg !11708 ; [debug line = 803:19@306:5]
  call void @llvm.dbg.value(metadata !{i27 %p_Val2_24}, i64 0, metadata !11710), !dbg !11715 ; [debug line = 1036:62@307:5] [debug variable = v.V]
  call void @llvm.dbg.value(metadata !{i27 %p_Val2_24}, i64 0, metadata !11717) nounwind, !dbg !11726 ; [debug line = 663:0@1036:84@1036:86@307:5] [debug variable = __Val2__]
  %isneg_1 = call i1 @_ssdm_op_BitSelect.i1.i27.i32(i27 %p_Val2_24, i32 26), !dbg !11726 ; [#uses=2 type=i1] [debug line = 663:0@1036:84@1036:86@307:5]
  call void @llvm.dbg.value(metadata !{i1 %isneg_1}, i64 0, metadata !11727) nounwind, !dbg !11728 ; [debug line = 665:14@1036:84@1036:86@307:5] [debug variable = isneg]
  %p_Val2_25 = trunc i27 %p_Val2_24 to i21, !dbg !11729 ; [#uses=2 type=i21] [debug line = 667:13@1036:84@1036:86@307:5]
  call void @llvm.dbg.value(metadata !{i1 %isneg_1}, i64 0, metadata !11730) nounwind, !dbg !11732 ; [debug line = 702:33@1036:84@1036:86@307:5] [debug variable = neg_src]
  call void @llvm.dbg.value(metadata !{i21 %p_Val2_25}, i64 0, metadata !11733) nounwind, !dbg !11735 ; [debug line = 705:100@1036:84@1036:86@307:5] [debug variable = __Val2__]
  %newsignbit_4 = call i1 @_ssdm_op_BitSelect.i1.i27.i32(i27 %p_Val2_24, i32 20), !dbg !11736 ; [#uses=2 type=i1] [debug line = 705:102@1036:84@1036:86@307:5]
  call void @llvm.dbg.value(metadata !{i1 %newsignbit_4}, i64 0, metadata !11737) nounwind, !dbg !11738 ; [debug line = 705:213@1036:84@1036:86@307:5] [debug variable = newsignbit]
  call void @llvm.dbg.value(metadata !{i27 %p_Val2_24}, i64 0, metadata !11739) nounwind, !dbg !11741 ; [debug line = 709:0@1036:84@1036:86@307:5] [debug variable = __Val2__]
  call void @llvm.dbg.value(metadata !{i27 %p_Val2_24}, i64 0, metadata !11742) nounwind, !dbg !11746 ; [debug line = 723:0@1036:84@1036:86@307:5] [debug variable = __Val2__]
  call void @llvm.dbg.value(metadata !{i27 %p_Val2_24}, i64 0, metadata !11747) nounwind, !dbg !11750 ; [debug line = 731:0@1036:84@1036:86@307:5] [debug variable = __Val2__]
  %tmp_154 = call i6 @_ssdm_op_PartSelect.i6.i27.i32.i32(i27 %p_Val2_24, i32 21, i32 26), !dbg !11750 ; [#uses=2 type=i6] [debug line = 731:0@1036:84@1036:86@307:5]
  call void @llvm.dbg.value(metadata !{i1 %newsignbit_4}, i64 0, metadata !11751) nounwind, !dbg !11752 ; [debug line = 752:47@1036:84@1036:86@307:5] [debug variable = neg_trg]
  %p_not_i1 = icmp ne i6 %tmp_154, 0, !dbg !11753 ; [#uses=1 type=i1] [debug line = 753:66@1036:84@1036:86@307:5]
  %brmerge_i1 = or i1 %newsignbit_4, %p_not_i1, !dbg !11753 ; [#uses=1 type=i1] [debug line = 753:66@1036:84@1036:86@307:5]
  %tmp_86 = xor i1 %isneg_1, true, !dbg !11753    ; [#uses=1 type=i1] [debug line = 753:66@1036:84@1036:86@307:5]
  %overflow_6 = and i1 %brmerge_i1, %tmp_86, !dbg !11754 ; [#uses=2 type=i1] [debug line = 510:73@759:13@1036:84@1036:86@307:5]
  call void @llvm.dbg.value(metadata !{i1 %overflow_6}, i64 0, metadata !11756) nounwind, !dbg !11757 ; [debug line = 753:18@1036:84@1036:86@307:5] [debug variable = overflow]
  %newsignbit_0_not_i = xor i1 %newsignbit_4, true, !dbg !11758 ; [#uses=1 type=i1] [debug line = 754:68@1036:84@1036:86@307:5]
  %p_not38_i = icmp ne i6 %tmp_154, -1, !dbg !11758 ; [#uses=1 type=i1] [debug line = 754:68@1036:84@1036:86@307:5]
  call void @llvm.dbg.value(metadata !{i21 %p_Val2_25}, i64 0, metadata !11759) nounwind, !dbg !11761 ; [debug line = 757:88@1036:84@1036:86@307:5] [debug variable = __Val2__]
  %tmp_155 = trunc i27 %p_Val2_24 to i20, !dbg !11762 ; [#uses=1 type=i20] [debug line = 757:90@1036:84@1036:86@307:5]
  %tmp_87 = icmp eq i20 %tmp_155, 0, !dbg !11763  ; [#uses=1 type=i1] [debug line = 757:185@1036:84@1036:86@307:5]
  %tmp10 = or i1 %tmp_87, %newsignbit_0_not_i     ; [#uses=1 type=i1]
  %underflow_s = or i1 %tmp10, %p_not38_i         ; [#uses=1 type=i1]
  %underflow_4 = and i1 %underflow_s, %isneg_1    ; [#uses=3 type=i1]
  call void @llvm.dbg.value(metadata !{i1 %underflow_4}, i64 0, metadata !11764) nounwind, !dbg !11765 ; [debug line = 754:18@1036:84@1036:86@307:5] [debug variable = underflow]
  call void @llvm.dbg.value(metadata !{i1 %underflow_4}, i64 0, metadata !11766) nounwind, !dbg !11767 ; [debug line = 510:57@759:13@1036:84@1036:86@307:5] [debug variable = underflow]
  call void @llvm.dbg.value(metadata !{i1 %overflow_6}, i64 0, metadata !11768) nounwind, !dbg !11754 ; [debug line = 510:73@759:13@1036:84@1036:86@307:5] [debug variable = overflow]
  call void @llvm.dbg.value(metadata !{i1 %isneg_1}, i64 0, metadata !11769) nounwind, !dbg !11770 ; [debug line = 510:96@759:13@1036:84@1036:86@307:5] [debug variable = sign]
  %brmerge_i_i3 = or i1 %underflow_4, %overflow_6, !dbg !11771 ; [#uses=1 type=i1] [debug line = 515:2@759:13@1036:84@1036:86@307:5]
  %underflow_16_not = xor i1 %underflow_4, true, !dbg !11771 ; [#uses=1 type=i1] [debug line = 515:2@759:13@1036:84@1036:86@307:5]
  %brmerge5 = or i1 %overflow_6, %underflow_16_not, !dbg !11771 ; [#uses=1 type=i1] [debug line = 515:2@759:13@1036:84@1036:86@307:5]
  %p_Val2_26_mux = select i1 %brmerge_i_i3, i21 1048575, i21 %p_Val2_25, !dbg !11771 ; [#uses=1 type=i21] [debug line = 515:2@759:13@1036:84@1036:86@307:5]
  %p_Val2_1_38 = select i1 %underflow_4, i21 -1048575, i21 %p_Val2_25, !dbg !11772 ; [#uses=1 type=i21] [debug line = 567:24@759:13@1036:84@1036:86@307:5]
  %this_assign_13_1 = select i1 %brmerge5, i21 %p_Val2_26_mux, i21 %p_Val2_1_38 ; [#uses=1 type=i21]
  call void @llvm.dbg.value(metadata !{i21* %WBSlave_log_in_V}, i64 0, metadata !11773), !dbg !11775 ; [debug line = 1027:12@307:5] [debug variable = ssdm_int<21 + 1024 * 0, true>.V]
  call void @_ssdm_op_Write.ap_auto.i21P(i21* %WBSlave_log_in_V, i21 %this_assign_13_1), !dbg !11776 ; [debug line = 988:9@1027:12@307:5]
  call void (...)* @_ssdm_op_Wait(i32 1) nounwind, !dbg !11778 ; [debug line = 309:8]
  call void (...)* @_ssdm_op_Poll(i1 %WBSlave_log_done_V_read), !dbg !11780 ; [debug line = 309:56]
  call void @llvm.dbg.value(metadata !{i21 %p_Val2_9}, i64 0, metadata !9798), !dbg !11781 ; [debug line = 1036:62@310:5] [debug variable = v.V]
  call void @llvm.dbg.value(metadata !{i21 %p_Val2_9}, i64 0, metadata !11783) nounwind, !dbg !11786 ; [debug line = 663:0@1036:84@1036:86@310:5] [debug variable = __Val2__]
  call void @_ssdm_op_Write.ap_auto.i1P(i1* %WBSlave_log_start_V, i1 false), !dbg !11787 ; [debug line = 378:13@311:5]
  call void (...)* @_ssdm_op_Wait(i32 1) nounwind, !dbg !11789 ; [debug line = 803:19@312:5]
  call void @llvm.dbg.value(metadata !{i21 %p_Val2_7}, i64 0, metadata !11791) nounwind, !dbg !12017 ; [debug line = 663:0@761:5@1309:45@313:18] [debug variable = __Val2__]
  %tmp_88 = call i42 @_ssdm_op_BitConcatenate.i42.i21.i21(i21 %p_Val2_7, i21 0), !dbg !12018 ; [#uses=1 type=i42] [debug line = 691:17@761:5@1309:45@313:18]
  %tmp_89 = sdiv i42 %tmp_88, %OP1_V, !dbg !12020 ; [#uses=1 type=i42] [debug line = 1311:9@313:18]
  %tmp_103_cast = sext i42 %tmp_89 to i43, !dbg !7332 ; [#uses=1 type=i43] [debug line = 1329:0@313:18]
  %p_Val2_26 = add i43 %tmp_102_cast, %tmp_103_cast, !dbg !7332 ; [#uses=1 type=i43] [debug line = 1329:0@313:18]
  call void @llvm.dbg.value(metadata !{i21 %p_Val2_11}, i64 0, metadata !12021) nounwind, !dbg !12022 ; [debug line = 663:0@761:5@1330:0@313:29] [debug variable = __Val2__]
  call void @llvm.dbg.value(metadata !{i21 %p_Val2_7}, i64 0, metadata !12021) nounwind, !dbg !12022 ; [debug line = 663:0@761:5@1330:0@313:29] [debug variable = __Val2__]
  %tmp_90 = sext i21 %p_Val2_7 to i22, !dbg !9057 ; [#uses=1 type=i22] [debug line = 667:13@761:5@1330:0@313:29]
  %p_Val2_12 = sub i22 %tmp_69, %tmp_90, !dbg !9062 ; [#uses=1 type=i22] [debug line = 1330:0@313:29]
  call void @llvm.dbg.value(metadata !{i21 %p_Val2_8_34}, i64 0, metadata !12023) nounwind, !dbg !12027 ; [debug line = 663:0@761:5@1330:0@313:41] [debug variable = __Val2__]
  %tmp_91 = sext i21 %p_Val2_8_34 to i22, !dbg !12028 ; [#uses=1 type=i22] [debug line = 667:13@761:5@1330:0@313:41]
  %r_V = sub i22 65536, %tmp_91, !dbg !12025      ; [#uses=1 type=i22] [debug line = 1330:0@313:41]
  call void @llvm.dbg.value(metadata !{i22 %r_V}, i64 0, metadata !12029), !dbg !12025 ; [debug line = 1330:0@313:41] [debug variable = r.V]
  call void @llvm.dbg.value(metadata !{i22 %p_Val2_12}, i64 0, metadata !12036) nounwind, !dbg !12259 ; [debug line = 663:0@761:5@1309:45@313:41] [debug variable = __Val2__]
  %tmp_93 = call i44 @_ssdm_op_BitConcatenate.i44.i22.i22(i22 %p_Val2_12, i22 0), !dbg !12260 ; [#uses=1 type=i44] [debug line = 691:17@761:5@1309:45@313:41]
  %tmp_95 = sext i22 %r_V to i44, !dbg !12262     ; [#uses=1 type=i44] [debug line = 1311:9@313:41]
  %tmp_96 = sdiv i44 %tmp_93, %tmp_95, !dbg !12262 ; [#uses=1 type=i44] [debug line = 1311:9@313:41]
  call void @llvm.dbg.value(metadata !{i43 %p_Val2_26}, i64 0, metadata !12263) nounwind, !dbg !12272 ; [debug line = 663:0@761:5@1329:0@313:41] [debug variable = __Val2__]
  %tmp_97 = call i44 @_ssdm_op_BitConcatenate.i44.i43.i1(i43 %p_Val2_26, i1 false), !dbg !12273 ; [#uses=1 type=i44] [debug line = 691:17@761:5@1329:0@313:41]
  %tmp_112_cast = sext i44 %tmp_97 to i45, !dbg !12273 ; [#uses=1 type=i45] [debug line = 691:17@761:5@1329:0@313:41]
  %tmp_113_cast = sext i44 %tmp_96 to i45, !dbg !12269 ; [#uses=1 type=i45] [debug line = 1329:0@313:41]
  %p_Val2_27 = add i45 %tmp_112_cast, %tmp_113_cast, !dbg !12269 ; [#uses=9 type=i45] [debug line = 1329:0@313:41]
  call void @llvm.dbg.value(metadata !{i45 %p_Val2_27}, i64 0, metadata !12275) nounwind, !dbg !12290 ; [debug line = 663:0@1033:31@1033:33@313:41] [debug variable = __Val2__]
  %signbit_3 = call i1 @_ssdm_op_BitSelect.i1.i45.i32(i45 %p_Val2_27, i32 44), !dbg !12290 ; [#uses=2 type=i1] [debug line = 663:0@1033:31@1033:33@313:41]
  call void @llvm.dbg.value(metadata !{i1 %signbit_3}, i64 0, metadata !12291) nounwind, !dbg !12290 ; [debug line = 663:0@1033:31@1033:33@313:41] [debug variable = signbit]
  call void @llvm.dbg.value(metadata !{i1 %signbit_3}, i64 0, metadata !12292) nounwind, !dbg !12293 ; [debug line = 665:14@1033:31@1033:33@313:41] [debug variable = isneg]
  %p_Val2_28 = call i21 @_ssdm_op_PartSelect.i21.i45.i32.i32(i45 %p_Val2_27, i32 6, i32 26), !dbg !12294 ; [#uses=1 type=i21] [debug line = 670:17@1033:31@1033:33@313:41]
  call void @llvm.dbg.value(metadata !{i45 %p_Val2_27}, i64 0, metadata !12296) nounwind, !dbg !12299 ; [debug line = 677:0@1033:31@1033:33@313:41] [debug variable = __Val2__]
  %qbit_4 = call i1 @_ssdm_op_BitSelect.i1.i45.i32(i45 %p_Val2_27, i32 5), !dbg !12299 ; [#uses=1 type=i1] [debug line = 677:0@1033:31@1033:33@313:41]
  call void @llvm.dbg.value(metadata !{i1 %qbit_4}, i64 0, metadata !12300) nounwind, !dbg !12299 ; [debug line = 677:0@1033:31@1033:33@313:41] [debug variable = qbit]
  call void @llvm.dbg.value(metadata !{i1 %qbit_4}, i64 0, metadata !12301) nounwind, !dbg !12302 ; [debug line = 679:73@1033:31@1033:33@313:41] [debug variable = qb]
  call void @llvm.dbg.value(metadata !{i45 %p_Val2_27}, i64 0, metadata !12303) nounwind, !dbg !12305 ; [debug line = 682:0@1033:31@1033:33@313:41] [debug variable = __Val2__]
  %tmp_158 = trunc i45 %p_Val2_27 to i5, !dbg !12305 ; [#uses=1 type=i5] [debug line = 682:0@1033:31@1033:33@313:41]
  %r_4 = icmp ne i5 %tmp_158, 0, !dbg !12305      ; [#uses=1 type=i1] [debug line = 682:0@1033:31@1033:33@313:41]
  call void @llvm.dbg.value(metadata !{i1 %r_4}, i64 0, metadata !12306) nounwind, !dbg !12305 ; [debug line = 682:0@1033:31@1033:33@313:41] [debug variable = r]
  call void @llvm.dbg.value(metadata !{i1 %qbit_4}, i64 0, metadata !12307) nounwind, !dbg !12309 ; [debug line = 583:61@685:25@1033:31@1033:33@313:41] [debug variable = qb]
  call void @llvm.dbg.value(metadata !{i1 %r_4}, i64 0, metadata !12310) nounwind, !dbg !12311 ; [debug line = 583:70@685:25@1033:31@1033:33@313:41] [debug variable = r]
  call void @llvm.dbg.value(metadata !{i1 %signbit_3}, i64 0, metadata !12312) nounwind, !dbg !12313 ; [debug line = 583:78@685:25@1033:31@1033:33@313:41] [debug variable = s]
  call void @llvm.dbg.value(metadata !{i21 %p_Val2_28}, i64 0, metadata !12314) nounwind, !dbg !12315 ; [debug line = 587:88@685:25@1033:31@1033:33@313:41] [debug variable = __Val2__]
  %tmp_159 = call i1 @_ssdm_op_BitSelect.i1.i45.i32(i45 %p_Val2_27, i32 26), !dbg !12316 ; [#uses=1 type=i1] [debug line = 587:90@685:25@1033:31@1033:33@313:41]
  call void @llvm.dbg.value(metadata !{i21 %p_Val2_28}, i64 0, metadata !12317) nounwind, !dbg !12318 ; [debug line = 597:88@685:25@1033:31@1033:33@313:41] [debug variable = __Val2__]
  %tmp_160 = call i1 @_ssdm_op_BitSelect.i1.i45.i32(i45 %p_Val2_27, i32 6), !dbg !12319 ; [#uses=1 type=i1] [debug line = 597:90@685:25@1033:31@1033:33@313:41]
  %r_i_i2 = or i1 %tmp_160, %r_4, !dbg !12320     ; [#uses=1 type=i1] [debug line = 597:189@685:25@1033:31@1033:33@313:41]
  %qb_assign_8 = and i1 %r_i_i2, %qbit_4, !dbg !12320 ; [#uses=1 type=i1] [debug line = 597:189@685:25@1033:31@1033:33@313:41]
  call void @llvm.dbg.value(metadata !{i1 %qb_assign_8}, i64 0, metadata !12307) nounwind, !dbg !12320 ; [debug line = 597:189@685:25@1033:31@1033:33@313:41] [debug variable = qb]
  %tmp_98 = zext i1 %qb_assign_8 to i21, !dbg !12321 ; [#uses=1 type=i21] [debug line = 600:9@685:25@1033:31@1033:33@313:41]
  %p_Val2_29 = add i21 %p_Val2_28, %tmp_98, !dbg !12321 ; [#uses=4 type=i21] [debug line = 600:9@685:25@1033:31@1033:33@313:41]
  call void @llvm.dbg.value(metadata !{i21 %p_Val2_29}, i64 0, metadata !12322) nounwind, !dbg !12323 ; [debug line = 602:100@685:25@1033:31@1033:33@313:41] [debug variable = __Val2__]
  %newsignbit_5 = call i1 @_ssdm_op_BitSelect.i1.i21.i32(i21 %p_Val2_29, i32 20), !dbg !12324 ; [#uses=3 type=i1] [debug line = 602:102@685:25@1033:31@1033:33@313:41]
  %tmp_99 = xor i1 %newsignbit_5, true, !dbg !12325 ; [#uses=1 type=i1] [debug line = 602:213@685:25@1033:31@1033:33@313:41]
  %carry_2 = and i1 %tmp_159, %tmp_99, !dbg !12308 ; [#uses=3 type=i1] [debug line = 685:25@1033:31@1033:33@313:41]
  call void @llvm.dbg.value(metadata !{i1 %carry_2}, i64 0, metadata !12326) nounwind, !dbg !12308 ; [debug line = 685:25@1033:31@1033:33@313:41] [debug variable = carry]
  call void @llvm.dbg.value(metadata !{i1 %signbit_3}, i64 0, metadata !12327) nounwind, !dbg !12329 ; [debug line = 702:33@1033:31@1033:33@313:41] [debug variable = neg_src]
  call void @llvm.dbg.value(metadata !{i21 %p_Val2_29}, i64 0, metadata !12330) nounwind, !dbg !12332 ; [debug line = 705:100@1033:31@1033:33@313:41] [debug variable = __Val2__]
  call void @llvm.dbg.value(metadata !{i1 %newsignbit_5}, i64 0, metadata !12333) nounwind, !dbg !12334 ; [debug line = 705:213@1033:31@1033:33@313:41] [debug variable = newsignbit]
  call void @llvm.dbg.value(metadata !{i45 %p_Val2_27}, i64 0, metadata !12335) nounwind, !dbg !12337 ; [debug line = 709:0@1033:31@1033:33@313:41] [debug variable = __Val2__]
  %tmp_162 = call i1 @_ssdm_op_BitSelect.i1.i45.i32(i45 %p_Val2_27, i32 27), !dbg !12337 ; [#uses=1 type=i1] [debug line = 709:0@1033:31@1033:33@313:41]
  call void @llvm.dbg.value(metadata !{i45 %p_Val2_27}, i64 0, metadata !12338) nounwind, !dbg !12342 ; [debug line = 723:0@1033:31@1033:33@313:41] [debug variable = __Val2__]
  %tmp_100 = call i17 @_ssdm_op_PartSelect.i17.i45.i32.i32(i45 %p_Val2_27, i32 28, i32 44), !dbg !12342 ; [#uses=1 type=i17] [debug line = 723:0@1033:31@1033:33@313:41]
  %Range2_all_ones_3 = icmp eq i17 %tmp_100, -1, !dbg !12343 ; [#uses=1 type=i1] [debug line = 1973:9@726:50@1033:31@1033:33@313:41]
  call void @llvm.dbg.value(metadata !{i1 %Range2_all_ones_3}, i64 0, metadata !12585) nounwind, !dbg !12584 ; [debug line = 726:50@1033:31@1033:33@313:41] [debug variable = Range2_all_ones]
  call void @llvm.dbg.value(metadata !{i45 %p_Val2_27}, i64 0, metadata !12586) nounwind, !dbg !12589 ; [debug line = 731:0@1033:31@1033:33@313:41] [debug variable = __Val2__]
  %tmp_101 = call i18 @_ssdm_op_PartSelect.i18.i45.i32.i32(i45 %p_Val2_27, i32 27, i32 44), !dbg !12589 ; [#uses=2 type=i18] [debug line = 731:0@1033:31@1033:33@313:41]
  %Range1_all_ones_4 = icmp eq i18 %tmp_101, -1, !dbg !12590 ; [#uses=3 type=i1] [debug line = 1973:9@735:50@1033:31@1033:33@313:41]
  call void @llvm.dbg.value(metadata !{i1 %Range1_all_ones_4}, i64 0, metadata !12592) nounwind, !dbg !12591 ; [debug line = 735:50@1033:31@1033:33@313:41] [debug variable = Range1_all_ones]
  %Range1_all_zeros_3 = icmp eq i18 %tmp_101, 0, !dbg !12593 ; [#uses=1 type=i1] [debug line = 736:21@1033:31@1033:33@313:41]
  call void @llvm.dbg.value(metadata !{i1 %Range1_all_zeros_3}, i64 0, metadata !12594) nounwind, !dbg !12593 ; [debug line = 736:21@1033:31@1033:33@313:41] [debug variable = Range1_all_zeros]
  %deleted_zeros_3 = select i1 %carry_2, i1 %Range1_all_ones_4, i1 %Range1_all_zeros_3, !dbg !12595 ; [#uses=1 type=i1] [debug line = 746:17@1033:31@1033:33@313:41]
  call void @llvm.dbg.value(metadata !{i1 %deleted_zeros_3}, i64 0, metadata !12596) nounwind, !dbg !12597 ; [debug line = 700:18@1033:31@1033:33@313:41] [debug variable = deleted_zeros]
  %tmp_102 = xor i1 %tmp_162, true, !dbg !12598   ; [#uses=1 type=i1] [debug line = 747:17@1033:31@1033:33@313:41]
  %p_41_i1 = and i1 %Range2_all_ones_3, %tmp_102, !dbg !12598 ; [#uses=1 type=i1] [debug line = 747:17@1033:31@1033:33@313:41]
  %deleted_ones_4 = select i1 %carry_2, i1 %p_41_i1, i1 %Range1_all_ones_4, !dbg !12599 ; [#uses=1 type=i1] [debug line = 701:18@1033:31@1033:33@313:41]
  call void @llvm.dbg.value(metadata !{i1 %deleted_ones_4}, i64 0, metadata !12600) nounwind, !dbg !12599 ; [debug line = 701:18@1033:31@1033:33@313:41] [debug variable = deleted_ones]
  %p_38_i1 = and i1 %carry_2, %Range1_all_ones_4, !dbg !12601 ; [#uses=1 type=i1] [debug line = 749:17@1033:31@1033:33@313:41]
  %tmp_103 = xor i1 %p_38_i1, true                ; [#uses=1 type=i1]
  call void @llvm.dbg.value(metadata !{i1 %newsignbit_5}, i64 0, metadata !12602) nounwind, !dbg !12603 ; [debug line = 752:47@1033:31@1033:33@313:41] [debug variable = neg_trg]
  %p_not_i2 = xor i1 %deleted_zeros_3, true, !dbg !12604 ; [#uses=1 type=i1] [debug line = 753:66@1033:31@1033:33@313:41]
  %brmerge_i2 = or i1 %newsignbit_5, %p_not_i2, !dbg !12604 ; [#uses=1 type=i1] [debug line = 753:66@1033:31@1033:33@313:41]
  %tmp_104 = xor i1 %signbit_3, true, !dbg !12604 ; [#uses=1 type=i1] [debug line = 753:66@1033:31@1033:33@313:41]
  %overflow_7 = and i1 %brmerge_i2, %tmp_104, !dbg !12604 ; [#uses=2 type=i1] [debug line = 753:66@1033:31@1033:33@313:41]
  call void @llvm.dbg.value(metadata !{i1 %overflow_7}, i64 0, metadata !12605) nounwind, !dbg !12606 ; [debug line = 753:18@1033:31@1033:33@313:41] [debug variable = overflow]
  %brmerge40_demorgan_i1 = and i1 %newsignbit_5, %deleted_ones_4, !dbg !12607 ; [#uses=1 type=i1] [debug line = 754:68@1033:31@1033:33@313:41]
  %brmerge40_i1 = xor i1 %brmerge40_demorgan_i1, true, !dbg !12607 ; [#uses=1 type=i1] [debug line = 754:68@1033:31@1033:33@313:41]
  call void @llvm.dbg.value(metadata !{i21 %p_Val2_29}, i64 0, metadata !12608) nounwind, !dbg !12610 ; [debug line = 757:88@1033:31@1033:33@313:41] [debug variable = __Val2__]
  %tmp_163 = trunc i21 %p_Val2_29 to i20, !dbg !12611 ; [#uses=1 type=i20] [debug line = 757:90@1033:31@1033:33@313:41]
  %tmp_105 = icmp eq i20 %tmp_163, 0, !dbg !12612 ; [#uses=1 type=i1] [debug line = 757:185@1033:31@1033:33@313:41]
  %tmp_106 = or i1 %tmp_105, %brmerge40_i1        ; [#uses=1 type=i1]
  %tmp11 = and i1 %tmp_106, %tmp_103              ; [#uses=1 type=i1]
  %underflow_5 = and i1 %tmp11, %signbit_3        ; [#uses=3 type=i1]
  call void @llvm.dbg.value(metadata !{i1 %underflow_5}, i64 0, metadata !12613) nounwind, !dbg !12614 ; [debug line = 754:18@1033:31@1033:33@313:41] [debug variable = underflow]
  call void @llvm.dbg.value(metadata !{i1 %underflow_5}, i64 0, metadata !12615) nounwind, !dbg !12617 ; [debug line = 510:57@759:13@1033:31@1033:33@313:41] [debug variable = underflow]
  call void @llvm.dbg.value(metadata !{i1 %overflow_7}, i64 0, metadata !12618) nounwind, !dbg !12619 ; [debug line = 510:73@759:13@1033:31@1033:33@313:41] [debug variable = overflow]
  %brmerge_i_i5 = or i1 %underflow_5, %overflow_7, !dbg !12620 ; [#uses=1 type=i1] [debug line = 515:2@759:13@1033:31@1033:33@313:41]
  %underflow_17_not = xor i1 %underflow_5, true, !dbg !12620 ; [#uses=1 type=i1] [debug line = 515:2@759:13@1033:31@1033:33@313:41]
  %brmerge6 = or i1 %overflow_7, %underflow_17_not, !dbg !12620 ; [#uses=1 type=i1] [debug line = 515:2@759:13@1033:31@1033:33@313:41]
  %p_Val2_41_mux = select i1 %brmerge_i_i5, i21 1048575, i21 %p_Val2_29, !dbg !12620 ; [#uses=1 type=i21] [debug line = 515:2@759:13@1033:31@1033:33@313:41]
  %p_Val2_3_39 = select i1 %underflow_5, i21 -1048575, i21 %p_Val2_29, !dbg !12621 ; [#uses=1 type=i21] [debug line = 567:24@759:13@1033:31@1033:33@313:41]
  %psi_V = select i1 %brmerge6, i21 %p_Val2_41_mux, i21 %p_Val2_3_39, !dbg !12622 ; [#uses=1 type=i21] [debug line = 988:9@1027:12@313:41]
  call void @llvm.dbg.value(metadata !{i21 %psi_V}, i64 0, metadata !12624), !dbg !12622 ; [debug line = 988:9@1027:12@313:41] [debug variable = psi.V]
  call void (...)* @_ssdm_op_Wait(i32 1) nounwind, !dbg !12626 ; [debug line = 803:19@314:5]
  call void @llvm.dbg.value(metadata !{i21 %psi_V}, i64 0, metadata !12628), !dbg !12622 ; [debug line = 988:9@1027:12@313:41] [debug variable = psiMax.V]
  store i21 %psi_V, i21* %psiMax_V_1, align 4, !dbg !12622 ; [debug line = 988:9@1027:12@313:41]
  br label %._crit_edge, !dbg !12630              ; [debug line = 315:4]

._crit_edge:                                      ; preds = %_ZN7_ap_sc_7sc_core4waitEi.exit29_ifconv, %to_double.exit449, %2
  call void @llvm.dbg.value(metadata !{i21* %psiMax_V_1}, i64 0, metadata !12628) ; [debug variable = psiMax.V]
  %psiMax_V_2 = load i21* %psiMax_V_1, align 4    ; [#uses=2 type=i21]
  %tmp_107 = icmp sgt i21 %psiMax_V_2, %psiMax, !dbg !12631 ; [#uses=1 type=i1] [debug line = 1884:0@316:8]
  br i1 %tmp_107, label %_ZN7_ap_sc_7sc_core4waitEi.exit4, label %_ZN7_ap_sc_7sc_core4waitEi.exit2, !dbg !12636 ; [debug line = 316:8]

_ZN7_ap_sc_7sc_core4waitEi.exit4:                 ; preds = %._crit_edge
  call void @llvm.dbg.value(metadata !{i21 %psiMax_V_2}, i64 0, metadata !12628), !dbg !12637 ; [debug line = 988:9@1027:12@317:6] [debug variable = psiMax.V]
  call void @llvm.dbg.value(metadata !{i9 %thresh_1}, i64 0, metadata !12641), !dbg !12642 ; [debug line = 318:5] [debug variable = thresh]
  call void (...)* @_ssdm_op_Wait(i32 1) nounwind, !dbg !12643 ; [debug line = 803:19@319:5]
  store i32 %thresh_3_cast1, i32* %thresh, align 4
  br label %_ZN7_ap_sc_7sc_core4waitEi.exit2, !dbg !12645 ; [debug line = 320:4]

_ZN7_ap_sc_7sc_core4waitEi.exit2:                 ; preds = %_ZN7_ap_sc_7sc_core4waitEi.exit4, %._crit_edge
  %psiMax_1 = phi i21 [ %psiMax_V_2, %_ZN7_ap_sc_7sc_core4waitEi.exit4 ], [ %psiMax, %._crit_edge ] ; [#uses=1 type=i21]
  call void (...)* @_ssdm_op_Wait(i32 1) nounwind, !dbg !12646 ; [debug line = 803:19@321:4]
  %i_10 = add i9 %thresh_1, 1, !dbg !12648        ; [#uses=1 type=i9] [debug line = 290:38]
  call void @llvm.dbg.value(metadata !{i9 %i_10}, i64 0, metadata !9054), !dbg !12648 ; [debug line = 290:38] [debug variable = i]
  br label %.preheader7, !dbg !12648              ; [debug line = 290:38]

_ZN7_ap_sc_7sc_core4waitEi.exit:                  ; preds = %.preheader7
  %thresh_load = load i32* %thresh, align 4, !dbg !7298 ; [#uses=1 type=i32] [debug line = 324:3]
  store i32 %thresh_load, i32* %WBSlave_PBuffer_addr, align 4, !dbg !7298 ; [debug line = 324:3]
  %WBSlave_STAT_ADDR_V_read = call i3 @_ssdm_op_Read.ap_auto.i3P(i3* %WBSlave_STAT_ADDR_V), !dbg !12649 ; [#uses=1 type=i3] [debug line = 1654:70@326:8]
  %tmp_61 = zext i3 %WBSlave_STAT_ADDR_V_read to i64, !dbg !12650 ; [#uses=1 type=i64] [debug line = 326:8]
  %WBSlave_regs_addr_5 = getelementptr [16 x i32]* %WBSlave_regs, i64 0, i64 %tmp_61, !dbg !12650 ; [#uses=3 type=i32*] [debug line = 326:8]
  %WBSlave_regs_load_11 = load i32* %WBSlave_regs_addr_5, align 4, !dbg !12650 ; [#uses=1 type=i32] [debug line = 326:8]
  %tmp_62 = or i32 %WBSlave_regs_load_11, 1, !dbg !12650 ; [#uses=1 type=i32] [debug line = 326:8]
  store i32 %tmp_62, i32* %WBSlave_regs_addr_5, align 4, !dbg !12650 ; [debug line = 326:8]
  call void (...)* @_ssdm_op_Wait(i32 1) nounwind, !dbg !12651 ; [debug line = 328:6]
  %WBSlave_regs_load_12 = load i32* %WBSlave_regs_addr, align 4, !dbg !12653 ; [#uses=1 type=i32] [debug line = 328:41]
  %tmp_63 = icmp eq i32 %WBSlave_regs_load_12, 0, !dbg !12653 ; [#uses=1 type=i1] [debug line = 328:41]
  call void (...)* @_ssdm_op_Poll(i1 %tmp_63), !dbg !12654 ; [debug line = 328:61]
  store i32 0, i32* %WBSlave_regs_addr_5, align 4, !dbg !12655 ; [debug line = 331:8]
  call void (...)* @_ssdm_op_Wait(i32 1) nounwind, !dbg !12656 ; [debug line = 803:19@332:3]
  br label %_ZN7_ap_sc_7sc_core4waitEi.exit6, !dbg !12658 ; [debug line = 333:5]
}

; [#uses=1]
define void @"WBSlave::WBSlave_WBSlave::getLog"(i1* %WBSlave_clk_m_if_Val, i1* %WBSlave_reset_m_if_Val, i32* %WBSlave_adr_i_m_if_Val_V, i32* %WBSlave_dat_i_m_if_Val_V, i1* %WBSlave_we_i_m_if_Val, i1* %WBSlave_stb_i_m_if_Val, i1* %WBSlave_cyc_i_m_if_Val, i4* %WBSlave_sel_i_m_if_Val_V, i32* %WBSlave_dat_o_m_if_Val_V, i1* %WBSlave_ack_o_m_if_Val, i1* %WBSlave_int_o_m_if_Val, [16 x i32]* %WBSlave_regs, [500 x i32]* %WBSlave_PBuffer, i3* %WBSlave_CTRL_ADDR_V, i3* %WBSlave_STAT_ADDR_V, i21* %WBSlave_log_in_V, i21* %WBSlave_log_out_V, i1* %WBSlave_log_start_V, i1* %WBSlave_log_done_V, i3* %WBSlave_REG0_ADDR_V, i3* %WBSlave_REG1_ADDR_V, i3* %WBSlave_REG2_ADDR_V, i3* %WBSlave_REG3_ADDR_V, i3* %WBSlave_REG4_ADDR_V, i3* %WBSlave_DELAY_ADDR_V, i3* %WBSlave_LAST_ADDR_V) {
codeRepl:
  call void (...)* @_ssdm_op_SpecBitsMap(i1* %WBSlave_clk_m_if_Val), !map !156
  call void (...)* @_ssdm_op_SpecBitsMap(i1* %WBSlave_reset_m_if_Val), !map !160
  call void (...)* @_ssdm_op_SpecBitsMap(i32* %WBSlave_adr_i_m_if_Val_V), !map !164
  call void (...)* @_ssdm_op_SpecBitsMap(i32* %WBSlave_dat_i_m_if_Val_V), !map !168
  call void (...)* @_ssdm_op_SpecBitsMap(i1* %WBSlave_we_i_m_if_Val), !map !172
  call void (...)* @_ssdm_op_SpecBitsMap(i1* %WBSlave_stb_i_m_if_Val), !map !176
  call void (...)* @_ssdm_op_SpecBitsMap(i1* %WBSlave_cyc_i_m_if_Val), !map !180
  call void (...)* @_ssdm_op_SpecBitsMap(i4* %WBSlave_sel_i_m_if_Val_V), !map !184
  call void (...)* @_ssdm_op_SpecBitsMap(i32* %WBSlave_dat_o_m_if_Val_V), !map !188
  call void (...)* @_ssdm_op_SpecBitsMap(i1* %WBSlave_ack_o_m_if_Val), !map !192
  call void (...)* @_ssdm_op_SpecBitsMap(i1* %WBSlave_int_o_m_if_Val), !map !196
  call void (...)* @_ssdm_op_SpecBitsMap([16 x i32]* %WBSlave_regs), !map !200
  call void (...)* @_ssdm_op_SpecBitsMap([500 x i32]* %WBSlave_PBuffer), !map !204
  call void (...)* @_ssdm_op_SpecBitsMap(i3* %WBSlave_CTRL_ADDR_V), !map !208
  call void (...)* @_ssdm_op_SpecBitsMap(i3* %WBSlave_STAT_ADDR_V), !map !212
  call void (...)* @_ssdm_op_SpecBitsMap(i21* %WBSlave_log_in_V), !map !216
  call void (...)* @_ssdm_op_SpecBitsMap(i21* %WBSlave_log_out_V), !map !220
  call void (...)* @_ssdm_op_SpecBitsMap(i1* %WBSlave_log_start_V), !map !224
  call void (...)* @_ssdm_op_SpecBitsMap(i1* %WBSlave_log_done_V), !map !228
  call void (...)* @_ssdm_op_SpecBitsMap(i3* %WBSlave_REG0_ADDR_V), !map !232
  call void (...)* @_ssdm_op_SpecBitsMap(i3* %WBSlave_REG1_ADDR_V), !map !236
  call void (...)* @_ssdm_op_SpecBitsMap(i3* %WBSlave_REG2_ADDR_V), !map !240
  call void (...)* @_ssdm_op_SpecBitsMap(i3* %WBSlave_REG3_ADDR_V), !map !244
  call void (...)* @_ssdm_op_SpecBitsMap(i3* %WBSlave_REG4_ADDR_V), !map !248
  call void (...)* @_ssdm_op_SpecBitsMap(i3* %WBSlave_DELAY_ADDR_V), !map !252
  call void (...)* @_ssdm_op_SpecBitsMap(i3* %WBSlave_LAST_ADDR_V), !map !256
  call void @llvm.dbg.value(metadata !{i1* %WBSlave_clk_m_if_Val}, i64 0, metadata !12659), !dbg !12662 ; [debug line = 24:15] [debug variable = WBSlave.clk.m_if.Val]
  call void @llvm.dbg.value(metadata !{i1* %WBSlave_reset_m_if_Val}, i64 0, metadata !12663), !dbg !12662 ; [debug line = 24:15] [debug variable = WBSlave.reset.m_if.Val]
  call void @llvm.dbg.value(metadata !{i32* %WBSlave_adr_i_m_if_Val_V}, i64 0, metadata !12664), !dbg !12662 ; [debug line = 24:15] [debug variable = WBSlave.adr_i.m_if.Val.V]
  call void @llvm.dbg.value(metadata !{i32* %WBSlave_dat_i_m_if_Val_V}, i64 0, metadata !12665), !dbg !12662 ; [debug line = 24:15] [debug variable = WBSlave.dat_i.m_if.Val.V]
  call void @llvm.dbg.value(metadata !{i1* %WBSlave_we_i_m_if_Val}, i64 0, metadata !12666), !dbg !12662 ; [debug line = 24:15] [debug variable = WBSlave.we_i.m_if.Val]
  call void @llvm.dbg.value(metadata !{i1* %WBSlave_stb_i_m_if_Val}, i64 0, metadata !12667), !dbg !12662 ; [debug line = 24:15] [debug variable = WBSlave.stb_i.m_if.Val]
  call void @llvm.dbg.value(metadata !{i1* %WBSlave_cyc_i_m_if_Val}, i64 0, metadata !12668), !dbg !12662 ; [debug line = 24:15] [debug variable = WBSlave.cyc_i.m_if.Val]
  call void @llvm.dbg.value(metadata !{i4* %WBSlave_sel_i_m_if_Val_V}, i64 0, metadata !12669), !dbg !12662 ; [debug line = 24:15] [debug variable = WBSlave.sel_i.m_if.Val.V]
  call void @llvm.dbg.value(metadata !{i32* %WBSlave_dat_o_m_if_Val_V}, i64 0, metadata !12670), !dbg !12662 ; [debug line = 24:15] [debug variable = WBSlave.dat_o.m_if.Val.V]
  call void @llvm.dbg.value(metadata !{i1* %WBSlave_ack_o_m_if_Val}, i64 0, metadata !12671), !dbg !12662 ; [debug line = 24:15] [debug variable = WBSlave.ack_o.m_if.Val]
  call void @llvm.dbg.value(metadata !{i1* %WBSlave_int_o_m_if_Val}, i64 0, metadata !12672), !dbg !12662 ; [debug line = 24:15] [debug variable = WBSlave.int_o.m_if.Val]
  call void @llvm.dbg.value(metadata !{[16 x i32]* %WBSlave_regs}, i64 0, metadata !12673), !dbg !12662 ; [debug line = 24:15] [debug variable = WBSlave.regs]
  call void @llvm.dbg.value(metadata !{[500 x i32]* %WBSlave_PBuffer}, i64 0, metadata !12674), !dbg !12662 ; [debug line = 24:15] [debug variable = WBSlave.PBuffer]
  call void @llvm.dbg.value(metadata !{i3* %WBSlave_CTRL_ADDR_V}, i64 0, metadata !12675), !dbg !12662 ; [debug line = 24:15] [debug variable = WBSlave.CTRL_ADDR.V]
  call void @llvm.dbg.value(metadata !{i3* %WBSlave_STAT_ADDR_V}, i64 0, metadata !12676), !dbg !12662 ; [debug line = 24:15] [debug variable = WBSlave.STAT_ADDR.V]
  call void @llvm.dbg.value(metadata !{i21* %WBSlave_log_in_V}, i64 0, metadata !12677), !dbg !12662 ; [debug line = 24:15] [debug variable = WBSlave.log_in.V]
  call void @llvm.dbg.value(metadata !{i21* %WBSlave_log_out_V}, i64 0, metadata !12678), !dbg !12662 ; [debug line = 24:15] [debug variable = WBSlave.log_out.V]
  call void @llvm.dbg.value(metadata !{i1* %WBSlave_log_start_V}, i64 0, metadata !12679), !dbg !12662 ; [debug line = 24:15] [debug variable = WBSlave.log_start.V]
  call void @llvm.dbg.value(metadata !{i1* %WBSlave_log_done_V}, i64 0, metadata !12680), !dbg !12662 ; [debug line = 24:15] [debug variable = WBSlave.log_done.V]
  call void @llvm.dbg.value(metadata !{i3* %WBSlave_REG0_ADDR_V}, i64 0, metadata !12681), !dbg !12662 ; [debug line = 24:15] [debug variable = WBSlave.REG0_ADDR.V]
  call void @llvm.dbg.value(metadata !{i3* %WBSlave_REG1_ADDR_V}, i64 0, metadata !12682), !dbg !12662 ; [debug line = 24:15] [debug variable = WBSlave.REG1_ADDR.V]
  call void @llvm.dbg.value(metadata !{i3* %WBSlave_REG2_ADDR_V}, i64 0, metadata !12683), !dbg !12662 ; [debug line = 24:15] [debug variable = WBSlave.REG2_ADDR.V]
  call void @llvm.dbg.value(metadata !{i3* %WBSlave_REG3_ADDR_V}, i64 0, metadata !12684), !dbg !12662 ; [debug line = 24:15] [debug variable = WBSlave.REG3_ADDR.V]
  call void @llvm.dbg.value(metadata !{i3* %WBSlave_REG4_ADDR_V}, i64 0, metadata !12685), !dbg !12662 ; [debug line = 24:15] [debug variable = WBSlave.REG4_ADDR.V]
  call void @llvm.dbg.value(metadata !{i3* %WBSlave_DELAY_ADDR_V}, i64 0, metadata !12686), !dbg !12662 ; [debug line = 24:15] [debug variable = WBSlave.DELAY_ADDR.V]
  call void @llvm.dbg.value(metadata !{i3* %WBSlave_LAST_ADDR_V}, i64 0, metadata !12687), !dbg !12662 ; [debug line = 24:15] [debug variable = WBSlave.LAST_ADDR.V]
  call void (...)* @_ssdm_op_SpecPort([8 x i8]* @p_str8, i32 0, [7 x i8]* @p_str14, [4 x i8]* @p_str10, i32 0, i32 0, i1* %WBSlave_clk_m_if_Val) nounwind, !dbg !12688 ; [debug line = 25:4]
  call void (...)* @_ssdm_op_SpecPort([8 x i8]* @p_str8, i32 0, [7 x i8]* @p_str14, [6 x i8]* @p_str11, i32 0, i32 0, i1* %WBSlave_reset_m_if_Val) nounwind, !dbg !12690 ; [debug line = 26:3]
  call void (...)* @_ssdm_op_SpecPort([8 x i8]* @p_str8, i32 0, [8 x i8]* @p_str15, [6 x i8]* @p_str16, i32 0, i32 0, i32* %WBSlave_adr_i_m_if_Val_V) nounwind, !dbg !12691 ; [debug line = 27:3]
  call void (...)* @_ssdm_op_SpecPort([8 x i8]* @p_str8, i32 0, [8 x i8]* @p_str15, [6 x i8]* @p_str17, i32 0, i32 0, i32* %WBSlave_dat_i_m_if_Val_V) nounwind, !dbg !12692 ; [debug line = 28:3]
  call void (...)* @_ssdm_op_SpecPort([8 x i8]* @p_str8, i32 0, [7 x i8]* @p_str14, [5 x i8]* @p_str18, i32 0, i32 0, i1* %WBSlave_we_i_m_if_Val) nounwind, !dbg !12693 ; [debug line = 29:3]
  call void (...)* @_ssdm_op_SpecPort([8 x i8]* @p_str8, i32 0, [7 x i8]* @p_str14, [6 x i8]* @p_str19, i32 0, i32 0, i1* %WBSlave_stb_i_m_if_Val) nounwind, !dbg !12694 ; [debug line = 30:3]
  call void (...)* @_ssdm_op_SpecPort([8 x i8]* @p_str8, i32 0, [7 x i8]* @p_str14, [6 x i8]* @p_str20, i32 0, i32 0, i1* %WBSlave_cyc_i_m_if_Val) nounwind, !dbg !12695 ; [debug line = 31:3]
  call void (...)* @_ssdm_op_SpecPort([8 x i8]* @p_str8, i32 0, [31 x i8]* @p_str21, [6 x i8]* @p_str22, i32 0, i32 0, i4* %WBSlave_sel_i_m_if_Val_V) nounwind, !dbg !12696 ; [debug line = 32:3]
  call void (...)* @_ssdm_op_SpecPort([8 x i8]* @p_str8, i32 1, [8 x i8]* @p_str15, [6 x i8]* @p_str23, i32 0, i32 0, i32* %WBSlave_dat_o_m_if_Val_V) nounwind, !dbg !12697 ; [debug line = 33:3]
  call void (...)* @_ssdm_op_SpecPort([8 x i8]* @p_str8, i32 1, [7 x i8]* @p_str14, [6 x i8]* @p_str24, i32 0, i32 0, i1* %WBSlave_ack_o_m_if_Val) nounwind, !dbg !12698 ; [debug line = 34:3]
  call void (...)* @_ssdm_op_SpecPort([8 x i8]* @p_str8, i32 1, [7 x i8]* @p_str14, [6 x i8]* @p_str25, i32 0, i32 0, i1* %WBSlave_int_o_m_if_Val) nounwind, !dbg !12699 ; [debug line = 35:3]
  call void (...)* @_ssdm_op_SpecProcessDef([8 x i8]* @p_str8, i32 2, [7 x i8]* @p_str13) nounwind, !dbg !12700 ; [debug line = 36:3]
  %tmp = call i32 (...)* @_ssdm_op_SpecRegionBegin([15 x i8]* @p_str42), !dbg !12701 ; [#uses=1 type=i32] [debug line = 36:105]
  call void (...)* @_ssdm_op_SpecProtocol(i32 1, [1 x i8]* @p_str43) nounwind, !dbg !12702 ; [debug line = 36:189]
  %p_ssdm_reset_v = call i32 (...)* @_ssdm_op_SpecStateBegin(i32 0, i32 0, i32 1) nounwind, !dbg !12703 ; [#uses=1 type=i32] [debug line = 36:239]
  call void @llvm.dbg.value(metadata !{i32 %p_ssdm_reset_v}, i64 0, metadata !12704), !dbg !12703 ; [debug line = 36:239] [debug variable = _ssdm_reset_v]
  call void @_ssdm_op_Write.ap_auto.i1P(i1* %WBSlave_log_start_V, i1 false), !dbg !12705 ; [debug line = 378:13@184:1]
  call void @_ssdm_op_Write.ap_auto.i1P(i1* %WBSlave_log_done_V, i1 false), !dbg !12707 ; [debug line = 378:13@185:1]
  %empty = call i32 (...)* @_ssdm_op_SpecStateEnd(i32 %p_ssdm_reset_v) nounwind, !dbg !12709 ; [#uses=0 type=i32] [debug line = 185:17]
  %empty_40 = call i32 (...)* @_ssdm_op_SpecRegionEnd([15 x i8]* @p_str42, i32 %tmp), !dbg !12710 ; [#uses=0 type=i32] [debug line = 185:55]
  %p_Val2_s = call i21 @_ssdm_op_Read.ap_auto.i21P(i21* %WBSlave_log_in_V), !dbg !12711 ; [#uses=7 type=i21] [debug line = 1081:13@1898:85@189:6]
  call void @llvm.dbg.value(metadata !{i21 %p_Val2_s}, i64 0, metadata !12715) nounwind, !dbg !12720 ; [debug line = 663:0@761:5@1330:0@211:9] [debug variable = __Val2__]
  %tmp_s = icmp eq i21 %p_Val2_s, 0, !dbg !12711  ; [#uses=1 type=i1] [debug line = 1081:13@1898:85@189:6]
  %OP2_V_cast = zext i21 %p_Val2_s to i44, !dbg !12721 ; [#uses=1 type=i44] [debug line = 1295:9@198:16]
  %dp_s = sitofp i21 %p_Val2_s to double, !dbg !12729 ; [#uses=1 type=double] [debug line = 1083:32@1898:85@189:6]
  %res_V = bitcast double %dp_s to i64, !dbg !12730 ; [#uses=3 type=i64] [debug line = 842:9@1085:21@1898:85@189:6]
  %exp_V = call i11 @_ssdm_op_PartSelect.i11.i64.i32.i32(i64 %res_V, i32 52, i32 62), !dbg !12732 ; [#uses=1 type=i11] [debug line = 1087:86@1898:85@189:6]
  %exp_V_s = add i11 %exp_V, -16, !dbg !12733     ; [#uses=2 type=i11] [debug line = 1819:147@3734:159@1088:13@1898:85@189:6]
  %p_Result_s = call i64 @llvm.part.set.i64.i11(i64 %res_V, i11 %exp_V_s, i32 52, i32 62) nounwind, !dbg !12736 ; [#uses=1 type=i64] [debug line = 1089:119@1898:85@189:6]
  %dp = bitcast i64 %p_Result_s to double, !dbg !12737 ; [#uses=1 type=double] [debug line = 860:9@1090:34@1898:85@189:6]
  %tmp_172 = trunc i64 %res_V to i52              ; [#uses=1 type=i52]
  %notlhs = icmp ne i11 %exp_V_s, -1              ; [#uses=1 type=i1]
  %notrhs = icmp eq i52 %tmp_172, 0               ; [#uses=1 type=i1]
  %tmp_118 = or i1 %notrhs, %notlhs               ; [#uses=1 type=i1]
  %tmp_119 = fcmp olt double %dp, 1.000000e-01, !dbg !12739 ; [#uses=1 type=i1] [debug line = 1091:13@1898:85@189:6]
  %tmp_120 = and i1 %tmp_118, %tmp_119, !dbg !12739 ; [#uses=1 type=i1] [debug line = 1091:13@1898:85@189:6]
  %tmp_121 = sext i21 %p_Val2_s to i22, !dbg !12740 ; [#uses=1 type=i22] [debug line = 667:13@761:5@1330:0@211:9]
  %p_Val2_34 = add i22 %tmp_121, -65536, !dbg !12717 ; [#uses=4 type=i22] [debug line = 1330:0@211:9]
  call void @llvm.dbg.value(metadata !{i22 %p_Val2_34}, i64 0, metadata !12741) nounwind, !dbg !12751 ; [debug line = 709:0@1033:31@1033:33@211:9] [debug variable = __Val2__]
  call void @llvm.dbg.value(metadata !{i22 %p_Val2_34}, i64 0, metadata !12752) nounwind, !dbg !12753 ; [debug line = 663:0@1033:31@1033:33@211:9] [debug variable = __Val2__]
  %isneg = call i1 @_ssdm_op_BitSelect.i1.i22.i32(i22 %p_Val2_34, i32 21), !dbg !12753 ; [#uses=2 type=i1] [debug line = 663:0@1033:31@1033:33@211:9]
  call void @llvm.dbg.value(metadata !{i1 %isneg}, i64 0, metadata !12754) nounwind, !dbg !12756 ; [debug line = 510:96@759:13@1033:31@1033:33@211:9] [debug variable = sign]
  call void @llvm.dbg.value(metadata !{i1 %isneg}, i64 0, metadata !12757) nounwind, !dbg !12758 ; [debug line = 510:87@759:13@1033:31@1033:33@211:9] [debug variable = lD]
  call void @llvm.dbg.value(metadata !{i1 %isneg}, i64 0, metadata !12759) nounwind, !dbg !12760 ; [debug line = 701:18@1033:31@1033:33@211:9] [debug variable = deleted_ones]
  call void @llvm.dbg.value(metadata !{i1 %isneg}, i64 0, metadata !12761) nounwind, !dbg !12762 ; [debug line = 738:21@1033:31@1033:33@211:9] [debug variable = Range1_all_ones]
  call void @llvm.dbg.value(metadata !{i1 %isneg}, i64 0, metadata !12763) nounwind, !dbg !12751 ; [debug line = 709:0@1033:31@1033:33@211:9] [debug variable = lD]
  call void @llvm.dbg.value(metadata !{i1 %isneg}, i64 0, metadata !12764) nounwind, !dbg !12765 ; [debug line = 702:33@1033:31@1033:33@211:9] [debug variable = neg_src]
  call void @llvm.dbg.value(metadata !{i1 %isneg}, i64 0, metadata !12766) nounwind, !dbg !12767 ; [debug line = 665:14@1033:31@1033:33@211:9] [debug variable = isneg]
  %p_Val2_35 = trunc i22 %p_Val2_34 to i21, !dbg !12768 ; [#uses=2 type=i21] [debug line = 667:13@1033:31@1033:33@211:9]
  call void @llvm.dbg.value(metadata !{i21 %p_Val2_35}, i64 0, metadata !12769) nounwind, !dbg !12770 ; [debug line = 757:88@1033:31@1033:33@211:9] [debug variable = __Val2__]
  call void @llvm.dbg.value(metadata !{i21 %p_Val2_35}, i64 0, metadata !12771) nounwind, !dbg !12772 ; [debug line = 705:100@1033:31@1033:33@211:9] [debug variable = __Val2__]
  %neg_trg_10 = call i1 @_ssdm_op_BitSelect.i1.i22.i32(i22 %p_Val2_34, i32 20), !dbg !12773 ; [#uses=2 type=i1] [debug line = 705:102@1033:31@1033:33@211:9]
  call void @llvm.dbg.value(metadata !{i1 %neg_trg_10}, i64 0, metadata !12774) nounwind, !dbg !12775 ; [debug line = 752:47@1033:31@1033:33@211:9] [debug variable = neg_trg]
  call void @llvm.dbg.value(metadata !{i1 %neg_trg_10}, i64 0, metadata !12776) nounwind, !dbg !12777 ; [debug line = 705:213@1033:31@1033:33@211:9] [debug variable = newsignbit]
  %tmp_122 = xor i1 %isneg, true, !dbg !12778     ; [#uses=1 type=i1] [debug line = 510:73@759:13@1033:31@1033:33@211:9]
  %overflow_8 = and i1 %neg_trg_10, %tmp_122, !dbg !12778 ; [#uses=2 type=i1] [debug line = 510:73@759:13@1033:31@1033:33@211:9]
  call void @llvm.dbg.value(metadata !{i1 %overflow_8}, i64 0, metadata !12779) nounwind, !dbg !12778 ; [debug line = 510:73@759:13@1033:31@1033:33@211:9] [debug variable = overflow]
  call void @llvm.dbg.value(metadata !{i1 %overflow_8}, i64 0, metadata !12780) nounwind, !dbg !12781 ; [debug line = 753:18@1033:31@1033:33@211:9] [debug variable = overflow]
  %tmp_123 = xor i1 %neg_trg_10, true, !dbg !12782 ; [#uses=1 type=i1] [debug line = 754:68@1033:31@1033:33@211:9]
  %tmp_176 = trunc i22 %p_Val2_34 to i20, !dbg !12783 ; [#uses=1 type=i20] [debug line = 757:90@1033:31@1033:33@211:9]
  %tmp_124 = icmp eq i20 %tmp_176, 0, !dbg !12784 ; [#uses=1 type=i1] [debug line = 757:185@1033:31@1033:33@211:9]
  %tmp_125 = or i1 %tmp_124, %tmp_123             ; [#uses=1 type=i1]
  %underflow_6 = and i1 %isneg, %tmp_125          ; [#uses=3 type=i1]
  call void @llvm.dbg.value(metadata !{i1 %underflow_6}, i64 0, metadata !12785) nounwind, !dbg !12786 ; [debug line = 510:57@759:13@1033:31@1033:33@211:9] [debug variable = underflow]
  call void @llvm.dbg.value(metadata !{i1 %underflow_6}, i64 0, metadata !12787) nounwind, !dbg !12788 ; [debug line = 754:18@1033:31@1033:33@211:9] [debug variable = underflow]
  %brmerge_i_i = or i1 %underflow_6, %overflow_8, !dbg !12789 ; [#uses=1 type=i1] [debug line = 515:2@759:13@1033:31@1033:33@211:9]
  %underflow_31_not = xor i1 %underflow_6, true, !dbg !12789 ; [#uses=1 type=i1] [debug line = 515:2@759:13@1033:31@1033:33@211:9]
  %brmerge6 = or i1 %overflow_8, %underflow_31_not, !dbg !12789 ; [#uses=1 type=i1] [debug line = 515:2@759:13@1033:31@1033:33@211:9]
  %p_Val2_44_mux = select i1 %brmerge_i_i, i21 1048575, i21 %p_Val2_35, !dbg !12789 ; [#uses=1 type=i21] [debug line = 515:2@759:13@1033:31@1033:33@211:9]
  %p_Val2_s_41 = select i1 %underflow_6, i21 -1048575, i21 %p_Val2_35, !dbg !12790 ; [#uses=1 type=i21] [debug line = 567:24@759:13@1033:31@1033:33@211:9]
  %x_V = select i1 %brmerge6, i21 %p_Val2_44_mux, i21 %p_Val2_s_41, !dbg !12791 ; [#uses=1 type=i21] [debug line = 988:9@1027:12@211:9]
  call void @llvm.dbg.value(metadata !{i21 %x_V}, i64 0, metadata !12793), !dbg !12791 ; [debug line = 988:9@1027:12@211:9] [debug variable = x.V]
  %OP2_V = sext i21 %x_V to i42, !dbg !12795      ; [#uses=1 type=i42] [debug line = 1295:9@215:13]
  %brmerge = or i1 %tmp_s, %tmp_120, !dbg !12711  ; [#uses=1 type=i1] [debug line = 1081:13@1898:85@189:6]
  br label %_ZN7_ap_sc_7sc_core4waitEi.exit4, !dbg !12799 ; [debug line = 185:90]

_ZN7_ap_sc_7sc_core4waitEi.exit4:                 ; preds = %3, %codeRepl
  %loop_begin = call i32 (...)* @_ssdm_op_SpecLoopBegin() nounwind ; [#uses=0 type=i32]
  call void (...)* @_ssdm_op_Wait(i32 1) nounwind, !dbg !12800 ; [debug line = 187:6]
  %WBSlave_log_start_V_read = call i1 @_ssdm_op_Read.ap_auto.i1P(i1* %WBSlave_log_start_V), !dbg !12802 ; [#uses=2 type=i1] [debug line = 1973:9@3722:144@187:36]
  call void (...)* @_ssdm_op_Poll(i1 %WBSlave_log_start_V_read), !dbg !12805 ; [debug line = 187:55]
  call void (...)* @_ssdm_op_Wait(i32 1) nounwind, !dbg !12806 ; [debug line = 803:19@188:3]
  br i1 %brmerge, label %.preheader, label %_ifconv2, !dbg !12711 ; [debug line = 1081:13@1898:85@189:6]

.preheader:                                       ; preds = %_ZN7_ap_sc_7sc_core4waitEi.exit20, %_ZN7_ap_sc_7sc_core4waitEi.exit4
  %i = phi i6 [ %i_11, %_ZN7_ap_sc_7sc_core4waitEi.exit20 ], [ 0, %_ZN7_ap_sc_7sc_core4waitEi.exit4 ] ; [#uses=3 type=i6]
  %tmp_126 = icmp ult i6 %i, -29, !dbg !12808     ; [#uses=1 type=i1] [debug line = 190:8]
  %i_11 = add i6 %i, 1, !dbg !12809               ; [#uses=2 type=i6] [debug line = 190:21]
  br i1 %tmp_126, label %0, label %.loopexit, !dbg !12808 ; [debug line = 190:8]

; <label>:0                                       ; preds = %.preheader
  %tmp_127 = zext i6 %i to i64, !dbg !12810       ; [#uses=4 type=i64] [debug line = 191:8]
  %inputLUT_V_addr = getelementptr [36 x i13]* @inputLUT_V, i64 0, i64 %tmp_127, !dbg !12811 ; [#uses=1 type=i13*] [debug line = 1882:0@191:8]
  %inputLUT_V_load = load i13* %inputLUT_V_addr, align 2, !dbg !12811 ; [#uses=1 type=i13] [debug line = 1882:0@191:8]
  %inputLUT_V_load_cast = zext i13 %inputLUT_V_load to i21, !dbg !12811 ; [#uses=2 type=i21] [debug line = 1882:0@191:8]
  %tmp_128 = icmp eq i21 %p_Val2_s, %inputLUT_V_load_cast, !dbg !12811 ; [#uses=1 type=i1] [debug line = 1882:0@191:8]
  br i1 %tmp_128, label %_ZN7_ap_sc_7sc_core4waitEi.exit6, label %1, !dbg !12810 ; [debug line = 191:8]

_ZN7_ap_sc_7sc_core4waitEi.exit6:                 ; preds = %0
  call void @llvm.dbg.value(metadata !{i21* %WBSlave_log_out_V}, i64 0, metadata !12814), !dbg !12818 ; [debug line = 1027:12@192:6] [debug variable = ssdm_int<21 + 1024 * 0, true>.V]
  %logLUT_V_addr = getelementptr [36 x i21]* @logLUT_V, i64 0, i64 %tmp_127, !dbg !12819 ; [#uses=1 type=i21*] [debug line = 988:9@1027:12@192:6]
  %logLUT_V_load = load i21* %logLUT_V_addr, align 4, !dbg !12819 ; [#uses=1 type=i21] [debug line = 988:9@1027:12@192:6]
  call void @_ssdm_op_Write.ap_auto.i21P(i21* %WBSlave_log_out_V, i21 %logLUT_V_load), !dbg !12819 ; [debug line = 988:9@1027:12@192:6]
  call void @_ssdm_op_Write.ap_auto.i1P(i1* %WBSlave_log_done_V, i1 true), !dbg !12821 ; [debug line = 378:13@193:26]
  call void (...)* @_ssdm_op_Wait(i32 1) nounwind, !dbg !12823 ; [debug line = 803:19@194:6]
  br label %.loopexit, !dbg !12825                ; [debug line = 195:6]

; <label>:1                                       ; preds = %0
  %tmp_137 = icmp sgt i21 %p_Val2_s, %inputLUT_V_load_cast, !dbg !12826 ; [#uses=1 type=i1] [debug line = 1884:0@197:9]
  br i1 %tmp_137, label %2, label %_ZN7_ap_sc_7sc_core4waitEi.exit20, !dbg !12827 ; [debug line = 197:9]

; <label>:2                                       ; preds = %1
  %tmp_144 = zext i6 %i_11 to i64, !dbg !12828    ; [#uses=1 type=i64] [debug line = 197:33]
  %inputLUT_V_addr_1 = getelementptr [36 x i13]* @inputLUT_V, i64 0, i64 %tmp_144, !dbg !12829 ; [#uses=1 type=i13*] [debug line = 1886:0@197:33]
  %inputLUT_V_load_1 = load i13* %inputLUT_V_addr_1, align 2, !dbg !12829 ; [#uses=1 type=i13] [debug line = 1886:0@197:33]
  %inputLUT_V_load_1_cast = zext i13 %inputLUT_V_load_1 to i21, !dbg !12829 ; [#uses=1 type=i21] [debug line = 1886:0@197:33]
  %tmp_145 = icmp slt i21 %p_Val2_s, %inputLUT_V_load_1_cast, !dbg !12829 ; [#uses=1 type=i1] [debug line = 1886:0@197:33]
  br i1 %tmp_145, label %_ZN7_ap_sc_7sc_core4waitEi.exit12_ifconv, label %_ZN7_ap_sc_7sc_core4waitEi.exit20, !dbg !12828 ; [debug line = 197:33]

_ZN7_ap_sc_7sc_core4waitEi.exit12_ifconv:         ; preds = %2
  %gradientLUT_V_addr = getelementptr [36 x i31]* @gradientLUT_V, i64 0, i64 %tmp_127, !dbg !12832 ; [#uses=1 type=i31*] [debug line = 1293:9@198:16]
  %gradientLUT_V_load = load i31* %gradientLUT_V_addr, align 4, !dbg !12832 ; [#uses=1 type=i31] [debug line = 1293:9@198:16]
  %OP1_V_cast = zext i31 %gradientLUT_V_load to i44, !dbg !12832 ; [#uses=1 type=i44] [debug line = 1293:9@198:16]
  %p_Val2_43 = mul i44 %OP1_V_cast, %OP2_V_cast, !dbg !12833 ; [#uses=4 type=i44] [debug line = 1296:9@198:16]
  call void @llvm.dbg.value(metadata !{i44 %p_Val2_43}, i64 0, metadata !12834) nounwind, !dbg !12849 ; [debug line = 663:0@1033:31@1033:33@198:16] [debug variable = __Val2__]
  %p_Val2_44 = call i21 @_ssdm_op_PartSelect.i21.i44.i32.i32(i44 %p_Val2_43, i32 16, i32 36), !dbg !12850 ; [#uses=1 type=i21] [debug line = 670:17@1033:31@1033:33@198:16]
  call void @llvm.dbg.value(metadata !{i44 %p_Val2_43}, i64 0, metadata !12852) nounwind, !dbg !12855 ; [debug line = 677:0@1033:31@1033:33@198:16] [debug variable = __Val2__]
  %qbit = call i1 @_ssdm_op_BitSelect.i1.i44.i32(i44 %p_Val2_43, i32 15), !dbg !12855 ; [#uses=1 type=i1] [debug line = 677:0@1033:31@1033:33@198:16]
  call void @llvm.dbg.value(metadata !{i1 %qbit}, i64 0, metadata !12856) nounwind, !dbg !12855 ; [debug line = 677:0@1033:31@1033:33@198:16] [debug variable = qbit]
  call void @llvm.dbg.value(metadata !{i1 %qbit}, i64 0, metadata !12857) nounwind, !dbg !12858 ; [debug line = 679:73@1033:31@1033:33@198:16] [debug variable = qb]
  call void @llvm.dbg.value(metadata !{i44 %p_Val2_43}, i64 0, metadata !12859) nounwind, !dbg !12861 ; [debug line = 682:0@1033:31@1033:33@198:16] [debug variable = __Val2__]
  call void @llvm.dbg.value(metadata !{i1 %qbit}, i64 0, metadata !12862) nounwind, !dbg !12864 ; [debug line = 583:61@685:25@1033:31@1033:33@198:16] [debug variable = qb]
  call void @llvm.dbg.value(metadata !{i21 %p_Val2_44}, i64 0, metadata !12865) nounwind, !dbg !12866 ; [debug line = 587:88@685:25@1033:31@1033:33@198:16] [debug variable = __Val2__]
  %tmp_201 = call i1 @_ssdm_op_BitSelect.i1.i44.i32(i44 %p_Val2_43, i32 36), !dbg !12867 ; [#uses=1 type=i1] [debug line = 587:90@685:25@1033:31@1033:33@198:16]
  call void @llvm.dbg.value(metadata !{i21 %p_Val2_44}, i64 0, metadata !12868) nounwind, !dbg !12869 ; [debug line = 597:88@685:25@1033:31@1033:33@198:16] [debug variable = __Val2__]
  %tmp_147 = zext i1 %qbit to i21, !dbg !12870    ; [#uses=1 type=i21] [debug line = 600:9@685:25@1033:31@1033:33@198:16]
  %p_Val2_45 = add i21 %p_Val2_44, %tmp_147, !dbg !12870 ; [#uses=2 type=i21] [debug line = 600:9@685:25@1033:31@1033:33@198:16]
  %tmp_202 = trunc i21 %p_Val2_45 to i20, !dbg !12871 ; [#uses=1 type=i20] [debug line = 602:100@685:25@1033:31@1033:33@198:16]
  call void @llvm.dbg.value(metadata !{i21 %p_Val2_45}, i64 0, metadata !12872) nounwind, !dbg !12871 ; [debug line = 602:100@685:25@1033:31@1033:33@198:16] [debug variable = __Val2__]
  %newsignbit = call i1 @_ssdm_op_BitSelect.i1.i21.i32(i21 %p_Val2_45, i32 20), !dbg !12873 ; [#uses=2 type=i1] [debug line = 602:102@685:25@1033:31@1033:33@198:16]
  %tmp_148 = xor i1 %newsignbit, true, !dbg !12874 ; [#uses=1 type=i1] [debug line = 602:213@685:25@1033:31@1033:33@198:16]
  %carry = and i1 %tmp_201, %tmp_148, !dbg !12863 ; [#uses=1 type=i1] [debug line = 685:25@1033:31@1033:33@198:16]
  call void @llvm.dbg.value(metadata !{i1 %carry}, i64 0, metadata !12875) nounwind, !dbg !12863 ; [debug line = 685:25@1033:31@1033:33@198:16] [debug variable = carry]
  call void @llvm.dbg.value(metadata !{i21 %p_Val2_45}, i64 0, metadata !12876) nounwind, !dbg !12879 ; [debug line = 705:100@1033:31@1033:33@198:16] [debug variable = __Val2__]
  call void @llvm.dbg.value(metadata !{i1 %newsignbit}, i64 0, metadata !12880) nounwind, !dbg !12881 ; [debug line = 705:213@1033:31@1033:33@198:16] [debug variable = newsignbit]
  call void @llvm.dbg.value(metadata !{i44 %p_Val2_43}, i64 0, metadata !12882) nounwind, !dbg !12884 ; [debug line = 709:0@1033:31@1033:33@198:16] [debug variable = __Val2__]
  call void @llvm.dbg.value(metadata !{i44 %p_Val2_43}, i64 0, metadata !12885) nounwind, !dbg !12889 ; [debug line = 723:0@1033:31@1033:33@198:16] [debug variable = __Val2__]
  call void @llvm.dbg.value(metadata !{i44 %p_Val2_43}, i64 0, metadata !12890) nounwind, !dbg !12893 ; [debug line = 731:0@1033:31@1033:33@198:16] [debug variable = __Val2__]
  %tmp_154 = call i7 @_ssdm_op_PartSelect.i7.i44.i32.i32(i44 %p_Val2_43, i32 37, i32 43), !dbg !12893 ; [#uses=1 type=i7] [debug line = 731:0@1033:31@1033:33@198:16]
  call void @llvm.dbg.value(metadata !{i1 %newsignbit}, i64 0, metadata !12894) nounwind, !dbg !12895 ; [debug line = 752:47@1033:31@1033:33@198:16] [debug variable = neg_trg]
  %Range1_all_zeros_not = icmp ne i7 %tmp_154, 0, !dbg !12896 ; [#uses=1 type=i1] [debug line = 753:66@1033:31@1033:33@198:16]
  %tmp8 = or i1 %Range1_all_zeros_not, %newsignbit, !dbg !12896 ; [#uses=1 type=i1] [debug line = 753:66@1033:31@1033:33@198:16]
  %overflow = or i1 %tmp8, %carry, !dbg !12896    ; [#uses=1 type=i1] [debug line = 753:66@1033:31@1033:33@198:16]
  call void @llvm.dbg.value(metadata !{i1 %overflow}, i64 0, metadata !12897) nounwind, !dbg !12898 ; [debug line = 753:18@1033:31@1033:33@198:16] [debug variable = overflow]
  call void @llvm.dbg.value(metadata !{i1 %overflow}, i64 0, metadata !12899) nounwind, !dbg !12901 ; [debug line = 510:73@759:13@1033:31@1033:33@198:16] [debug variable = overflow]
  %p_Val2_46 = select i1 %overflow, i20 -1, i20 %tmp_202, !dbg !12902 ; [#uses=1 type=i20] [debug line = 515:2@759:13@1033:31@1033:33@198:16]
  %p_Val2_68_cast = zext i20 %p_Val2_46 to i21, !dbg !12902 ; [#uses=1 type=i21] [debug line = 515:2@759:13@1033:31@1033:33@198:16]
  call void @llvm.dbg.value(metadata !{i21* %WBSlave_log_out_V}, i64 0, metadata !12903), !dbg !12905 ; [debug line = 1027:12@198:16] [debug variable = ssdm_int<21 + 1024 * 0, true>.V]
  call void (...)* @_ssdm_op_Wait(i32 1) nounwind, !dbg !12906 ; [debug line = 803:19@199:6]
  call void @llvm.dbg.value(metadata !{i20 %p_Val2_46}, i64 0, metadata !12908) nounwind, !dbg !12913 ; [debug line = 663:0@761:5@1329:0@1347:243@200:6] [debug variable = __Val2__]
  %offsetLUT_V_addr = getelementptr [36 x i21]* @offsetLUT_V, i64 0, i64 %tmp_127, !dbg !12913 ; [#uses=1 type=i21*] [debug line = 663:0@761:5@1329:0@1347:243@200:6]
  %p_Val2_47 = load i21* %offsetLUT_V_addr, align 4, !dbg !12913 ; [#uses=1 type=i21] [debug line = 663:0@761:5@1329:0@1347:243@200:6]
  call void @llvm.dbg.value(metadata !{i21 %p_Val2_47}, i64 0, metadata !12908) nounwind, !dbg !12913 ; [debug line = 663:0@761:5@1329:0@1347:243@200:6] [debug variable = __Val2__]
  %p_Val2_48 = add i21 %p_Val2_47, %p_Val2_68_cast, !dbg !12910 ; [#uses=3 type=i21] [debug line = 1329:0@1347:243@200:6]
  call void @llvm.dbg.value(metadata !{i21 %p_Val2_48}, i64 0, metadata !12914) nounwind, !dbg !12916 ; [debug line = 663:0@761:5@1347:243@200:6] [debug variable = __Val2__]
  %isneg_6 = call i1 @_ssdm_op_BitSelect.i1.i21.i32(i21 %p_Val2_48, i32 20), !dbg !12916 ; [#uses=1 type=i1] [debug line = 663:0@761:5@1347:243@200:6]
  call void @llvm.dbg.value(metadata !{i1 %isneg_6}, i64 0, metadata !12917) nounwind, !dbg !12918 ; [debug line = 665:14@761:5@1347:243@200:6] [debug variable = isneg]
  call void @llvm.dbg.value(metadata !{i1 %isneg_6}, i64 0, metadata !12919) nounwind, !dbg !12920 ; [debug line = 702:33@761:5@1347:243@200:6] [debug variable = neg_src]
  call void @llvm.dbg.value(metadata !{i21 %p_Val2_48}, i64 0, metadata !12921) nounwind, !dbg !12922 ; [debug line = 705:100@761:5@1347:243@200:6] [debug variable = __Val2__]
  call void @llvm.dbg.value(metadata !{i1 %isneg_6}, i64 0, metadata !12923) nounwind, !dbg !12924 ; [debug line = 705:213@761:5@1347:243@200:6] [debug variable = newsignbit]
  call void @llvm.dbg.value(metadata !{i21 %p_Val2_48}, i64 0, metadata !12925) nounwind, !dbg !12926 ; [debug line = 709:0@761:5@1347:243@200:6] [debug variable = __Val2__]
  call void @llvm.dbg.value(metadata !{i1 %isneg_6}, i64 0, metadata !12927) nounwind, !dbg !12926 ; [debug line = 709:0@761:5@1347:243@200:6] [debug variable = lD]
  call void @llvm.dbg.value(metadata !{i1 %isneg_6}, i64 0, metadata !12928) nounwind, !dbg !12929 ; [debug line = 738:21@761:5@1347:243@200:6] [debug variable = Range1_all_ones]
  call void @llvm.dbg.value(metadata !{i1 %isneg_6}, i64 0, metadata !12930) nounwind, !dbg !12931 ; [debug line = 701:18@761:5@1347:243@200:6] [debug variable = deleted_ones]
  call void @llvm.dbg.value(metadata !{i1 %isneg_6}, i64 0, metadata !12932) nounwind, !dbg !12933 ; [debug line = 752:47@761:5@1347:243@200:6] [debug variable = neg_trg]
  call void @llvm.dbg.value(metadata !{i21 %p_Val2_48}, i64 0, metadata !12934) nounwind, !dbg !12935 ; [debug line = 757:88@761:5@1347:243@200:6] [debug variable = __Val2__]
  %tmp_205 = trunc i21 %p_Val2_48 to i20, !dbg !12936 ; [#uses=1 type=i20] [debug line = 757:90@761:5@1347:243@200:6]
  %tmp_155 = icmp eq i20 %tmp_205, 0, !dbg !12937 ; [#uses=1 type=i1] [debug line = 757:185@761:5@1347:243@200:6]
  %underflow = and i1 %isneg_6, %tmp_155          ; [#uses=1 type=i1]
  call void @llvm.dbg.value(metadata !{i1 %underflow}, i64 0, metadata !12938) nounwind, !dbg !12939 ; [debug line = 754:18@761:5@1347:243@200:6] [debug variable = underflow]
  call void @llvm.dbg.value(metadata !{i1 %underflow}, i64 0, metadata !12940) nounwind, !dbg !12942 ; [debug line = 510:57@759:13@761:5@1347:243@200:6] [debug variable = underflow]
  call void @llvm.dbg.value(metadata !{i1 %isneg_6}, i64 0, metadata !12943) nounwind, !dbg !12944 ; [debug line = 510:87@759:13@761:5@1347:243@200:6] [debug variable = lD]
  call void @llvm.dbg.value(metadata !{i1 %isneg_6}, i64 0, metadata !12945) nounwind, !dbg !12946 ; [debug line = 510:96@759:13@761:5@1347:243@200:6] [debug variable = sign]
  %this_assign_1 = select i1 %underflow, i21 -1048575, i21 %p_Val2_48 ; [#uses=1 type=i21]
  call void @_ssdm_op_Write.ap_auto.i21P(i21* %WBSlave_log_out_V, i21 %this_assign_1), !dbg !12947 ; [debug line = 988:9@1347:243@200:6]
  call void (...)* @_ssdm_op_Wait(i32 1) nounwind, !dbg !12948 ; [debug line = 803:19@201:6]
  call void @_ssdm_op_Write.ap_auto.i1P(i1* %WBSlave_log_done_V, i1 true), !dbg !12950 ; [debug line = 378:13@202:20]
  call void (...)* @_ssdm_op_Wait(i32 1) nounwind, !dbg !12952 ; [debug line = 803:19@203:6]
  br label %.loopexit, !dbg !12954                ; [debug line = 204:6]

_ZN7_ap_sc_7sc_core4waitEi.exit20:                ; preds = %2, %1
  call void (...)* @_ssdm_op_Wait(i32 1) nounwind, !dbg !12955 ; [debug line = 803:19@206:5]
  call void @llvm.dbg.value(metadata !{i6 %i_11}, i64 0, metadata !12957), !dbg !12809 ; [debug line = 190:21] [debug variable = i]
  br label %.preheader, !dbg !12809               ; [debug line = 190:21]

.loopexit:                                        ; preds = %_ZN7_ap_sc_7sc_core4waitEi.exit12_ifconv, %_ZN7_ap_sc_7sc_core4waitEi.exit6, %.preheader
  br label %3, !dbg !12958                        ; [debug line = 208:3]

_ifconv2:                                         ; preds = %_ZN7_ap_sc_7sc_core4waitEi.exit2, %_ZN7_ap_sc_7sc_core4waitEi.exit4
  %p_Val2_36 = phi i21 [ %sum_V, %_ZN7_ap_sc_7sc_core4waitEi.exit2 ], [ 0, %_ZN7_ap_sc_7sc_core4waitEi.exit4 ] ; [#uses=2 type=i21]
  %power = phi i21 [ %power_V, %_ZN7_ap_sc_7sc_core4waitEi.exit2 ], [ 65536, %_ZN7_ap_sc_7sc_core4waitEi.exit4 ] ; [#uses=1 type=i21]
  %i_op_assign = phi i5 [ %i_12, %_ZN7_ap_sc_7sc_core4waitEi.exit2 ], [ 1, %_ZN7_ap_sc_7sc_core4waitEi.exit4 ] ; [#uses=4 type=i5]
  %exitcond = icmp eq i5 %i_op_assign, -15, !dbg !12959 ; [#uses=1 type=i1] [debug line = 214:9]
  %empty_42 = call i32 (...)* @_ssdm_op_SpecLoopTripCount(i64 16, i64 16, i64 16) ; [#uses=0 type=i32]
  br i1 %exitcond, label %_ZN7_ap_sc_7sc_core4waitEi.exit, label %_ZN7_ap_sc_7sc_core4waitEi.exit24_ifconv, !dbg !12959 ; [debug line = 214:9]

_ZN7_ap_sc_7sc_core4waitEi.exit24_ifconv:         ; preds = %_ifconv2
  %OP1_V = sext i21 %power to i42, !dbg !12960    ; [#uses=1 type=i42] [debug line = 1293:9@215:13]
  call void @llvm.dbg.value(metadata !{i42 %OP1_V}, i64 0, metadata !11417), !dbg !12960 ; [debug line = 1293:9@215:13] [debug variable = OP1.V]
  call void @llvm.dbg.value(metadata !{i42 %OP2_V}, i64 0, metadata !11638), !dbg !12795 ; [debug line = 1295:9@215:13] [debug variable = OP2.V]
  %p_Val2_13 = mul nsw i42 %OP2_V, %OP1_V, !dbg !12961 ; [#uses=9 type=i42] [debug line = 1296:9@215:13]
  call void @llvm.dbg.value(metadata !{i42 %p_Val2_13}, i64 0, metadata !12962) nounwind, !dbg !12977 ; [debug line = 663:0@1033:31@1033:33@215:13] [debug variable = __Val2__]
  %signbit = call i1 @_ssdm_op_BitSelect.i1.i42.i32(i42 %p_Val2_13, i32 41), !dbg !12977 ; [#uses=2 type=i1] [debug line = 663:0@1033:31@1033:33@215:13]
  call void @llvm.dbg.value(metadata !{i1 %signbit}, i64 0, metadata !12978) nounwind, !dbg !12977 ; [debug line = 663:0@1033:31@1033:33@215:13] [debug variable = signbit]
