; ModuleID = '/home/myousaf/Soc_Project/fixedpoint/solution1/.autopilot/db/a.o.2.bc'
target datalayout = "e-p:64:64:64-i1:8:8-i8:8:8-i16:16:16-i32:32:32-i64:64:64-f32:32:32-f64:64:64-v64:64:64-v128:128:128-a0:0:64-s0:64:64-f80:128:128-n8:16:32:64-S128"
target triple = "x86_64-unknown-linux-gnu"

@.str8 = private unnamed_addr constant [8 x i8] c"WBSlave\00", align 1 ; [#uses=52 type=[8 x i8]*]
@"WBSlave::__ssdm_thread_M_processBus" = external global i1 ; [#uses=1 type=i1*]
@.str9 = private unnamed_addr constant [11 x i8] c"processBus\00", align 1 ; [#uses=4 type=[11 x i8]*]
@.str10 = private unnamed_addr constant [4 x i8] c"clk\00", align 1 ; [#uses=7 type=[4 x i8]*]
@.str11 = private unnamed_addr constant [6 x i8] c"reset\00", align 1 ; [#uses=7 type=[6 x i8]*]
@"WBSlave::__ssdm_thread_M_processSlave" = external global i1 ; [#uses=1 type=i1*]
@.str12 = private unnamed_addr constant [13 x i8] c"processSlave\00", align 1 ; [#uses=4 type=[13 x i8]*]
@"WBSlave::__ssdm_thread_M_getLog" = external global i1 ; [#uses=1 type=i1*]
@.str13 = private unnamed_addr constant [7 x i8] c"getLog\00", align 1 ; [#uses=4 type=[7 x i8]*]
@.str14 = private unnamed_addr constant [7 x i8] c"\22bool\22\00", align 1 ; [#uses=28 type=[7 x i8]*]
@.str15 = private unnamed_addr constant [8 x i8] c"\22WBInt\22\00", align 1 ; [#uses=12 type=[8 x i8]*]
@.str16 = private unnamed_addr constant [6 x i8] c"adr_i\00", align 1 ; [#uses=4 type=[6 x i8]*]
@.str17 = private unnamed_addr constant [6 x i8] c"dat_i\00", align 1 ; [#uses=4 type=[6 x i8]*]
@.str18 = private unnamed_addr constant [5 x i8] c"we_i\00", align 1 ; [#uses=4 type=[5 x i8]*]
@.str19 = private unnamed_addr constant [6 x i8] c"stb_i\00", align 1 ; [#uses=4 type=[6 x i8]*]
@.str20 = private unnamed_addr constant [6 x i8] c"cyc_i\00", align 1 ; [#uses=4 type=[6 x i8]*]
@.str21 = private unnamed_addr constant [31 x i8] c"\22sc_uint<WBParameters::BYTES>\22\00", align 1 ; [#uses=4 type=[31 x i8]*]
@.str22 = private unnamed_addr constant [6 x i8] c"sel_i\00", align 1 ; [#uses=4 type=[6 x i8]*]
@.str23 = private unnamed_addr constant [6 x i8] c"dat_o\00", align 1 ; [#uses=4 type=[6 x i8]*]
@.str24 = private unnamed_addr constant [6 x i8] c"ack_o\00", align 1 ; [#uses=4 type=[6 x i8]*]
@.str25 = private unnamed_addr constant [6 x i8] c"int_o\00", align 1 ; [#uses=4 type=[6 x i8]*]
@.str42 = private unnamed_addr constant [15 x i8] c"__ssdm_reset__\00", align 1 ; [#uses=6 type=[15 x i8]*]
@.str43 = private unnamed_addr constant [1 x i8] zeroinitializer, align 1 ; [#uses=3 type=[1 x i8]*]
@offsetLUT.V = internal unnamed_addr constant [36 x i21] [i21 -772244, i21 -726817, i21 -681391, i21 -654819, i21 -635965, i21 -609393, i21 -590539, i21 -563967, i21 -545113, i21 -518541, i21 -499687, i21 -473115, i21 -454261, i21 -440808, i21 -427688, i21 -420059, i21 -408835, i21 -399562, i21 -382262, i21 -380708, i21 -363409, i21 -354135, i21 -336836, i21 -331931, i21 -317983, i21 -306100, i21 -291410, i21 -283395, i21 -272557, i21 -256378, i21 -245984, i21 -241754, i21 -230452, i21 -217522, i21 -193700, i21 -190040] ; [#uses=1 type=[36 x i21]*]
@logLUT.V = internal unnamed_addr constant [36 x i21] [i21 -726817, i21 -681391, i21 -635965, i21 -609393, i21 -590539, i21 -563967, i21 -545113, i21 -518541, i21 -499687, i21 -473115, i21 -454261, i21 -427689, i21 -408835, i21 -392657, i21 -382262, i21 -370606, i21 -363409, i21 -354135, i21 -336836, i21 -335282, i21 -317983, i21 -308709, i21 -291410, i21 -289856, i21 -272557, i21 -263283, i21 -245984, i21 -235508, i21 -227130, i21 -210952, i21 -200558, i21 -196328, i21 -181704, i21 -165526, i21 -155132, i21 -150902] ; [#uses=1 type=[36 x i21]*]
@ssdm_ins_WBSlave_0_0.clk.m_if.Val = global i1 false ; [#uses=0 type=i1*]
@ssdm_ins_WBSlave_0_0.reset.m_if.Val = global i1 false ; [#uses=0 type=i1*]
@ssdm_ins_WBSlave_0_0.adr_i.m_if.Val.V = global i32 0 ; [#uses=0 type=i32*]
@ssdm_ins_WBSlave_0_0.dat_i.m_if.Val.V = global i32 0 ; [#uses=0 type=i32*]
@ssdm_ins_WBSlave_0_0.we_i.m_if.Val = global i1 false ; [#uses=0 type=i1*]
@ssdm_ins_WBSlave_0_0.stb_i.m_if.Val = global i1 false ; [#uses=0 type=i1*]
@ssdm_ins_WBSlave_0_0.cyc_i.m_if.Val = global i1 false ; [#uses=0 type=i1*]
@ssdm_ins_WBSlave_0_0.sel_i.m_if.Val.V = global i4 0 ; [#uses=0 type=i4*]
@ssdm_ins_WBSlave_0_0.dat_o.m_if.Val.V = global i32 0 ; [#uses=0 type=i32*]
@ssdm_ins_WBSlave_0_0.ack_o.m_if.Val = global i1 false ; [#uses=0 type=i1*]
@ssdm_ins_WBSlave_0_0.int_o.m_if.Val = global i1 false ; [#uses=0 type=i1*]
@ssdm_ins_WBSlave_0_0.regs = global [16 x i32] zeroinitializer ; [#uses=0 type=[16 x i32]*]
@ssdm_ins_WBSlave_0_0.PBuffer = global [500 x i32] zeroinitializer ; [#uses=0 type=[500 x i32]*]
@ssdm_ins_WBSlave_0_0.CTRL_ADDR.V = global i3 0   ; [#uses=0 type=i3*]
@ssdm_ins_WBSlave_0_0.STAT_ADDR.V = global i3 1   ; [#uses=0 type=i3*]
@ssdm_ins_WBSlave_0_0.log_in.V = global i21 0     ; [#uses=0 type=i21*]
@ssdm_ins_WBSlave_0_0.log_out.V = global i21 0    ; [#uses=0 type=i21*]
@ssdm_ins_WBSlave_0_0.log_start.V = global i1 false ; [#uses=0 type=i1*]
@ssdm_ins_WBSlave_0_0.log_done.V = global i1 false ; [#uses=0 type=i1*]
@ssdm_ins_WBSlave_0_0.REG0_ADDR.V = global i3 2   ; [#uses=0 type=i3*]
@ssdm_ins_WBSlave_0_0.REG1_ADDR.V = global i3 3   ; [#uses=0 type=i3*]
@ssdm_ins_WBSlave_0_0.REG2_ADDR.V = global i3 -4  ; [#uses=0 type=i3*]
@ssdm_ins_WBSlave_0_0.REG3_ADDR.V = global i3 -3  ; [#uses=0 type=i3*]
@ssdm_ins_WBSlave_0_0.REG4_ADDR.V = global i3 -2  ; [#uses=0 type=i3*]
@ssdm_ins_WBSlave_0_0.DELAY_ADDR.V = global i3 -1 ; [#uses=0 type=i3*]
@ssdm_ins_WBSlave_0_0.LAST_ADDR.V = global i3 -1  ; [#uses=0 type=i3*]
@llvm.global_ctors.0 = appending global [1 x i32] [i32 65535] ; [#uses=0 type=[1 x i32]*]
@llvm.global_ctors.1 = appending global [1 x void ()*] [void ()* @_GLOBAL__I_a] ; [#uses=0 type=[1 x void ()*]*]
@inputLUT.V = internal unnamed_addr constant [36 x i13] [i13 1, i13 2, i13 4, i13 6, i13 8, i13 12, i13 16, i13 24, i13 32, i13 48, i13 64, i13 96, i13 128, i13 164, i13 192, i13 229, i13 256, i13 295, i13 384, i13 393, i13 512, i13 590, i13 768, i13 786, i13 1024, i13 1180, i13 1536, i13 1802, i13 2048, i13 2621, i13 3072, i13 3277, i13 -4096, i13 -2949, i13 -2048, i13 -1638] ; [#uses=2 type=[36 x i13]*]
@gradientLUT.V = internal unnamed_addr constant [36 x i31] [i31 -1, i31 -658961381, i31 744261133, i31 496174089, i31 372130567, i31 248087044, i31 186065547, i31 124043639, i31 93032878, i31 62021895, i31 46516306, i31 31010900, i31 23258134, i31 19260593, i31 15505427, i31 14129470, i31 11629080, i31 10094687, i31 7752717, i31 7571016, i31 5814540, i31 5047344, i31 3876360, i31 3506300, i31 2907270, i31 2378682, i31 1938180, i31 1741326, i31 1453635, i31 1135652, i31 969090, i31 908522, i31 779966, i31 649953, i31 411390, i31 391377] ; [#uses=1 type=[36 x i31]*]

; [#uses=0]
define void @"WBSlave::WBSlave"(i1* %WBSlave.clk.m_if.Val, i1* %WBSlave.reset.m_if.Val, i32* %WBSlave.adr_i.m_if.Val.V, i32* %WBSlave.dat_i.m_if.Val.V, i1* %WBSlave.we_i.m_if.Val, i1* %WBSlave.stb_i.m_if.Val, i1* %WBSlave.cyc_i.m_if.Val, i4* %WBSlave.sel_i.m_if.Val.V, i32* %WBSlave.dat_o.m_if.Val.V, i1* %WBSlave.ack_o.m_if.Val, i1* %WBSlave.int_o.m_if.Val, [16 x i32]* %WBSlave.regs, [500 x i32]* %WBSlave.PBuffer, i3* %WBSlave.CTRL_ADDR.V, i3* %WBSlave.STAT_ADDR.V, i21* %WBSlave.log_in.V, i21* %WBSlave.log_out.V, i1* %WBSlave.log_start.V, i1* %WBSlave.log_done.V, i3* %WBSlave.REG0_ADDR.V, i3* %WBSlave.REG1_ADDR.V, i3* %WBSlave.REG2_ADDR.V, i3* %WBSlave.REG3_ADDR.V, i3* %WBSlave.REG4_ADDR.V, i3* %WBSlave.DELAY_ADDR.V, i3* %WBSlave.LAST_ADDR.V) {
  call void (...)* @_ssdm_op_SpecBitsMap(i1* %WBSlave.clk.m_if.Val), !map !15766
  call void (...)* @_ssdm_op_SpecBitsMap(i1* %WBSlave.reset.m_if.Val), !map !15770
  call void (...)* @_ssdm_op_SpecBitsMap(i32* %WBSlave.adr_i.m_if.Val.V), !map !15774
  call void (...)* @_ssdm_op_SpecBitsMap(i32* %WBSlave.dat_i.m_if.Val.V), !map !15778
  call void (...)* @_ssdm_op_SpecBitsMap(i1* %WBSlave.we_i.m_if.Val), !map !15782
  call void (...)* @_ssdm_op_SpecBitsMap(i1* %WBSlave.stb_i.m_if.Val), !map !15786
  call void (...)* @_ssdm_op_SpecBitsMap(i1* %WBSlave.cyc_i.m_if.Val), !map !15790
  call void (...)* @_ssdm_op_SpecBitsMap(i4* %WBSlave.sel_i.m_if.Val.V), !map !15794
  call void (...)* @_ssdm_op_SpecBitsMap(i32* %WBSlave.dat_o.m_if.Val.V), !map !15798
  call void (...)* @_ssdm_op_SpecBitsMap(i1* %WBSlave.ack_o.m_if.Val), !map !15802
  call void (...)* @_ssdm_op_SpecBitsMap(i1* %WBSlave.int_o.m_if.Val), !map !15806
  call void (...)* @_ssdm_op_SpecBitsMap([16 x i32]* %WBSlave.regs), !map !15810
  call void (...)* @_ssdm_op_SpecBitsMap([500 x i32]* %WBSlave.PBuffer), !map !15814
  call void (...)* @_ssdm_op_SpecBitsMap(i3* %WBSlave.CTRL_ADDR.V), !map !15818
  call void (...)* @_ssdm_op_SpecBitsMap(i3* %WBSlave.STAT_ADDR.V), !map !15822
  call void (...)* @_ssdm_op_SpecBitsMap(i21* %WBSlave.log_in.V), !map !15826
  call void (...)* @_ssdm_op_SpecBitsMap(i21* %WBSlave.log_out.V), !map !15830
  call void (...)* @_ssdm_op_SpecBitsMap(i1* %WBSlave.log_start.V), !map !15834
  call void (...)* @_ssdm_op_SpecBitsMap(i1* %WBSlave.log_done.V), !map !15838
  call void (...)* @_ssdm_op_SpecBitsMap(i3* %WBSlave.REG0_ADDR.V), !map !15842
  call void (...)* @_ssdm_op_SpecBitsMap(i3* %WBSlave.REG1_ADDR.V), !map !15846
  call void (...)* @_ssdm_op_SpecBitsMap(i3* %WBSlave.REG2_ADDR.V), !map !15850
  call void (...)* @_ssdm_op_SpecBitsMap(i3* %WBSlave.REG3_ADDR.V), !map !15854
  call void (...)* @_ssdm_op_SpecBitsMap(i3* %WBSlave.REG4_ADDR.V), !map !15858
  call void (...)* @_ssdm_op_SpecBitsMap(i3* %WBSlave.DELAY_ADDR.V), !map !15862
  call void (...)* @_ssdm_op_SpecBitsMap(i3* %WBSlave.LAST_ADDR.V), !map !15866
  call void @llvm.dbg.value(metadata !{i1* %WBSlave.clk.m_if.Val}, i64 0, metadata !15870), !dbg !15875 ; [debug line = 6:10] [debug variable = WBSlave.clk.m_if.Val]
  call void @llvm.dbg.value(metadata !{i1* %WBSlave.reset.m_if.Val}, i64 0, metadata !15876), !dbg !15875 ; [debug line = 6:10] [debug variable = WBSlave.reset.m_if.Val]
  call void @llvm.dbg.value(metadata !{i32* %WBSlave.adr_i.m_if.Val.V}, i64 0, metadata !15877), !dbg !15875 ; [debug line = 6:10] [debug variable = WBSlave.adr_i.m_if.Val.V]
  call void @llvm.dbg.value(metadata !{i32* %WBSlave.dat_i.m_if.Val.V}, i64 0, metadata !15879), !dbg !15875 ; [debug line = 6:10] [debug variable = WBSlave.dat_i.m_if.Val.V]
  call void @llvm.dbg.value(metadata !{i1* %WBSlave.we_i.m_if.Val}, i64 0, metadata !15880), !dbg !15875 ; [debug line = 6:10] [debug variable = WBSlave.we_i.m_if.Val]
  call void @llvm.dbg.value(metadata !{i1* %WBSlave.stb_i.m_if.Val}, i64 0, metadata !15881), !dbg !15875 ; [debug line = 6:10] [debug variable = WBSlave.stb_i.m_if.Val]
  call void @llvm.dbg.value(metadata !{i1* %WBSlave.cyc_i.m_if.Val}, i64 0, metadata !15882), !dbg !15875 ; [debug line = 6:10] [debug variable = WBSlave.cyc_i.m_if.Val]
  call void @llvm.dbg.value(metadata !{i4* %WBSlave.sel_i.m_if.Val.V}, i64 0, metadata !15883), !dbg !15875 ; [debug line = 6:10] [debug variable = WBSlave.sel_i.m_if.Val.V]
  call void @llvm.dbg.value(metadata !{i32* %WBSlave.dat_o.m_if.Val.V}, i64 0, metadata !15885), !dbg !15875 ; [debug line = 6:10] [debug variable = WBSlave.dat_o.m_if.Val.V]
  call void @llvm.dbg.value(metadata !{i1* %WBSlave.ack_o.m_if.Val}, i64 0, metadata !15887), !dbg !15875 ; [debug line = 6:10] [debug variable = WBSlave.ack_o.m_if.Val]
  call void @llvm.dbg.value(metadata !{i1* %WBSlave.int_o.m_if.Val}, i64 0, metadata !15889), !dbg !15875 ; [debug line = 6:10] [debug variable = WBSlave.int_o.m_if.Val]
  call void @llvm.dbg.value(metadata !{[16 x i32]* %WBSlave.regs}, i64 0, metadata !15890), !dbg !15875 ; [debug line = 6:10] [debug variable = WBSlave.regs]
  call void @llvm.dbg.value(metadata !{[500 x i32]* %WBSlave.PBuffer}, i64 0, metadata !15892), !dbg !15875 ; [debug line = 6:10] [debug variable = WBSlave.PBuffer]
  call void @llvm.dbg.value(metadata !{i3* %WBSlave.CTRL_ADDR.V}, i64 0, metadata !15894), !dbg !15875 ; [debug line = 6:10] [debug variable = WBSlave.CTRL_ADDR.V]
  call void @llvm.dbg.value(metadata !{i3* %WBSlave.STAT_ADDR.V}, i64 0, metadata !15896), !dbg !15875 ; [debug line = 6:10] [debug variable = WBSlave.STAT_ADDR.V]
  call void @llvm.dbg.value(metadata !{i21* %WBSlave.log_in.V}, i64 0, metadata !15897), !dbg !15875 ; [debug line = 6:10] [debug variable = WBSlave.log_in.V]
  call void @llvm.dbg.value(metadata !{i21* %WBSlave.log_out.V}, i64 0, metadata !15899), !dbg !15875 ; [debug line = 6:10] [debug variable = WBSlave.log_out.V]
  call void @llvm.dbg.value(metadata !{i1* %WBSlave.log_start.V}, i64 0, metadata !15900), !dbg !15875 ; [debug line = 6:10] [debug variable = WBSlave.log_start.V]
  call void @llvm.dbg.value(metadata !{i1* %WBSlave.log_done.V}, i64 0, metadata !15902), !dbg !15875 ; [debug line = 6:10] [debug variable = WBSlave.log_done.V]
  call void @llvm.dbg.value(metadata !{i3* %WBSlave.REG0_ADDR.V}, i64 0, metadata !15903), !dbg !15875 ; [debug line = 6:10] [debug variable = WBSlave.REG0_ADDR.V]
  call void @llvm.dbg.value(metadata !{i3* %WBSlave.REG1_ADDR.V}, i64 0, metadata !15904), !dbg !15875 ; [debug line = 6:10] [debug variable = WBSlave.REG1_ADDR.V]
  call void @llvm.dbg.value(metadata !{i3* %WBSlave.REG2_ADDR.V}, i64 0, metadata !15905), !dbg !15875 ; [debug line = 6:10] [debug variable = WBSlave.REG2_ADDR.V]
  call void @llvm.dbg.value(metadata !{i3* %WBSlave.REG3_ADDR.V}, i64 0, metadata !15906), !dbg !15875 ; [debug line = 6:10] [debug variable = WBSlave.REG3_ADDR.V]
  call void @llvm.dbg.value(metadata !{i3* %WBSlave.REG4_ADDR.V}, i64 0, metadata !15907), !dbg !15875 ; [debug line = 6:10] [debug variable = WBSlave.REG4_ADDR.V]
  call void @llvm.dbg.value(metadata !{i3* %WBSlave.DELAY_ADDR.V}, i64 0, metadata !15908), !dbg !15875 ; [debug line = 6:10] [debug variable = WBSlave.DELAY_ADDR.V]
  call void @llvm.dbg.value(metadata !{i3* %WBSlave.LAST_ADDR.V}, i64 0, metadata !15909), !dbg !15875 ; [debug line = 6:10] [debug variable = WBSlave.LAST_ADDR.V]
  store i3 0, i3* %WBSlave.CTRL_ADDR.V, align 1, !dbg !15910 ; [debug line = 1501:9@350:92@350:94@16:2]
  store i3 1, i3* %WBSlave.STAT_ADDR.V, align 1, !dbg !15910 ; [debug line = 1501:9@350:92@350:94@16:2]
  store i3 2, i3* %WBSlave.REG0_ADDR.V, align 1, !dbg !15910 ; [debug line = 1501:9@350:92@350:94@16:2]
  store i3 3, i3* %WBSlave.REG1_ADDR.V, align 1, !dbg !15910 ; [debug line = 1501:9@350:92@350:94@16:2]
  store i3 -4, i3* %WBSlave.REG2_ADDR.V, align 1, !dbg !15910 ; [debug line = 1501:9@350:92@350:94@16:2]
  store i3 -3, i3* %WBSlave.REG3_ADDR.V, align 1, !dbg !15910 ; [debug line = 1501:9@350:92@350:94@16:2]
  store i3 -2, i3* %WBSlave.REG4_ADDR.V, align 1, !dbg !15910 ; [debug line = 1501:9@350:92@350:94@16:2]
  store i3 -1, i3* %WBSlave.DELAY_ADDR.V, align 1, !dbg !15910 ; [debug line = 1501:9@350:92@350:94@16:2]
  store i3 -1, i3* %WBSlave.LAST_ADDR.V, align 1, !dbg !15910 ; [debug line = 1501:9@350:92@350:94@16:2]
  call void (...)* @_ssdm_op_SpecTopModule([8 x i8]* @.str8, [8 x i8]* @.str8) nounwind, !dbg !15918 ; [debug line = 17:3]
  %"WBSlave::__ssdm_thread_M_processBus.load" = load i1* @"WBSlave::__ssdm_thread_M_processBus", align 1, !dbg !15920 ; [#uses=1 type=i1] [debug line = 18:3]
  br i1 %"WBSlave::__ssdm_thread_M_processBus.load", label %1, label %2, !dbg !15920 ; [debug line = 18:3]

; <label>:1                                       ; preds = %0
  call void @"WBSlave::processBus"(i1* %WBSlave.clk.m_if.Val, i1* %WBSlave.reset.m_if.Val, i32* %WBSlave.adr_i.m_if.Val.V, i32* %WBSlave.dat_i.m_if.Val.V, i1* %WBSlave.we_i.m_if.Val, i1* %WBSlave.stb_i.m_if.Val, i1* %WBSlave.cyc_i.m_if.Val, i4* %WBSlave.sel_i.m_if.Val.V, i32* %WBSlave.dat_o.m_if.Val.V, i1* %WBSlave.ack_o.m_if.Val, i1* %WBSlave.int_o.m_if.Val, [16 x i32]* %WBSlave.regs, [500 x i32]* %WBSlave.PBuffer, i3* %WBSlave.CTRL_ADDR.V, i3* %WBSlave.STAT_ADDR.V, i21* %WBSlave.log_in.V, i21* %WBSlave.log_out.V, i1* %WBSlave.log_start.V, i1* %WBSlave.log_done.V, i3* %WBSlave.REG0_ADDR.V, i3* %WBSlave.REG1_ADDR.V, i3* %WBSlave.REG2_ADDR.V, i3* %WBSlave.REG3_ADDR.V, i3* %WBSlave.REG4_ADDR.V, i3* %WBSlave.DELAY_ADDR.V, i3* %WBSlave.LAST_ADDR.V), !dbg !15921 ; [debug line = 18:35]
  unreachable

; <label>:2                                       ; preds = %0
  call void (...)* @_ssdm_op_SpecProcessDecl([8 x i8]* @.str8, i32 2, [11 x i8]* @.str9) nounwind, !dbg !15922 ; [debug line = 18:49]
  call void (...)* @_ssdm_op_SpecSensitive([11 x i8]* @.str9, [4 x i8]* @.str10, i1* %WBSlave.clk.m_if.Val, i32 1) nounwind, !dbg !15923 ; [debug line = 19:3]
  call void (...)* @_ssdm_op_SpecSensitive([11 x i8]* @.str9, [6 x i8]* @.str11, i1* %WBSlave.reset.m_if.Val, i32 3) nounwind, !dbg !15924 ; [debug line = 20:3]
  %"WBSlave::__ssdm_thread_M_processSlave.load" = load i1* @"WBSlave::__ssdm_thread_M_processSlave", align 1, !dbg !15925 ; [#uses=1 type=i1] [debug line = 21:3]
  br i1 %"WBSlave::__ssdm_thread_M_processSlave.load", label %3, label %4, !dbg !15925 ; [debug line = 21:3]

; <label>:3                                       ; preds = %2
  call void @"WBSlave::processSlave"(i1* %WBSlave.clk.m_if.Val, i1* %WBSlave.reset.m_if.Val, i32* %WBSlave.adr_i.m_if.Val.V, i32* %WBSlave.dat_i.m_if.Val.V, i1* %WBSlave.we_i.m_if.Val, i1* %WBSlave.stb_i.m_if.Val, i1* %WBSlave.cyc_i.m_if.Val, i4* %WBSlave.sel_i.m_if.Val.V, i32* %WBSlave.dat_o.m_if.Val.V, i1* %WBSlave.ack_o.m_if.Val, i1* %WBSlave.int_o.m_if.Val, [16 x i32]* %WBSlave.regs, [500 x i32]* %WBSlave.PBuffer, i3* %WBSlave.CTRL_ADDR.V, i3* %WBSlave.STAT_ADDR.V, i21* %WBSlave.log_in.V, i21* %WBSlave.log_out.V, i1* %WBSlave.log_start.V, i1* %WBSlave.log_done.V, i3* %WBSlave.REG0_ADDR.V, i3* %WBSlave.REG1_ADDR.V, i3* %WBSlave.REG2_ADDR.V, i3* %WBSlave.REG3_ADDR.V, i3* %WBSlave.REG4_ADDR.V, i3* %WBSlave.DELAY_ADDR.V, i3* %WBSlave.LAST_ADDR.V), !dbg !15926 ; [debug line = 21:37]
  unreachable

; <label>:4                                       ; preds = %2
  call void (...)* @_ssdm_op_SpecProcessDecl([8 x i8]* @.str8, i32 2, [13 x i8]* @.str12) nounwind, !dbg !15927 ; [debug line = 21:53]
  call void (...)* @_ssdm_op_SpecSensitive([13 x i8]* @.str12, [4 x i8]* @.str10, i1* %WBSlave.clk.m_if.Val, i32 1) nounwind, !dbg !15928 ; [debug line = 22:3]
  call void (...)* @_ssdm_op_SpecSensitive([13 x i8]* @.str12, [6 x i8]* @.str11, i1* %WBSlave.reset.m_if.Val, i32 3) nounwind, !dbg !15929 ; [debug line = 23:3]
  %"WBSlave::__ssdm_thread_M_getLog.load" = load i1* @"WBSlave::__ssdm_thread_M_getLog", align 1, !dbg !15930 ; [#uses=1 type=i1] [debug line = 24:3]
  br i1 %"WBSlave::__ssdm_thread_M_getLog.load", label %5, label %6, !dbg !15930 ; [debug line = 24:3]

; <label>:5                                       ; preds = %4
  call void @"WBSlave::getLog"(i1* %WBSlave.clk.m_if.Val, i1* %WBSlave.reset.m_if.Val, i32* %WBSlave.adr_i.m_if.Val.V, i32* %WBSlave.dat_i.m_if.Val.V, i1* %WBSlave.we_i.m_if.Val, i1* %WBSlave.stb_i.m_if.Val, i1* %WBSlave.cyc_i.m_if.Val, i4* %WBSlave.sel_i.m_if.Val.V, i32* %WBSlave.dat_o.m_if.Val.V, i1* %WBSlave.ack_o.m_if.Val, i1* %WBSlave.int_o.m_if.Val, [16 x i32]* %WBSlave.regs, [500 x i32]* %WBSlave.PBuffer, i3* %WBSlave.CTRL_ADDR.V, i3* %WBSlave.STAT_ADDR.V, i21* %WBSlave.log_in.V, i21* %WBSlave.log_out.V, i1* %WBSlave.log_start.V, i1* %WBSlave.log_done.V, i3* %WBSlave.REG0_ADDR.V, i3* %WBSlave.REG1_ADDR.V, i3* %WBSlave.REG2_ADDR.V, i3* %WBSlave.REG3_ADDR.V, i3* %WBSlave.REG4_ADDR.V, i3* %WBSlave.DELAY_ADDR.V, i3* %WBSlave.LAST_ADDR.V), !dbg !15931 ; [debug line = 24:31]
  unreachable

; <label>:6                                       ; preds = %4
  call void (...)* @_ssdm_op_SpecProcessDecl([8 x i8]* @.str8, i32 2, [7 x i8]* @.str13) nounwind, !dbg !15932 ; [debug line = 24:41]
  call void (...)* @_ssdm_op_SpecSensitive([7 x i8]* @.str13, [4 x i8]* @.str10, i1* %WBSlave.clk.m_if.Val, i32 1) nounwind, !dbg !15933 ; [debug line = 25:3]
  call void (...)* @_ssdm_op_SpecSensitive([7 x i8]* @.str13, [6 x i8]* @.str11, i1* %WBSlave.reset.m_if.Val, i32 3) nounwind, !dbg !15934 ; [debug line = 26:3]
  call void (...)* @_ssdm_op_SpecPort([8 x i8]* @.str8, i32 0, [7 x i8]* @.str14, [4 x i8]* @.str10, i32 0, i32 0, i1* %WBSlave.clk.m_if.Val) nounwind, !dbg !15935 ; [debug line = 27:3]
  call void (...)* @_ssdm_op_SpecPort([8 x i8]* @.str8, i32 0, [7 x i8]* @.str14, [6 x i8]* @.str11, i32 0, i32 0, i1* %WBSlave.reset.m_if.Val) nounwind, !dbg !15936 ; [debug line = 28:3]
  call void (...)* @_ssdm_op_SpecPort([8 x i8]* @.str8, i32 0, [8 x i8]* @.str15, [6 x i8]* @.str16, i32 0, i32 0, i32* %WBSlave.adr_i.m_if.Val.V) nounwind, !dbg !15937 ; [debug line = 29:3]
  call void (...)* @_ssdm_op_SpecPort([8 x i8]* @.str8, i32 0, [8 x i8]* @.str15, [6 x i8]* @.str17, i32 0, i32 0, i32* %WBSlave.dat_i.m_if.Val.V) nounwind, !dbg !15938 ; [debug line = 30:3]
  call void (...)* @_ssdm_op_SpecPort([8 x i8]* @.str8, i32 0, [7 x i8]* @.str14, [5 x i8]* @.str18, i32 0, i32 0, i1* %WBSlave.we_i.m_if.Val) nounwind, !dbg !15939 ; [debug line = 31:3]
  call void (...)* @_ssdm_op_SpecPort([8 x i8]* @.str8, i32 0, [7 x i8]* @.str14, [6 x i8]* @.str19, i32 0, i32 0, i1* %WBSlave.stb_i.m_if.Val) nounwind, !dbg !15940 ; [debug line = 32:3]
  call void (...)* @_ssdm_op_SpecPort([8 x i8]* @.str8, i32 0, [7 x i8]* @.str14, [6 x i8]* @.str20, i32 0, i32 0, i1* %WBSlave.cyc_i.m_if.Val) nounwind, !dbg !15941 ; [debug line = 33:3]
  call void (...)* @_ssdm_op_SpecPort([8 x i8]* @.str8, i32 0, [31 x i8]* @.str21, [6 x i8]* @.str22, i32 0, i32 0, i4* %WBSlave.sel_i.m_if.Val.V) nounwind, !dbg !15942 ; [debug line = 34:3]
  call void (...)* @_ssdm_op_SpecPort([8 x i8]* @.str8, i32 1, [8 x i8]* @.str15, [6 x i8]* @.str23, i32 0, i32 0, i32* %WBSlave.dat_o.m_if.Val.V) nounwind, !dbg !15943 ; [debug line = 35:3]
  call void (...)* @_ssdm_op_SpecPort([8 x i8]* @.str8, i32 1, [7 x i8]* @.str14, [6 x i8]* @.str24, i32 0, i32 0, i1* %WBSlave.ack_o.m_if.Val) nounwind, !dbg !15944 ; [debug line = 36:3]
  call void (...)* @_ssdm_op_SpecPort([8 x i8]* @.str8, i32 1, [7 x i8]* @.str14, [6 x i8]* @.str25, i32 0, i32 0, i1* %WBSlave.int_o.m_if.Val) nounwind, !dbg !15945 ; [debug line = 37:3]
  ret void, !dbg !15946                           ; [debug line = 12:1]
}

; [#uses=1]
declare void @llvm.dbg.declare(metadata, metadata) nounwind readnone

; [#uses=1]
declare void @_ssdm_op_SpecTopModule(...) nounwind

; [#uses=1]
define void @"WBSlave::processBus"(i1* %WBSlave.clk.m_if.Val, i1* %WBSlave.reset.m_if.Val, i32* %WBSlave.adr_i.m_if.Val.V, i32* %WBSlave.dat_i.m_if.Val.V, i1* %WBSlave.we_i.m_if.Val, i1* %WBSlave.stb_i.m_if.Val, i1* %WBSlave.cyc_i.m_if.Val, i4* %WBSlave.sel_i.m_if.Val.V, i32* %WBSlave.dat_o.m_if.Val.V, i1* %WBSlave.ack_o.m_if.Val, i1* %WBSlave.int_o.m_if.Val, [16 x i32]* %WBSlave.regs, [500 x i32]* %WBSlave.PBuffer, i3* %WBSlave.CTRL_ADDR.V, i3* %WBSlave.STAT_ADDR.V, i21* %WBSlave.log_in.V, i21* %WBSlave.log_out.V, i1* %WBSlave.log_start.V, i1* %WBSlave.log_done.V, i3* %WBSlave.REG0_ADDR.V, i3* %WBSlave.REG1_ADDR.V, i3* %WBSlave.REG2_ADDR.V, i3* %WBSlave.REG3_ADDR.V, i3* %WBSlave.REG4_ADDR.V, i3* %WBSlave.DELAY_ADDR.V, i3* %WBSlave.LAST_ADDR.V) {
  call void (...)* @_ssdm_op_SpecBitsMap(i1* %WBSlave.clk.m_if.Val), !map !15766
  call void (...)* @_ssdm_op_SpecBitsMap(i1* %WBSlave.reset.m_if.Val), !map !15770
  call void (...)* @_ssdm_op_SpecBitsMap(i32* %WBSlave.adr_i.m_if.Val.V), !map !15774
  call void (...)* @_ssdm_op_SpecBitsMap(i32* %WBSlave.dat_i.m_if.Val.V), !map !15778
  call void (...)* @_ssdm_op_SpecBitsMap(i1* %WBSlave.we_i.m_if.Val), !map !15782
  call void (...)* @_ssdm_op_SpecBitsMap(i1* %WBSlave.stb_i.m_if.Val), !map !15786
  call void (...)* @_ssdm_op_SpecBitsMap(i1* %WBSlave.cyc_i.m_if.Val), !map !15790
  call void (...)* @_ssdm_op_SpecBitsMap(i4* %WBSlave.sel_i.m_if.Val.V), !map !15794
  call void (...)* @_ssdm_op_SpecBitsMap(i32* %WBSlave.dat_o.m_if.Val.V), !map !15798
  call void (...)* @_ssdm_op_SpecBitsMap(i1* %WBSlave.ack_o.m_if.Val), !map !15802
  call void (...)* @_ssdm_op_SpecBitsMap(i1* %WBSlave.int_o.m_if.Val), !map !15806
  call void (...)* @_ssdm_op_SpecBitsMap([16 x i32]* %WBSlave.regs), !map !15810
  call void (...)* @_ssdm_op_SpecBitsMap([500 x i32]* %WBSlave.PBuffer), !map !15814
  call void (...)* @_ssdm_op_SpecBitsMap(i3* %WBSlave.CTRL_ADDR.V), !map !15818
  call void (...)* @_ssdm_op_SpecBitsMap(i3* %WBSlave.STAT_ADDR.V), !map !15822
  call void (...)* @_ssdm_op_SpecBitsMap(i21* %WBSlave.log_in.V), !map !15826
  call void (...)* @_ssdm_op_SpecBitsMap(i21* %WBSlave.log_out.V), !map !15830
  call void (...)* @_ssdm_op_SpecBitsMap(i1* %WBSlave.log_start.V), !map !15834
  call void (...)* @_ssdm_op_SpecBitsMap(i1* %WBSlave.log_done.V), !map !15838
  call void (...)* @_ssdm_op_SpecBitsMap(i3* %WBSlave.REG0_ADDR.V), !map !15842
  call void (...)* @_ssdm_op_SpecBitsMap(i3* %WBSlave.REG1_ADDR.V), !map !15846
  call void (...)* @_ssdm_op_SpecBitsMap(i3* %WBSlave.REG2_ADDR.V), !map !15850
  call void (...)* @_ssdm_op_SpecBitsMap(i3* %WBSlave.REG3_ADDR.V), !map !15854
  call void (...)* @_ssdm_op_SpecBitsMap(i3* %WBSlave.REG4_ADDR.V), !map !15858
  call void (...)* @_ssdm_op_SpecBitsMap(i3* %WBSlave.DELAY_ADDR.V), !map !15862
  call void (...)* @_ssdm_op_SpecBitsMap(i3* %WBSlave.LAST_ADDR.V), !map !15866
  call void @llvm.dbg.value(metadata !{i1* %WBSlave.clk.m_if.Val}, i64 0, metadata !15948), !dbg !15951 ; [debug line = 234:15] [debug variable = WBSlave.clk.m_if.Val]
  call void @llvm.dbg.value(metadata !{i1* %WBSlave.reset.m_if.Val}, i64 0, metadata !15952), !dbg !15951 ; [debug line = 234:15] [debug variable = WBSlave.reset.m_if.Val]
  call void @llvm.dbg.value(metadata !{i32* %WBSlave.adr_i.m_if.Val.V}, i64 0, metadata !15953), !dbg !15951 ; [debug line = 234:15] [debug variable = WBSlave.adr_i.m_if.Val.V]
  call void @llvm.dbg.value(metadata !{i32* %WBSlave.dat_i.m_if.Val.V}, i64 0, metadata !15954), !dbg !15951 ; [debug line = 234:15] [debug variable = WBSlave.dat_i.m_if.Val.V]
  call void @llvm.dbg.value(metadata !{i1* %WBSlave.we_i.m_if.Val}, i64 0, metadata !15955), !dbg !15951 ; [debug line = 234:15] [debug variable = WBSlave.we_i.m_if.Val]
  call void @llvm.dbg.value(metadata !{i1* %WBSlave.stb_i.m_if.Val}, i64 0, metadata !15956), !dbg !15951 ; [debug line = 234:15] [debug variable = WBSlave.stb_i.m_if.Val]
  call void @llvm.dbg.value(metadata !{i1* %WBSlave.cyc_i.m_if.Val}, i64 0, metadata !15957), !dbg !15951 ; [debug line = 234:15] [debug variable = WBSlave.cyc_i.m_if.Val]
  call void @llvm.dbg.value(metadata !{i4* %WBSlave.sel_i.m_if.Val.V}, i64 0, metadata !15958), !dbg !15951 ; [debug line = 234:15] [debug variable = WBSlave.sel_i.m_if.Val.V]
  call void @llvm.dbg.value(metadata !{i32* %WBSlave.dat_o.m_if.Val.V}, i64 0, metadata !15959), !dbg !15951 ; [debug line = 234:15] [debug variable = WBSlave.dat_o.m_if.Val.V]
  call void @llvm.dbg.value(metadata !{i1* %WBSlave.ack_o.m_if.Val}, i64 0, metadata !15960), !dbg !15951 ; [debug line = 234:15] [debug variable = WBSlave.ack_o.m_if.Val]
  call void @llvm.dbg.value(metadata !{i1* %WBSlave.int_o.m_if.Val}, i64 0, metadata !15961), !dbg !15951 ; [debug line = 234:15] [debug variable = WBSlave.int_o.m_if.Val]
  call void @llvm.dbg.value(metadata !{[16 x i32]* %WBSlave.regs}, i64 0, metadata !15962), !dbg !15951 ; [debug line = 234:15] [debug variable = WBSlave.regs]
  call void @llvm.dbg.value(metadata !{[500 x i32]* %WBSlave.PBuffer}, i64 0, metadata !15963), !dbg !15951 ; [debug line = 234:15] [debug variable = WBSlave.PBuffer]
  call void @llvm.dbg.value(metadata !{i3* %WBSlave.CTRL_ADDR.V}, i64 0, metadata !15964), !dbg !15951 ; [debug line = 234:15] [debug variable = WBSlave.CTRL_ADDR.V]
  call void @llvm.dbg.value(metadata !{i3* %WBSlave.STAT_ADDR.V}, i64 0, metadata !15965), !dbg !15951 ; [debug line = 234:15] [debug variable = WBSlave.STAT_ADDR.V]
  call void @llvm.dbg.value(metadata !{i21* %WBSlave.log_in.V}, i64 0, metadata !15966), !dbg !15951 ; [debug line = 234:15] [debug variable = WBSlave.log_in.V]
  call void @llvm.dbg.value(metadata !{i21* %WBSlave.log_out.V}, i64 0, metadata !15967), !dbg !15951 ; [debug line = 234:15] [debug variable = WBSlave.log_out.V]
  call void @llvm.dbg.value(metadata !{i1* %WBSlave.log_start.V}, i64 0, metadata !15968), !dbg !15951 ; [debug line = 234:15] [debug variable = WBSlave.log_start.V]
  call void @llvm.dbg.value(metadata !{i1* %WBSlave.log_done.V}, i64 0, metadata !15969), !dbg !15951 ; [debug line = 234:15] [debug variable = WBSlave.log_done.V]
  call void @llvm.dbg.value(metadata !{i3* %WBSlave.REG0_ADDR.V}, i64 0, metadata !15970), !dbg !15951 ; [debug line = 234:15] [debug variable = WBSlave.REG0_ADDR.V]
  call void @llvm.dbg.value(metadata !{i3* %WBSlave.REG1_ADDR.V}, i64 0, metadata !15971), !dbg !15951 ; [debug line = 234:15] [debug variable = WBSlave.REG1_ADDR.V]
  call void @llvm.dbg.value(metadata !{i3* %WBSlave.REG2_ADDR.V}, i64 0, metadata !15972), !dbg !15951 ; [debug line = 234:15] [debug variable = WBSlave.REG2_ADDR.V]
  call void @llvm.dbg.value(metadata !{i3* %WBSlave.REG3_ADDR.V}, i64 0, metadata !15973), !dbg !15951 ; [debug line = 234:15] [debug variable = WBSlave.REG3_ADDR.V]
  call void @llvm.dbg.value(metadata !{i3* %WBSlave.REG4_ADDR.V}, i64 0, metadata !15974), !dbg !15951 ; [debug line = 234:15] [debug variable = WBSlave.REG4_ADDR.V]
  call void @llvm.dbg.value(metadata !{i3* %WBSlave.DELAY_ADDR.V}, i64 0, metadata !15975), !dbg !15951 ; [debug line = 234:15] [debug variable = WBSlave.DELAY_ADDR.V]
  call void @llvm.dbg.value(metadata !{i3* %WBSlave.LAST_ADDR.V}, i64 0, metadata !15976), !dbg !15951 ; [debug line = 234:15] [debug variable = WBSlave.LAST_ADDR.V]
  call void (...)* @_ssdm_op_SpecPort([8 x i8]* @.str8, i32 0, [7 x i8]* @.str14, [4 x i8]* @.str10, i32 0, i32 0, i1* %WBSlave.clk.m_if.Val) nounwind, !dbg !15977 ; [debug line = 235:4]
  call void (...)* @_ssdm_op_SpecPort([8 x i8]* @.str8, i32 0, [7 x i8]* @.str14, [6 x i8]* @.str11, i32 0, i32 0, i1* %WBSlave.reset.m_if.Val) nounwind, !dbg !15979 ; [debug line = 236:3]
  call void (...)* @_ssdm_op_SpecPort([8 x i8]* @.str8, i32 0, [8 x i8]* @.str15, [6 x i8]* @.str16, i32 0, i32 0, i32* %WBSlave.adr_i.m_if.Val.V) nounwind, !dbg !15980 ; [debug line = 237:3]
  call void (...)* @_ssdm_op_SpecPort([8 x i8]* @.str8, i32 0, [8 x i8]* @.str15, [6 x i8]* @.str17, i32 0, i32 0, i32* %WBSlave.dat_i.m_if.Val.V) nounwind, !dbg !15981 ; [debug line = 238:3]
  call void (...)* @_ssdm_op_SpecPort([8 x i8]* @.str8, i32 0, [7 x i8]* @.str14, [5 x i8]* @.str18, i32 0, i32 0, i1* %WBSlave.we_i.m_if.Val) nounwind, !dbg !15982 ; [debug line = 239:3]
  call void (...)* @_ssdm_op_SpecPort([8 x i8]* @.str8, i32 0, [7 x i8]* @.str14, [6 x i8]* @.str19, i32 0, i32 0, i1* %WBSlave.stb_i.m_if.Val) nounwind, !dbg !15983 ; [debug line = 240:3]
  call void (...)* @_ssdm_op_SpecPort([8 x i8]* @.str8, i32 0, [7 x i8]* @.str14, [6 x i8]* @.str20, i32 0, i32 0, i1* %WBSlave.cyc_i.m_if.Val) nounwind, !dbg !15984 ; [debug line = 241:3]
  call void (...)* @_ssdm_op_SpecPort([8 x i8]* @.str8, i32 0, [31 x i8]* @.str21, [6 x i8]* @.str22, i32 0, i32 0, i4* %WBSlave.sel_i.m_if.Val.V) nounwind, !dbg !15985 ; [debug line = 242:3]
  call void (...)* @_ssdm_op_SpecPort([8 x i8]* @.str8, i32 1, [8 x i8]* @.str15, [6 x i8]* @.str23, i32 0, i32 0, i32* %WBSlave.dat_o.m_if.Val.V) nounwind, !dbg !15986 ; [debug line = 243:3]
  call void (...)* @_ssdm_op_SpecPort([8 x i8]* @.str8, i32 1, [7 x i8]* @.str14, [6 x i8]* @.str24, i32 0, i32 0, i1* %WBSlave.ack_o.m_if.Val) nounwind, !dbg !15987 ; [debug line = 244:3]
  call void (...)* @_ssdm_op_SpecPort([8 x i8]* @.str8, i32 1, [7 x i8]* @.str14, [6 x i8]* @.str25, i32 0, i32 0, i1* %WBSlave.int_o.m_if.Val) nounwind, !dbg !15988 ; [debug line = 245:3]
  call void (...)* @_ssdm_op_SpecProcessDef([8 x i8]* @.str8, i32 2, [11 x i8]* @.str9) nounwind, !dbg !15989 ; [debug line = 246:3]
  %tmp.13 = call i32 (...)* @_ssdm_op_SpecRegionBegin([15 x i8]* @.str42), !dbg !15990 ; [#uses=1 type=i32] [debug line = 246:109]
  call void (...)* @_ssdm_op_SpecProtocol(i32 1, [1 x i8]* @.str43) nounwind, !dbg !15991 ; [debug line = 246:193]
  %_ssdm_reset_v = call i32 (...)* @_ssdm_op_SpecStateBegin(i32 0, i32 0, i32 1) nounwind, !dbg !15992 ; [#uses=1 type=i32] [debug line = 246:243]
  call void @llvm.dbg.value(metadata !{i32 %_ssdm_reset_v}, i64 0, metadata !15993), !dbg !15992 ; [debug line = 246:243] [debug variable = _ssdm_reset_v]
  store volatile i32 0, i32* %WBSlave.dat_o.m_if.Val.V, align 4, !dbg !15994 ; [debug line = 365:13@56:100@207:13@427:73@235:1]
  call void @llvm.dbg.value(metadata !{i1* %WBSlave.ack_o.m_if.Val}, i64 0, metadata !16018), !dbg !16026 ; [debug line = 128:96@207:13@427:73@236:1] [debug variable = P]
  store volatile i1 false, i1* %WBSlave.ack_o.m_if.Val, align 1, !dbg !16038 ; [debug line = 167:116@207:13@427:73@236:1]
  call void @llvm.dbg.value(metadata !{i1* %WBSlave.int_o.m_if.Val}, i64 0, metadata !16018), !dbg !16040 ; [debug line = 128:96@207:13@427:73@237:1] [debug variable = P]
  store volatile i1 false, i1* %WBSlave.int_o.m_if.Val, align 1, !dbg !16044 ; [debug line = 167:116@207:13@427:73@237:1]
  %WBSlave.DELAY_ADDR.V.load = load i3* %WBSlave.DELAY_ADDR.V, align 1, !dbg !16045 ; [#uses=1 type=i3] [debug line = 1654:70@238:6]
  %tmp = zext i3 %WBSlave.DELAY_ADDR.V.load to i64, !dbg !16048 ; [#uses=1 type=i64] [debug line = 238:6]
  %WBSlave.regs.addr = getelementptr [16 x i32]* %WBSlave.regs, i64 0, i64 %tmp, !dbg !16048 ; [#uses=5 type=i32*] [debug line = 238:6]
  store i32 0, i32* %WBSlave.regs.addr, align 4, !dbg !16048 ; [debug line = 238:6]
  %1 = call i32 (...)* @_ssdm_op_SpecStateEnd(i32 %_ssdm_reset_v) nounwind, !dbg !16049 ; [#uses=0 type=i32] [debug line = 238:23]
  %2 = call i32 (...)* @_ssdm_op_SpecRegionEnd([15 x i8]* @.str42, i32 %tmp.13), !dbg !16050 ; [#uses=0 type=i32] [debug line = 238:61]
  %WBSlave.STAT_ADDR.V.load = load i3* %WBSlave.STAT_ADDR.V, align 1, !dbg !16051 ; [#uses=4 type=i3] [debug line = 1654:70@346:20@247:13]
  br label %3, !dbg !16059                        ; [debug line = 238:96]

; <label>:3                                       ; preds = %41, %0
  call void @llvm.dbg.value(metadata !{i1* %WBSlave.ack_o.m_if.Val}, i64 0, metadata !16018), !dbg !16060 ; [debug line = 128:96@207:13@427:73@241:9] [debug variable = P]
  store volatile i1 false, i1* %WBSlave.ack_o.m_if.Val, align 1, !dbg !16064 ; [debug line = 167:116@207:13@427:73@241:9]
  call void (...)* @_ssdm_op_Wait(i32 1) nounwind, !dbg !16065 ; [debug line = 243:11]
  call void @llvm.dbg.value(metadata !{i1* %WBSlave.stb_i.m_if.Val}, i64 0, metadata !16067), !dbg !16073 ; [debug line = 166:90@180:66@382:68@243:41] [debug variable = P]
  %tmp.15 = load volatile i1* %WBSlave.stb_i.m_if.Val, align 1, !dbg !16081 ; [#uses=1 type=i1] [debug line = 166:95@180:66@382:68@243:41]
  call void @llvm.dbg.value(metadata !{i1 %tmp.15}, i64 0, metadata !16083), !dbg !16074 ; [debug line = 180:66@382:68@243:41] [debug variable = tmp]
  br i1 %tmp.15, label %4, label %._crit_edge, !dbg !16080 ; [debug line = 243:41]

; <label>:4                                       ; preds = %3
  call void @llvm.dbg.value(metadata !{i1* %WBSlave.cyc_i.m_if.Val}, i64 0, metadata !16067), !dbg !16084 ; [debug line = 166:90@180:66@382:68@243:66] [debug variable = P]
  %tmp.18 = load volatile i1* %WBSlave.cyc_i.m_if.Val, align 1, !dbg !16088 ; [#uses=1 type=i1] [debug line = 166:95@180:66@382:68@243:66]
  call void @llvm.dbg.value(metadata !{i1 %tmp.18}, i64 0, metadata !16083), !dbg !16085 ; [debug line = 180:66@382:68@243:66] [debug variable = tmp]
  br label %._crit_edge, !dbg !16087              ; [debug line = 243:66]

._crit_edge:                                      ; preds = %4, %3
  %tmp.3 = phi i1 [ %tmp.18, %4 ], [ false, %3 ], !dbg !16087 ; [#uses=1 type=i1] [debug line = 243:66]
  call void (...)* @_ssdm_op_Poll(i1 %tmp.3), !dbg !16089 ; [debug line = 243:90]
  call void @llvm.dbg.value(metadata !{i1* %WBSlave.we_i.m_if.Val}, i64 0, metadata !16067), !dbg !16090 ; [debug line = 166:90@180:66@382:68@246:13] [debug variable = P]
  %tmp.20 = load volatile i1* %WBSlave.we_i.m_if.Val, align 1, !dbg !16094 ; [#uses=1 type=i1] [debug line = 166:95@180:66@382:68@246:13]
  call void @llvm.dbg.value(metadata !{i1 %tmp.20}, i64 0, metadata !16083), !dbg !16091 ; [debug line = 180:66@382:68@246:13] [debug variable = tmp]
  br i1 %tmp.20, label %5, label %23, !dbg !16093 ; [debug line = 246:13]

; <label>:5                                       ; preds = %._crit_edge
  call void @llvm.dbg.value(metadata !{i1* %WBSlave.clk.m_if.Val}, i64 0, metadata !16095), !dbg !16097 ; [debug line = 336:15@247:13] [debug variable = WBSlave.clk.m_if.Val]
  call void @llvm.dbg.value(metadata !{i1* %WBSlave.reset.m_if.Val}, i64 0, metadata !16098), !dbg !16097 ; [debug line = 336:15@247:13] [debug variable = WBSlave.reset.m_if.Val]
  call void @llvm.dbg.value(metadata !{i32* %WBSlave.adr_i.m_if.Val.V}, i64 0, metadata !16099), !dbg !16097 ; [debug line = 336:15@247:13] [debug variable = WBSlave.adr_i.m_if.Val.V]
  call void @llvm.dbg.value(metadata !{i32* %WBSlave.dat_i.m_if.Val.V}, i64 0, metadata !16100), !dbg !16097 ; [debug line = 336:15@247:13] [debug variable = WBSlave.dat_i.m_if.Val.V]
  call void @llvm.dbg.value(metadata !{i1* %WBSlave.we_i.m_if.Val}, i64 0, metadata !16101), !dbg !16097 ; [debug line = 336:15@247:13] [debug variable = WBSlave.we_i.m_if.Val]
  call void @llvm.dbg.value(metadata !{i1* %WBSlave.stb_i.m_if.Val}, i64 0, metadata !16102), !dbg !16097 ; [debug line = 336:15@247:13] [debug variable = WBSlave.stb_i.m_if.Val]
  call void @llvm.dbg.value(metadata !{i1* %WBSlave.cyc_i.m_if.Val}, i64 0, metadata !16103), !dbg !16097 ; [debug line = 336:15@247:13] [debug variable = WBSlave.cyc_i.m_if.Val]
  call void @llvm.dbg.value(metadata !{i4* %WBSlave.sel_i.m_if.Val.V}, i64 0, metadata !16104), !dbg !16097 ; [debug line = 336:15@247:13] [debug variable = WBSlave.sel_i.m_if.Val.V]
  call void @llvm.dbg.value(metadata !{i32* %WBSlave.dat_o.m_if.Val.V}, i64 0, metadata !16105), !dbg !16097 ; [debug line = 336:15@247:13] [debug variable = WBSlave.dat_o.m_if.Val.V]
  call void @llvm.dbg.value(metadata !{i1* %WBSlave.ack_o.m_if.Val}, i64 0, metadata !16106), !dbg !16097 ; [debug line = 336:15@247:13] [debug variable = WBSlave.ack_o.m_if.Val]
  call void @llvm.dbg.value(metadata !{i1* %WBSlave.int_o.m_if.Val}, i64 0, metadata !16107), !dbg !16097 ; [debug line = 336:15@247:13] [debug variable = WBSlave.int_o.m_if.Val]
  call void @llvm.dbg.value(metadata !{[16 x i32]* %WBSlave.regs}, i64 0, metadata !16108), !dbg !16097 ; [debug line = 336:15@247:13] [debug variable = WBSlave.regs]
  call void @llvm.dbg.value(metadata !{[500 x i32]* %WBSlave.PBuffer}, i64 0, metadata !16109), !dbg !16097 ; [debug line = 336:15@247:13] [debug variable = WBSlave.PBuffer]
  call void @llvm.dbg.value(metadata !{i3* %WBSlave.CTRL_ADDR.V}, i64 0, metadata !16110), !dbg !16097 ; [debug line = 336:15@247:13] [debug variable = WBSlave.CTRL_ADDR.V]
  call void @llvm.dbg.value(metadata !{i3* %WBSlave.STAT_ADDR.V}, i64 0, metadata !16111), !dbg !16097 ; [debug line = 336:15@247:13] [debug variable = WBSlave.STAT_ADDR.V]
  call void @llvm.dbg.value(metadata !{i21* %WBSlave.log_in.V}, i64 0, metadata !16112), !dbg !16097 ; [debug line = 336:15@247:13] [debug variable = WBSlave.log_in.V]
  call void @llvm.dbg.value(metadata !{i21* %WBSlave.log_out.V}, i64 0, metadata !16113), !dbg !16097 ; [debug line = 336:15@247:13] [debug variable = WBSlave.log_out.V]
  call void @llvm.dbg.value(metadata !{i1* %WBSlave.log_start.V}, i64 0, metadata !16114), !dbg !16097 ; [debug line = 336:15@247:13] [debug variable = WBSlave.log_start.V]
  call void @llvm.dbg.value(metadata !{i1* %WBSlave.log_done.V}, i64 0, metadata !16115), !dbg !16097 ; [debug line = 336:15@247:13] [debug variable = WBSlave.log_done.V]
  call void @llvm.dbg.value(metadata !{i3* %WBSlave.REG0_ADDR.V}, i64 0, metadata !16116), !dbg !16097 ; [debug line = 336:15@247:13] [debug variable = WBSlave.REG0_ADDR.V]
  call void @llvm.dbg.value(metadata !{i3* %WBSlave.REG1_ADDR.V}, i64 0, metadata !16117), !dbg !16097 ; [debug line = 336:15@247:13] [debug variable = WBSlave.REG1_ADDR.V]
  call void @llvm.dbg.value(metadata !{i3* %WBSlave.REG2_ADDR.V}, i64 0, metadata !16118), !dbg !16097 ; [debug line = 336:15@247:13] [debug variable = WBSlave.REG2_ADDR.V]
  call void @llvm.dbg.value(metadata !{i3* %WBSlave.REG3_ADDR.V}, i64 0, metadata !16119), !dbg !16097 ; [debug line = 336:15@247:13] [debug variable = WBSlave.REG3_ADDR.V]
  call void @llvm.dbg.value(metadata !{i3* %WBSlave.REG4_ADDR.V}, i64 0, metadata !16120), !dbg !16097 ; [debug line = 336:15@247:13] [debug variable = WBSlave.REG4_ADDR.V]
  call void @llvm.dbg.value(metadata !{i3* %WBSlave.DELAY_ADDR.V}, i64 0, metadata !16121), !dbg !16097 ; [debug line = 336:15@247:13] [debug variable = WBSlave.DELAY_ADDR.V]
  call void @llvm.dbg.value(metadata !{i3* %WBSlave.LAST_ADDR.V}, i64 0, metadata !16122), !dbg !16097 ; [debug line = 336:15@247:13] [debug variable = WBSlave.LAST_ADDR.V]
  %val.V = load volatile i32* %WBSlave.adr_i.m_if.Val.V, align 4, !dbg !16123 ; [#uses=4 type=i32] [debug line = 374:13@60:21@180:66@351:73@337:25@247:13]
  call void @llvm.dbg.value(metadata !{i32 %val.V}, i64 0, metadata !16139) nounwind, !dbg !16123 ; [debug line = 374:13@60:21@180:66@351:73@337:25@247:13] [debug variable = val.V]
  %r.V = lshr i32 %val.V, 2, !dbg !16141          ; [#uses=2 type=i32] [debug line = 3716:198@337:25@247:13]
  call void @llvm.dbg.value(metadata !{i32 %r.V}, i64 0, metadata !16146) nounwind, !dbg !16141 ; [debug line = 3716:198@337:25@247:13] [debug variable = r.V]
  call void @llvm.dbg.value(metadata !{i32 %r.V}, i64 0, metadata !16148) nounwind, !dbg !16138 ; [debug line = 337:25@247:13] [debug variable = addr]
  %val.V.1 = load volatile i32* %WBSlave.dat_i.m_if.Val.V, align 4, !dbg !16149 ; [#uses=2 type=i32] [debug line = 374:13@60:21@180:66@351:73@338:18@247:13]
  call void @llvm.dbg.value(metadata !{i32 %val.V.1}, i64 0, metadata !16154) nounwind, !dbg !16149 ; [debug line = 374:13@60:21@180:66@351:73@338:18@247:13] [debug variable = val.V]
  %tmp.6 = icmp ult i32 %val.V, 64, !dbg !16155   ; [#uses=1 type=i1] [debug line = 341:2@247:13]
  br i1 %tmp.6, label %6, label %14, !dbg !16155  ; [debug line = 341:2@247:13]

; <label>:6                                       ; preds = %5
  call void @llvm.dbg.value(metadata !{i1* %WBSlave.clk.m_if.Val}, i64 0, metadata !16156), !dbg !16160 ; [debug line = 384:14@342:10@247:13] [debug variable = WBSlave.clk.m_if.Val]
  call void @llvm.dbg.value(metadata !{i1* %WBSlave.reset.m_if.Val}, i64 0, metadata !16161), !dbg !16160 ; [debug line = 384:14@342:10@247:13] [debug variable = WBSlave.reset.m_if.Val]
  call void @llvm.dbg.value(metadata !{i32* %WBSlave.adr_i.m_if.Val.V}, i64 0, metadata !16162), !dbg !16160 ; [debug line = 384:14@342:10@247:13] [debug variable = WBSlave.adr_i.m_if.Val.V]
  call void @llvm.dbg.value(metadata !{i32* %WBSlave.dat_i.m_if.Val.V}, i64 0, metadata !16163), !dbg !16160 ; [debug line = 384:14@342:10@247:13] [debug variable = WBSlave.dat_i.m_if.Val.V]
  call void @llvm.dbg.value(metadata !{i1* %WBSlave.we_i.m_if.Val}, i64 0, metadata !16164), !dbg !16160 ; [debug line = 384:14@342:10@247:13] [debug variable = WBSlave.we_i.m_if.Val]
  call void @llvm.dbg.value(metadata !{i1* %WBSlave.stb_i.m_if.Val}, i64 0, metadata !16165), !dbg !16160 ; [debug line = 384:14@342:10@247:13] [debug variable = WBSlave.stb_i.m_if.Val]
  call void @llvm.dbg.value(metadata !{i1* %WBSlave.cyc_i.m_if.Val}, i64 0, metadata !16166), !dbg !16160 ; [debug line = 384:14@342:10@247:13] [debug variable = WBSlave.cyc_i.m_if.Val]
  call void @llvm.dbg.value(metadata !{i4* %WBSlave.sel_i.m_if.Val.V}, i64 0, metadata !16167), !dbg !16160 ; [debug line = 384:14@342:10@247:13] [debug variable = WBSlave.sel_i.m_if.Val.V]
  call void @llvm.dbg.value(metadata !{i32* %WBSlave.dat_o.m_if.Val.V}, i64 0, metadata !16168), !dbg !16160 ; [debug line = 384:14@342:10@247:13] [debug variable = WBSlave.dat_o.m_if.Val.V]
  call void @llvm.dbg.value(metadata !{i1* %WBSlave.ack_o.m_if.Val}, i64 0, metadata !16169), !dbg !16160 ; [debug line = 384:14@342:10@247:13] [debug variable = WBSlave.ack_o.m_if.Val]
  call void @llvm.dbg.value(metadata !{i1* %WBSlave.int_o.m_if.Val}, i64 0, metadata !16170), !dbg !16160 ; [debug line = 384:14@342:10@247:13] [debug variable = WBSlave.int_o.m_if.Val]
  call void @llvm.dbg.value(metadata !{[16 x i32]* %WBSlave.regs}, i64 0, metadata !16171), !dbg !16160 ; [debug line = 384:14@342:10@247:13] [debug variable = WBSlave.regs]
  call void @llvm.dbg.value(metadata !{[500 x i32]* %WBSlave.PBuffer}, i64 0, metadata !16172), !dbg !16160 ; [debug line = 384:14@342:10@247:13] [debug variable = WBSlave.PBuffer]
  call void @llvm.dbg.value(metadata !{i3* %WBSlave.CTRL_ADDR.V}, i64 0, metadata !16173), !dbg !16160 ; [debug line = 384:14@342:10@247:13] [debug variable = WBSlave.CTRL_ADDR.V]
  call void @llvm.dbg.value(metadata !{i3* %WBSlave.STAT_ADDR.V}, i64 0, metadata !16174), !dbg !16160 ; [debug line = 384:14@342:10@247:13] [debug variable = WBSlave.STAT_ADDR.V]
  call void @llvm.dbg.value(metadata !{i21* %WBSlave.log_in.V}, i64 0, metadata !16175), !dbg !16160 ; [debug line = 384:14@342:10@247:13] [debug variable = WBSlave.log_in.V]
  call void @llvm.dbg.value(metadata !{i21* %WBSlave.log_out.V}, i64 0, metadata !16176), !dbg !16160 ; [debug line = 384:14@342:10@247:13] [debug variable = WBSlave.log_out.V]
  call void @llvm.dbg.value(metadata !{i1* %WBSlave.log_start.V}, i64 0, metadata !16177), !dbg !16160 ; [debug line = 384:14@342:10@247:13] [debug variable = WBSlave.log_start.V]
  call void @llvm.dbg.value(metadata !{i1* %WBSlave.log_done.V}, i64 0, metadata !16178), !dbg !16160 ; [debug line = 384:14@342:10@247:13] [debug variable = WBSlave.log_done.V]
  call void @llvm.dbg.value(metadata !{i3* %WBSlave.REG0_ADDR.V}, i64 0, metadata !16179), !dbg !16160 ; [debug line = 384:14@342:10@247:13] [debug variable = WBSlave.REG0_ADDR.V]
  call void @llvm.dbg.value(metadata !{i3* %WBSlave.REG1_ADDR.V}, i64 0, metadata !16180), !dbg !16160 ; [debug line = 384:14@342:10@247:13] [debug variable = WBSlave.REG1_ADDR.V]
  call void @llvm.dbg.value(metadata !{i3* %WBSlave.REG2_ADDR.V}, i64 0, metadata !16181), !dbg !16160 ; [debug line = 384:14@342:10@247:13] [debug variable = WBSlave.REG2_ADDR.V]
  call void @llvm.dbg.value(metadata !{i3* %WBSlave.REG3_ADDR.V}, i64 0, metadata !16182), !dbg !16160 ; [debug line = 384:14@342:10@247:13] [debug variable = WBSlave.REG3_ADDR.V]
  call void @llvm.dbg.value(metadata !{i3* %WBSlave.REG4_ADDR.V}, i64 0, metadata !16183), !dbg !16160 ; [debug line = 384:14@342:10@247:13] [debug variable = WBSlave.REG4_ADDR.V]
  call void @llvm.dbg.value(metadata !{i3* %WBSlave.DELAY_ADDR.V}, i64 0, metadata !16184), !dbg !16160 ; [debug line = 384:14@342:10@247:13] [debug variable = WBSlave.DELAY_ADDR.V]
  call void @llvm.dbg.value(metadata !{i3* %WBSlave.LAST_ADDR.V}, i64 0, metadata !16185), !dbg !16160 ; [debug line = 384:14@342:10@247:13] [debug variable = WBSlave.LAST_ADDR.V]
  %val.V.3 = load volatile i4* %WBSlave.sel_i.m_if.Val.V, align 1, !dbg !16186 ; [#uses=1 type=i4] [debug line = 374:13@60:21@180:66@351:73@386:22@342:10@247:13]
  call void @llvm.dbg.value(metadata !{i4 %val.V.3}, i64 0, metadata !16205), !dbg !16186 ; [debug line = 374:13@60:21@180:66@351:73@386:22@342:10@247:13] [debug variable = val.V]
  %select = zext i4 %val.V.3 to i32, !dbg !16203  ; [#uses=1 type=i32] [debug line = 386:22@342:10@247:13]
  call void @llvm.dbg.value(metadata !{i32 %select}, i64 0, metadata !16207), !dbg !16203 ; [debug line = 386:22@342:10@247:13] [debug variable = select]
  br label %7, !dbg !16208                        ; [debug line = 387:23@342:10@247:13]

; <label>:7                                       ; preds = %9, %6
  %mask = phi i32 [ 0, %6 ], [ %mask.3, %9 ]      ; [#uses=2 type=i32]
  %select.0.i = phi i32 [ %select, %6 ], [ %select.4, %9 ] ; [#uses=2 type=i32]
  %i.0.i = phi i3 [ 0, %6 ], [ %i, %9 ]           ; [#uses=2 type=i3]
  %select.0.i.cast = trunc i32 %select.0.i to i4, !dbg !16208 ; [#uses=1 type=i4] [debug line = 387:23@342:10@247:13]
  %exitcond.i1 = icmp eq i3 %i.0.i, -4, !dbg !16208 ; [#uses=1 type=i1] [debug line = 387:23@342:10@247:13]
  %8 = call i32 (...)* @_ssdm_op_SpecLoopTripCount(i64 4, i64 4, i64 4) ; [#uses=0 type=i32]
  br i1 %exitcond.i1, label %gen_select_mask.exit, label %9, !dbg !16208 ; [debug line = 387:23@342:10@247:13]

; <label>:9                                       ; preds = %7
  %mask.1 = shl i32 %mask, 8, !dbg !16210         ; [#uses=2 type=i32] [debug line = 388:13@342:10@247:13]
  call void @llvm.dbg.value(metadata !{i32 %mask.1}, i64 0, metadata !16212), !dbg !16210 ; [debug line = 388:13@342:10@247:13] [debug variable = mask]
  %tmp.14 = icmp sgt i4 %select.0.i.cast, -1, !dbg !16213 ; [#uses=1 type=i1] [debug line = 389:13@342:10@247:13]
  %mask.2 = or i32 %mask.1, 255, !dbg !16214      ; [#uses=1 type=i32] [debug line = 390:17@342:10@247:13]
  call void @llvm.dbg.value(metadata !{i32 %mask.2}, i64 0, metadata !16212), !dbg !16214 ; [debug line = 390:17@342:10@247:13] [debug variable = mask]
  %mask.3 = select i1 %tmp.14, i32 %mask.1, i32 %mask.2, !dbg !16213 ; [#uses=1 type=i32] [debug line = 389:13@342:10@247:13]
  call void @llvm.dbg.value(metadata !{i32 %mask.3}, i64 0, metadata !16212), !dbg !16213 ; [debug line = 389:13@342:10@247:13] [debug variable = mask]
  %select.4 = shl i32 %select.0.i, 1, !dbg !16216 ; [#uses=1 type=i32] [debug line = 392:13@342:10@247:13]
  call void @llvm.dbg.value(metadata !{i32 %select.4}, i64 0, metadata !16207), !dbg !16216 ; [debug line = 392:13@342:10@247:13] [debug variable = select]
  %i = add i3 %i.0.i, 1, !dbg !16217              ; [#uses=1 type=i3] [debug line = 387:32@342:10@247:13]
  call void @llvm.dbg.value(metadata !{i3 %i}, i64 0, metadata !16218), !dbg !16217 ; [debug line = 387:32@342:10@247:13] [debug variable = i]
  br label %7, !dbg !16217                        ; [debug line = 387:32@342:10@247:13]

gen_select_mask.exit:                             ; preds = %7
  %mask.lcssa = phi i32 [ %mask, %7 ]             ; [#uses=2 type=i32]
  call void @llvm.dbg.value(metadata !{i32 %mask}, i64 0, metadata !16219) nounwind, !dbg !16159 ; [debug line = 342:10@247:13] [debug variable = mask]
  %tmp.1 = zext i32 %r.V to i64, !dbg !16220      ; [#uses=1 type=i64] [debug line = 343:3@247:13]
  %WBSlave.regs.addr.1 = getelementptr [16 x i32]* %WBSlave.regs, i64 0, i64 %tmp.1, !dbg !16220 ; [#uses=2 type=i32*] [debug line = 343:3@247:13]
  %WBSlave.regs.load = load i32* %WBSlave.regs.addr.1, align 4, !dbg !16220 ; [#uses=1 type=i32] [debug line = 343:3@247:13]
  %tmp.2 = xor i32 %mask.lcssa, -1, !dbg !16220   ; [#uses=1 type=i32] [debug line = 343:3@247:13]
  %tmp.4 = and i32 %WBSlave.regs.load, %tmp.2, !dbg !16220 ; [#uses=1 type=i32] [debug line = 343:3@247:13]
  %tmp.10 = and i32 %mask.lcssa, %val.V.1, !dbg !16221 ; [#uses=1 type=i32] [debug line = 343:42@247:13]
  %tmp.11 = or i32 %tmp.4, %tmp.10, !dbg !16221   ; [#uses=1 type=i32] [debug line = 343:42@247:13]
  store i32 %tmp.11, i32* %WBSlave.regs.addr.1, align 4, !dbg !16221 ; [debug line = 343:42@247:13]
  %n.assign = load i32* %WBSlave.regs.addr, align 4, !dbg !16222 ; [#uses=3 type=i32] [debug line = 344:12@247:13]
  %tmp.12 = icmp eq i32 %n.assign, 0, !dbg !16222 ; [#uses=1 type=i1] [debug line = 344:12@247:13]
  br i1 %tmp.12, label %_ZN7_ap_sc_7sc_core4waitEi.exit9.i, label %10, !dbg !16222 ; [debug line = 344:12@247:13]

; <label>:10                                      ; preds = %gen_select_mask.exit
  call void @llvm.dbg.value(metadata !{i32 %n.assign}, i64 0, metadata !16223) nounwind, !dbg !16228 ; [debug line = 802:53@344:39@247:13] [debug variable = n]
  %tmp.21 = icmp slt i32 %n.assign, 2, !dbg !16229 ; [#uses=1 type=i1] [debug line = 803:5@344:39@247:13]
  br i1 %tmp.21, label %11, label %.preheader79.i, !dbg !16229 ; [debug line = 803:5@344:39@247:13]

; <label>:11                                      ; preds = %10
  call void (...)* @_ssdm_op_Wait(i32 1) nounwind, !dbg !16231 ; [debug line = 803:19@344:39@247:13]
  br label %_ZN7_ap_sc_7sc_core4waitEi.exit5.i, !dbg !16233 ; [debug line = 803:37@344:39@247:13]

.preheader79.i:                                   ; preds = %13, %10
  %i.i4.0.i = phi i31 [ %i.4, %13 ], [ 0, %10 ]   ; [#uses=2 type=i31]
  %i.i4.0.i.cast = zext i31 %i.i4.0.i to i32, !dbg !16234 ; [#uses=1 type=i32] [debug line = 804:19@344:39@247:13]
  %exitcond78.i = icmp eq i32 %i.i4.0.i.cast, %n.assign, !dbg !16234 ; [#uses=1 type=i1] [debug line = 804:19@344:39@247:13]
  %12 = call i32 (...)* @_ssdm_op_SpecLoopTripCount(i64 2, i64 -1, i64 0) ; [#uses=0 type=i32]
  br i1 %exitcond78.i, label %_ZN7_ap_sc_7sc_core4waitEi.exit5.i, label %13, !dbg !16234 ; [debug line = 804:19@344:39@247:13]

; <label>:13                                      ; preds = %.preheader79.i
  call void (...)* @_ssdm_op_Wait(i32 1) nounwind, !dbg !16236 ; [debug line = 806:2@344:39@247:13]
  %i.4 = add i31 %i.i4.0.i, 1, !dbg !16238        ; [#uses=1 type=i31] [debug line = 804:28@344:39@247:13]
  call void @llvm.dbg.value(metadata !{i31 %i.4}, i64 0, metadata !16239) nounwind, !dbg !16238 ; [debug line = 804:28@344:39@247:13] [debug variable = i]
  br label %.preheader79.i, !dbg !16238           ; [debug line = 804:28@344:39@247:13]

_ZN7_ap_sc_7sc_core4waitEi.exit5.i:               ; preds = %.preheader79.i, %11
  br label %_ZN7_ap_sc_7sc_core4waitEi.exit9.i, !dbg !16227 ; [debug line = 344:39@247:13]

_ZN7_ap_sc_7sc_core4waitEi.exit9.i:               ; preds = %_ZN7_ap_sc_7sc_core4waitEi.exit5.i, %gen_select_mask.exit
  call void @llvm.dbg.value(metadata !{i1* %WBSlave.ack_o.m_if.Val}, i64 0, metadata !16240) nounwind, !dbg !16244 ; [debug line = 128:96@207:13@427:73@345:3@247:13] [debug variable = P]
  store volatile i1 true, i1* %WBSlave.ack_o.m_if.Val, align 1, !dbg !16245 ; [debug line = 167:116@207:13@427:73@345:3@247:13]
  %tmp.35 = zext i3 %WBSlave.STAT_ADDR.V.load to i64, !dbg !16052 ; [#uses=1 type=i64] [debug line = 346:20@247:13]
  %WBSlave.regs.addr.3 = getelementptr [16 x i32]* %WBSlave.regs, i64 0, i64 %tmp.35, !dbg !16052 ; [#uses=1 type=i32*] [debug line = 346:20@247:13]
  %WBSlave.regs.load.6 = load i32* %WBSlave.regs.addr.3, align 4, !dbg !16052 ; [#uses=1 type=i32] [debug line = 346:20@247:13]
  %v = icmp ne i32 %WBSlave.regs.load.6, 0, !dbg !16052 ; [#uses=1 type=i1] [debug line = 346:20@247:13]
  call void @llvm.dbg.value(metadata !{i1 %v}, i64 0, metadata !16246) nounwind, !dbg !16248 ; [debug line = 206:21@427:73@346:20@247:13] [debug variable = v]
  call void @llvm.dbg.value(metadata !{i1* %WBSlave.int_o.m_if.Val}, i64 0, metadata !16249) nounwind, !dbg !16251 ; [debug line = 128:96@207:13@427:73@346:20@247:13] [debug variable = P]
  store volatile i1 %v, i1* %WBSlave.int_o.m_if.Val, align 1, !dbg !16252 ; [debug line = 167:116@207:13@427:73@346:20@247:13]
  call void (...)* @_ssdm_op_Wait(i32 1) nounwind, !dbg !16253 ; [debug line = 803:19@347:7@247:13]
  br label %receive.exit, !dbg !16255             ; [debug line = 348:6@247:13]

; <label>:14                                      ; preds = %5
  %tmp. = icmp ugt i32 %val.V, 255, !dbg !16256   ; [#uses=1 type=i1] [debug line = 350:4@247:13]
  %tmp.5 = icmp ult i32 %val.V, 1280, !dbg !16256 ; [#uses=1 type=i1] [debug line = 350:4@247:13]
  %or.cond.i = and i1 %tmp., %tmp.5, !dbg !16256  ; [#uses=1 type=i1] [debug line = 350:4@247:13]
  br i1 %or.cond.i, label %15, label %._crit_edge.i, !dbg !16256 ; [debug line = 350:4@247:13]

; <label>:15                                      ; preds = %14
  call void @llvm.dbg.value(metadata !{i1* %WBSlave.clk.m_if.Val}, i64 0, metadata !16257), !dbg !16261 ; [debug line = 384:14@351:10@247:13] [debug variable = WBSlave.clk.m_if.Val]
  call void @llvm.dbg.value(metadata !{i1* %WBSlave.reset.m_if.Val}, i64 0, metadata !16262), !dbg !16261 ; [debug line = 384:14@351:10@247:13] [debug variable = WBSlave.reset.m_if.Val]
  call void @llvm.dbg.value(metadata !{i32* %WBSlave.adr_i.m_if.Val.V}, i64 0, metadata !16263), !dbg !16261 ; [debug line = 384:14@351:10@247:13] [debug variable = WBSlave.adr_i.m_if.Val.V]
  call void @llvm.dbg.value(metadata !{i32* %WBSlave.dat_i.m_if.Val.V}, i64 0, metadata !16264), !dbg !16261 ; [debug line = 384:14@351:10@247:13] [debug variable = WBSlave.dat_i.m_if.Val.V]
  call void @llvm.dbg.value(metadata !{i1* %WBSlave.we_i.m_if.Val}, i64 0, metadata !16265), !dbg !16261 ; [debug line = 384:14@351:10@247:13] [debug variable = WBSlave.we_i.m_if.Val]
  call void @llvm.dbg.value(metadata !{i1* %WBSlave.stb_i.m_if.Val}, i64 0, metadata !16266), !dbg !16261 ; [debug line = 384:14@351:10@247:13] [debug variable = WBSlave.stb_i.m_if.Val]
  call void @llvm.dbg.value(metadata !{i1* %WBSlave.cyc_i.m_if.Val}, i64 0, metadata !16267), !dbg !16261 ; [debug line = 384:14@351:10@247:13] [debug variable = WBSlave.cyc_i.m_if.Val]
  call void @llvm.dbg.value(metadata !{i4* %WBSlave.sel_i.m_if.Val.V}, i64 0, metadata !16268), !dbg !16261 ; [debug line = 384:14@351:10@247:13] [debug variable = WBSlave.sel_i.m_if.Val.V]
  call void @llvm.dbg.value(metadata !{i32* %WBSlave.dat_o.m_if.Val.V}, i64 0, metadata !16269), !dbg !16261 ; [debug line = 384:14@351:10@247:13] [debug variable = WBSlave.dat_o.m_if.Val.V]
  call void @llvm.dbg.value(metadata !{i1* %WBSlave.ack_o.m_if.Val}, i64 0, metadata !16270), !dbg !16261 ; [debug line = 384:14@351:10@247:13] [debug variable = WBSlave.ack_o.m_if.Val]
  call void @llvm.dbg.value(metadata !{i1* %WBSlave.int_o.m_if.Val}, i64 0, metadata !16271), !dbg !16261 ; [debug line = 384:14@351:10@247:13] [debug variable = WBSlave.int_o.m_if.Val]
  call void @llvm.dbg.value(metadata !{[16 x i32]* %WBSlave.regs}, i64 0, metadata !16272), !dbg !16261 ; [debug line = 384:14@351:10@247:13] [debug variable = WBSlave.regs]
  call void @llvm.dbg.value(metadata !{[500 x i32]* %WBSlave.PBuffer}, i64 0, metadata !16273), !dbg !16261 ; [debug line = 384:14@351:10@247:13] [debug variable = WBSlave.PBuffer]
  call void @llvm.dbg.value(metadata !{i3* %WBSlave.CTRL_ADDR.V}, i64 0, metadata !16274), !dbg !16261 ; [debug line = 384:14@351:10@247:13] [debug variable = WBSlave.CTRL_ADDR.V]
  call void @llvm.dbg.value(metadata !{i3* %WBSlave.STAT_ADDR.V}, i64 0, metadata !16275), !dbg !16261 ; [debug line = 384:14@351:10@247:13] [debug variable = WBSlave.STAT_ADDR.V]
  call void @llvm.dbg.value(metadata !{i21* %WBSlave.log_in.V}, i64 0, metadata !16276), !dbg !16261 ; [debug line = 384:14@351:10@247:13] [debug variable = WBSlave.log_in.V]
  call void @llvm.dbg.value(metadata !{i21* %WBSlave.log_out.V}, i64 0, metadata !16277), !dbg !16261 ; [debug line = 384:14@351:10@247:13] [debug variable = WBSlave.log_out.V]
  call void @llvm.dbg.value(metadata !{i1* %WBSlave.log_start.V}, i64 0, metadata !16278), !dbg !16261 ; [debug line = 384:14@351:10@247:13] [debug variable = WBSlave.log_start.V]
  call void @llvm.dbg.value(metadata !{i1* %WBSlave.log_done.V}, i64 0, metadata !16279), !dbg !16261 ; [debug line = 384:14@351:10@247:13] [debug variable = WBSlave.log_done.V]
  call void @llvm.dbg.value(metadata !{i3* %WBSlave.REG0_ADDR.V}, i64 0, metadata !16280), !dbg !16261 ; [debug line = 384:14@351:10@247:13] [debug variable = WBSlave.REG0_ADDR.V]
  call void @llvm.dbg.value(metadata !{i3* %WBSlave.REG1_ADDR.V}, i64 0, metadata !16281), !dbg !16261 ; [debug line = 384:14@351:10@247:13] [debug variable = WBSlave.REG1_ADDR.V]
  call void @llvm.dbg.value(metadata !{i3* %WBSlave.REG2_ADDR.V}, i64 0, metadata !16282), !dbg !16261 ; [debug line = 384:14@351:10@247:13] [debug variable = WBSlave.REG2_ADDR.V]
  call void @llvm.dbg.value(metadata !{i3* %WBSlave.REG3_ADDR.V}, i64 0, metadata !16283), !dbg !16261 ; [debug line = 384:14@351:10@247:13] [debug variable = WBSlave.REG3_ADDR.V]
  call void @llvm.dbg.value(metadata !{i3* %WBSlave.REG4_ADDR.V}, i64 0, metadata !16284), !dbg !16261 ; [debug line = 384:14@351:10@247:13] [debug variable = WBSlave.REG4_ADDR.V]
  call void @llvm.dbg.value(metadata !{i3* %WBSlave.DELAY_ADDR.V}, i64 0, metadata !16285), !dbg !16261 ; [debug line = 384:14@351:10@247:13] [debug variable = WBSlave.DELAY_ADDR.V]
  call void @llvm.dbg.value(metadata !{i3* %WBSlave.LAST_ADDR.V}, i64 0, metadata !16286), !dbg !16261 ; [debug line = 384:14@351:10@247:13] [debug variable = WBSlave.LAST_ADDR.V]
  %val.V.5 = load volatile i4* %WBSlave.sel_i.m_if.Val.V, align 1, !dbg !16287 ; [#uses=1 type=i4] [debug line = 374:13@60:21@180:66@351:73@386:22@351:10@247:13]
  call void @llvm.dbg.value(metadata !{i4 %val.V.5}, i64 0, metadata !16292), !dbg !16287 ; [debug line = 374:13@60:21@180:66@351:73@386:22@351:10@247:13] [debug variable = val.V]
  %select.2 = zext i4 %val.V.5 to i32, !dbg !16291 ; [#uses=1 type=i32] [debug line = 386:22@351:10@247:13]
  call void @llvm.dbg.value(metadata !{i32 %select.2}, i64 0, metadata !16293), !dbg !16291 ; [debug line = 386:22@351:10@247:13] [debug variable = select]
  br label %16, !dbg !16294                       ; [debug line = 387:23@351:10@247:13]

; <label>:16                                      ; preds = %18, %15
  %mask.8 = phi i32 [ 0, %15 ], [ %mask.11, %18 ] ; [#uses=2 type=i32]
  %select.0.i2 = phi i32 [ %select.2, %15 ], [ %select.6, %18 ] ; [#uses=2 type=i32]
  %i.0.i2 = phi i3 [ 0, %15 ], [ %i.2, %18 ]      ; [#uses=2 type=i3]
  %select.0.i2.cast = trunc i32 %select.0.i2 to i4, !dbg !16294 ; [#uses=1 type=i4] [debug line = 387:23@351:10@247:13]
  %exitcond.i3 = icmp eq i3 %i.0.i2, -4, !dbg !16294 ; [#uses=1 type=i1] [debug line = 387:23@351:10@247:13]
  %17 = call i32 (...)* @_ssdm_op_SpecLoopTripCount(i64 4, i64 4, i64 4) ; [#uses=0 type=i32]
  br i1 %exitcond.i3, label %gen_select_mask.exit66, label %18, !dbg !16294 ; [debug line = 387:23@351:10@247:13]

; <label>:18                                      ; preds = %16
  %mask.9 = shl i32 %mask.8, 8, !dbg !16295       ; [#uses=2 type=i32] [debug line = 388:13@351:10@247:13]
  call void @llvm.dbg.value(metadata !{i32 %mask.9}, i64 0, metadata !16296), !dbg !16295 ; [debug line = 388:13@351:10@247:13] [debug variable = mask]
  %tmp.28 = icmp sgt i4 %select.0.i2.cast, -1, !dbg !16297 ; [#uses=1 type=i1] [debug line = 389:13@351:10@247:13]
  %mask.10 = or i32 %mask.9, 255, !dbg !16298     ; [#uses=1 type=i32] [debug line = 390:17@351:10@247:13]
  call void @llvm.dbg.value(metadata !{i32 %mask.10}, i64 0, metadata !16296), !dbg !16298 ; [debug line = 390:17@351:10@247:13] [debug variable = mask]
  %mask.11 = select i1 %tmp.28, i32 %mask.9, i32 %mask.10, !dbg !16297 ; [#uses=1 type=i32] [debug line = 389:13@351:10@247:13]
  call void @llvm.dbg.value(metadata !{i32 %mask.11}, i64 0, metadata !16296), !dbg !16297 ; [debug line = 389:13@351:10@247:13] [debug variable = mask]
  %select.6 = shl i32 %select.0.i2, 1, !dbg !16299 ; [#uses=1 type=i32] [debug line = 392:13@351:10@247:13]
  call void @llvm.dbg.value(metadata !{i32 %select.6}, i64 0, metadata !16293), !dbg !16299 ; [debug line = 392:13@351:10@247:13] [debug variable = select]
  %i.2 = add i3 %i.0.i2, 1, !dbg !16300           ; [#uses=1 type=i3] [debug line = 387:32@351:10@247:13]
  call void @llvm.dbg.value(metadata !{i3 %i.2}, i64 0, metadata !16301), !dbg !16300 ; [debug line = 387:32@351:10@247:13] [debug variable = i]
  br label %16, !dbg !16300                       ; [debug line = 387:32@351:10@247:13]

gen_select_mask.exit66:                           ; preds = %16
  %mask.8.lcssa = phi i32 [ %mask.8, %16 ]        ; [#uses=2 type=i32]
  call void @llvm.dbg.value(metadata !{i32 %mask.8}, i64 0, metadata !16219) nounwind, !dbg !16259 ; [debug line = 351:10@247:13] [debug variable = mask]
  %tmp.22 = zext i32 %r.V to i64, !dbg !16302     ; [#uses=1 type=i64] [debug line = 352:3@247:13]
  %WBSlave.PBuffer.addr = getelementptr [500 x i32]* %WBSlave.PBuffer, i64 0, i64 %tmp.22, !dbg !16302 ; [#uses=2 type=i32*] [debug line = 352:3@247:13]
  %WBSlave.PBuffer.load = load i32* %WBSlave.PBuffer.addr, align 4, !dbg !16302 ; [#uses=1 type=i32] [debug line = 352:3@247:13]
  %tmp.23 = xor i32 %mask.8.lcssa, -1, !dbg !16302 ; [#uses=1 type=i32] [debug line = 352:3@247:13]
  %tmp.24 = and i32 %WBSlave.PBuffer.load, %tmp.23, !dbg !16302 ; [#uses=1 type=i32] [debug line = 352:3@247:13]
  %tmp.25 = and i32 %mask.8.lcssa, %val.V.1, !dbg !16303 ; [#uses=1 type=i32] [debug line = 352:48@247:13]
  %tmp.26 = or i32 %tmp.24, %tmp.25, !dbg !16303  ; [#uses=1 type=i32] [debug line = 352:48@247:13]
  store i32 %tmp.26, i32* %WBSlave.PBuffer.addr, align 4, !dbg !16303 ; [debug line = 352:48@247:13]
  %n.assign.2 = load i32* %WBSlave.regs.addr, align 4, !dbg !16304 ; [#uses=3 type=i32] [debug line = 353:12@247:13]
  %tmp.27 = icmp eq i32 %n.assign.2, 0, !dbg !16304 ; [#uses=1 type=i1] [debug line = 353:12@247:13]
  br i1 %tmp.27, label %_ZN7_ap_sc_7sc_core4waitEi.exit.i, label %19, !dbg !16304 ; [debug line = 353:12@247:13]

; <label>:19                                      ; preds = %gen_select_mask.exit66
  call void @llvm.dbg.value(metadata !{i32 %n.assign.2}, i64 0, metadata !16305) nounwind, !dbg !16307 ; [debug line = 802:53@353:39@247:13] [debug variable = n]
  %tmp.33 = icmp slt i32 %n.assign.2, 2, !dbg !16308 ; [#uses=1 type=i1] [debug line = 803:5@353:39@247:13]
  br i1 %tmp.33, label %20, label %.preheader.i, !dbg !16308 ; [debug line = 803:5@353:39@247:13]

; <label>:20                                      ; preds = %19
  call void (...)* @_ssdm_op_Wait(i32 1) nounwind, !dbg !16309 ; [debug line = 803:19@353:39@247:13]
  br label %_ZN7_ap_sc_7sc_core4waitEi.exit3.i, !dbg !16310 ; [debug line = 803:37@353:39@247:13]

.preheader.i:                                     ; preds = %22, %19
  %i.i2.0.i = phi i31 [ %i.6, %22 ], [ 0, %19 ]   ; [#uses=2 type=i31]
  %i.i2.0.i.cast = zext i31 %i.i2.0.i to i32, !dbg !16311 ; [#uses=1 type=i32] [debug line = 804:19@353:39@247:13]
  %exitcond.i = icmp eq i32 %i.i2.0.i.cast, %n.assign.2, !dbg !16311 ; [#uses=1 type=i1] [debug line = 804:19@353:39@247:13]
  %21 = call i32 (...)* @_ssdm_op_SpecLoopTripCount(i64 2, i64 -1, i64 0) ; [#uses=0 type=i32]
  br i1 %exitcond.i, label %_ZN7_ap_sc_7sc_core4waitEi.exit3.i, label %22, !dbg !16311 ; [debug line = 804:19@353:39@247:13]

; <label>:22                                      ; preds = %.preheader.i
  call void (...)* @_ssdm_op_Wait(i32 1) nounwind, !dbg !16312 ; [debug line = 806:2@353:39@247:13]
  %i.6 = add i31 %i.i2.0.i, 1, !dbg !16313        ; [#uses=1 type=i31] [debug line = 804:28@353:39@247:13]
  call void @llvm.dbg.value(metadata !{i31 %i.6}, i64 0, metadata !16314) nounwind, !dbg !16313 ; [debug line = 804:28@353:39@247:13] [debug variable = i]
  br label %.preheader.i, !dbg !16313             ; [debug line = 804:28@353:39@247:13]

_ZN7_ap_sc_7sc_core4waitEi.exit3.i:               ; preds = %.preheader.i, %20
  br label %_ZN7_ap_sc_7sc_core4waitEi.exit.i, !dbg !16306 ; [debug line = 353:39@247:13]

_ZN7_ap_sc_7sc_core4waitEi.exit.i:                ; preds = %_ZN7_ap_sc_7sc_core4waitEi.exit3.i, %gen_select_mask.exit66
  call void @llvm.dbg.value(metadata !{i1* %WBSlave.ack_o.m_if.Val}, i64 0, metadata !16315) nounwind, !dbg !16319 ; [debug line = 128:96@207:13@427:73@354:3@247:13] [debug variable = P]
  store volatile i1 true, i1* %WBSlave.ack_o.m_if.Val, align 1, !dbg !16320 ; [debug line = 167:116@207:13@427:73@354:3@247:13]
  %tmp.37 = zext i3 %WBSlave.STAT_ADDR.V.load to i64, !dbg !16321 ; [#uses=1 type=i64] [debug line = 355:20@247:13]
  %WBSlave.regs.addr.5 = getelementptr [16 x i32]* %WBSlave.regs, i64 0, i64 %tmp.37, !dbg !16321 ; [#uses=1 type=i32*] [debug line = 355:20@247:13]
  %WBSlave.regs.load.8 = load i32* %WBSlave.regs.addr.5, align 4, !dbg !16321 ; [#uses=1 type=i32] [debug line = 355:20@247:13]
  %v.2 = icmp ne i32 %WBSlave.regs.load.8, 0, !dbg !16321 ; [#uses=1 type=i1] [debug line = 355:20@247:13]
  call void @llvm.dbg.value(metadata !{i1 %v.2}, i64 0, metadata !16322) nounwind, !dbg !16324 ; [debug line = 206:21@427:73@355:20@247:13] [debug variable = v]
  call void @llvm.dbg.value(metadata !{i1* %WBSlave.int_o.m_if.Val}, i64 0, metadata !16325) nounwind, !dbg !16327 ; [debug line = 128:96@207:13@427:73@355:20@247:13] [debug variable = P]
  store volatile i1 %v.2, i1* %WBSlave.int_o.m_if.Val, align 1, !dbg !16328 ; [debug line = 167:116@207:13@427:73@355:20@247:13]
  call void (...)* @_ssdm_op_Wait(i32 1) nounwind, !dbg !16329 ; [debug line = 803:19@356:7@247:13]
  br label %._crit_edge.i, !dbg !16331            ; [debug line = 357:2@247:13]

._crit_edge.i:                                    ; preds = %_ZN7_ap_sc_7sc_core4waitEi.exit.i, %14
  br label %receive.exit

receive.exit:                                     ; preds = %._crit_edge.i, %_ZN7_ap_sc_7sc_core4waitEi.exit9.i
  br label %41, !dbg !16332                       ; [debug line = 248:9]

; <label>:23                                      ; preds = %._crit_edge
  call void @llvm.dbg.value(metadata !{i1* %WBSlave.clk.m_if.Val}, i64 0, metadata !16333), !dbg !16338 ; [debug line = 360:15@249:13] [debug variable = WBSlave.clk.m_if.Val]
  call void @llvm.dbg.value(metadata !{i1* %WBSlave.reset.m_if.Val}, i64 0, metadata !16339), !dbg !16338 ; [debug line = 360:15@249:13] [debug variable = WBSlave.reset.m_if.Val]
  call void @llvm.dbg.value(metadata !{i32* %WBSlave.adr_i.m_if.Val.V}, i64 0, metadata !16340), !dbg !16338 ; [debug line = 360:15@249:13] [debug variable = WBSlave.adr_i.m_if.Val.V]
  call void @llvm.dbg.value(metadata !{i32* %WBSlave.dat_i.m_if.Val.V}, i64 0, metadata !16341), !dbg !16338 ; [debug line = 360:15@249:13] [debug variable = WBSlave.dat_i.m_if.Val.V]
  call void @llvm.dbg.value(metadata !{i1* %WBSlave.we_i.m_if.Val}, i64 0, metadata !16342), !dbg !16338 ; [debug line = 360:15@249:13] [debug variable = WBSlave.we_i.m_if.Val]
  call void @llvm.dbg.value(metadata !{i1* %WBSlave.stb_i.m_if.Val}, i64 0, metadata !16343), !dbg !16338 ; [debug line = 360:15@249:13] [debug variable = WBSlave.stb_i.m_if.Val]
  call void @llvm.dbg.value(metadata !{i1* %WBSlave.cyc_i.m_if.Val}, i64 0, metadata !16344), !dbg !16338 ; [debug line = 360:15@249:13] [debug variable = WBSlave.cyc_i.m_if.Val]
  call void @llvm.dbg.value(metadata !{i4* %WBSlave.sel_i.m_if.Val.V}, i64 0, metadata !16345), !dbg !16338 ; [debug line = 360:15@249:13] [debug variable = WBSlave.sel_i.m_if.Val.V]
  call void @llvm.dbg.value(metadata !{i32* %WBSlave.dat_o.m_if.Val.V}, i64 0, metadata !16346), !dbg !16338 ; [debug line = 360:15@249:13] [debug variable = WBSlave.dat_o.m_if.Val.V]
  call void @llvm.dbg.value(metadata !{i1* %WBSlave.ack_o.m_if.Val}, i64 0, metadata !16347), !dbg !16338 ; [debug line = 360:15@249:13] [debug variable = WBSlave.ack_o.m_if.Val]
  call void @llvm.dbg.value(metadata !{i1* %WBSlave.int_o.m_if.Val}, i64 0, metadata !16348), !dbg !16338 ; [debug line = 360:15@249:13] [debug variable = WBSlave.int_o.m_if.Val]
  call void @llvm.dbg.value(metadata !{[16 x i32]* %WBSlave.regs}, i64 0, metadata !16349), !dbg !16338 ; [debug line = 360:15@249:13] [debug variable = WBSlave.regs]
  call void @llvm.dbg.value(metadata !{[500 x i32]* %WBSlave.PBuffer}, i64 0, metadata !16350), !dbg !16338 ; [debug line = 360:15@249:13] [debug variable = WBSlave.PBuffer]
  call void @llvm.dbg.value(metadata !{i3* %WBSlave.CTRL_ADDR.V}, i64 0, metadata !16351), !dbg !16338 ; [debug line = 360:15@249:13] [debug variable = WBSlave.CTRL_ADDR.V]
  call void @llvm.dbg.value(metadata !{i3* %WBSlave.STAT_ADDR.V}, i64 0, metadata !16352), !dbg !16338 ; [debug line = 360:15@249:13] [debug variable = WBSlave.STAT_ADDR.V]
  call void @llvm.dbg.value(metadata !{i21* %WBSlave.log_in.V}, i64 0, metadata !16353), !dbg !16338 ; [debug line = 360:15@249:13] [debug variable = WBSlave.log_in.V]
  call void @llvm.dbg.value(metadata !{i21* %WBSlave.log_out.V}, i64 0, metadata !16354), !dbg !16338 ; [debug line = 360:15@249:13] [debug variable = WBSlave.log_out.V]
  call void @llvm.dbg.value(metadata !{i1* %WBSlave.log_start.V}, i64 0, metadata !16355), !dbg !16338 ; [debug line = 360:15@249:13] [debug variable = WBSlave.log_start.V]
  call void @llvm.dbg.value(metadata !{i1* %WBSlave.log_done.V}, i64 0, metadata !16356), !dbg !16338 ; [debug line = 360:15@249:13] [debug variable = WBSlave.log_done.V]
  call void @llvm.dbg.value(metadata !{i3* %WBSlave.REG0_ADDR.V}, i64 0, metadata !16357), !dbg !16338 ; [debug line = 360:15@249:13] [debug variable = WBSlave.REG0_ADDR.V]
  call void @llvm.dbg.value(metadata !{i3* %WBSlave.REG1_ADDR.V}, i64 0, metadata !16358), !dbg !16338 ; [debug line = 360:15@249:13] [debug variable = WBSlave.REG1_ADDR.V]
  call void @llvm.dbg.value(metadata !{i3* %WBSlave.REG2_ADDR.V}, i64 0, metadata !16359), !dbg !16338 ; [debug line = 360:15@249:13] [debug variable = WBSlave.REG2_ADDR.V]
  call void @llvm.dbg.value(metadata !{i3* %WBSlave.REG3_ADDR.V}, i64 0, metadata !16360), !dbg !16338 ; [debug line = 360:15@249:13] [debug variable = WBSlave.REG3_ADDR.V]
  call void @llvm.dbg.value(metadata !{i3* %WBSlave.REG4_ADDR.V}, i64 0, metadata !16361), !dbg !16338 ; [debug line = 360:15@249:13] [debug variable = WBSlave.REG4_ADDR.V]
  call void @llvm.dbg.value(metadata !{i3* %WBSlave.DELAY_ADDR.V}, i64 0, metadata !16362), !dbg !16338 ; [debug line = 360:15@249:13] [debug variable = WBSlave.DELAY_ADDR.V]
  call void @llvm.dbg.value(metadata !{i3* %WBSlave.LAST_ADDR.V}, i64 0, metadata !16363), !dbg !16338 ; [debug line = 360:15@249:13] [debug variable = WBSlave.LAST_ADDR.V]
  %val.V.2 = load volatile i32* %WBSlave.adr_i.m_if.Val.V, align 4, !dbg !16364 ; [#uses=4 type=i32] [debug line = 374:13@60:21@180:66@351:73@361:22@249:13]
  call void @llvm.dbg.value(metadata !{i32 %val.V.2}, i64 0, metadata !16370) nounwind, !dbg !16364 ; [debug line = 374:13@60:21@180:66@351:73@361:22@249:13] [debug variable = val.V]
  %r.V.1 = lshr i32 %val.V.2, 2, !dbg !16371      ; [#uses=2 type=i32] [debug line = 3716:198@361:22@249:13]
  call void @llvm.dbg.value(metadata !{i32 %r.V.1}, i64 0, metadata !16372) nounwind, !dbg !16371 ; [debug line = 3716:198@361:22@249:13] [debug variable = r.V]
  call void @llvm.dbg.value(metadata !{i32 %r.V.1}, i64 0, metadata !16373) nounwind, !dbg !16368 ; [debug line = 361:22@249:13] [debug variable = addr]
  %tmp.8 = icmp ult i32 %val.V.2, 64, !dbg !16374 ; [#uses=1 type=i1] [debug line = 364:2@249:13]
  br i1 %tmp.8, label %24, label %32, !dbg !16374 ; [debug line = 364:2@249:13]

; <label>:24                                      ; preds = %23
  call void @llvm.dbg.value(metadata !{i1* %WBSlave.clk.m_if.Val}, i64 0, metadata !16375), !dbg !16379 ; [debug line = 384:14@365:10@249:13] [debug variable = WBSlave.clk.m_if.Val]
  call void @llvm.dbg.value(metadata !{i1* %WBSlave.reset.m_if.Val}, i64 0, metadata !16380), !dbg !16379 ; [debug line = 384:14@365:10@249:13] [debug variable = WBSlave.reset.m_if.Val]
  call void @llvm.dbg.value(metadata !{i32* %WBSlave.adr_i.m_if.Val.V}, i64 0, metadata !16381), !dbg !16379 ; [debug line = 384:14@365:10@249:13] [debug variable = WBSlave.adr_i.m_if.Val.V]
  call void @llvm.dbg.value(metadata !{i32* %WBSlave.dat_i.m_if.Val.V}, i64 0, metadata !16382), !dbg !16379 ; [debug line = 384:14@365:10@249:13] [debug variable = WBSlave.dat_i.m_if.Val.V]
  call void @llvm.dbg.value(metadata !{i1* %WBSlave.we_i.m_if.Val}, i64 0, metadata !16383), !dbg !16379 ; [debug line = 384:14@365:10@249:13] [debug variable = WBSlave.we_i.m_if.Val]
  call void @llvm.dbg.value(metadata !{i1* %WBSlave.stb_i.m_if.Val}, i64 0, metadata !16384), !dbg !16379 ; [debug line = 384:14@365:10@249:13] [debug variable = WBSlave.stb_i.m_if.Val]
  call void @llvm.dbg.value(metadata !{i1* %WBSlave.cyc_i.m_if.Val}, i64 0, metadata !16385), !dbg !16379 ; [debug line = 384:14@365:10@249:13] [debug variable = WBSlave.cyc_i.m_if.Val]
  call void @llvm.dbg.value(metadata !{i4* %WBSlave.sel_i.m_if.Val.V}, i64 0, metadata !16386), !dbg !16379 ; [debug line = 384:14@365:10@249:13] [debug variable = WBSlave.sel_i.m_if.Val.V]
  call void @llvm.dbg.value(metadata !{i32* %WBSlave.dat_o.m_if.Val.V}, i64 0, metadata !16387), !dbg !16379 ; [debug line = 384:14@365:10@249:13] [debug variable = WBSlave.dat_o.m_if.Val.V]
  call void @llvm.dbg.value(metadata !{i1* %WBSlave.ack_o.m_if.Val}, i64 0, metadata !16388), !dbg !16379 ; [debug line = 384:14@365:10@249:13] [debug variable = WBSlave.ack_o.m_if.Val]
  call void @llvm.dbg.value(metadata !{i1* %WBSlave.int_o.m_if.Val}, i64 0, metadata !16389), !dbg !16379 ; [debug line = 384:14@365:10@249:13] [debug variable = WBSlave.int_o.m_if.Val]
  call void @llvm.dbg.value(metadata !{[16 x i32]* %WBSlave.regs}, i64 0, metadata !16390), !dbg !16379 ; [debug line = 384:14@365:10@249:13] [debug variable = WBSlave.regs]
  call void @llvm.dbg.value(metadata !{[500 x i32]* %WBSlave.PBuffer}, i64 0, metadata !16391), !dbg !16379 ; [debug line = 384:14@365:10@249:13] [debug variable = WBSlave.PBuffer]
  call void @llvm.dbg.value(metadata !{i3* %WBSlave.CTRL_ADDR.V}, i64 0, metadata !16392), !dbg !16379 ; [debug line = 384:14@365:10@249:13] [debug variable = WBSlave.CTRL_ADDR.V]
  call void @llvm.dbg.value(metadata !{i3* %WBSlave.STAT_ADDR.V}, i64 0, metadata !16393), !dbg !16379 ; [debug line = 384:14@365:10@249:13] [debug variable = WBSlave.STAT_ADDR.V]
  call void @llvm.dbg.value(metadata !{i21* %WBSlave.log_in.V}, i64 0, metadata !16394), !dbg !16379 ; [debug line = 384:14@365:10@249:13] [debug variable = WBSlave.log_in.V]
  call void @llvm.dbg.value(metadata !{i21* %WBSlave.log_out.V}, i64 0, metadata !16395), !dbg !16379 ; [debug line = 384:14@365:10@249:13] [debug variable = WBSlave.log_out.V]
  call void @llvm.dbg.value(metadata !{i1* %WBSlave.log_start.V}, i64 0, metadata !16396), !dbg !16379 ; [debug line = 384:14@365:10@249:13] [debug variable = WBSlave.log_start.V]
  call void @llvm.dbg.value(metadata !{i1* %WBSlave.log_done.V}, i64 0, metadata !16397), !dbg !16379 ; [debug line = 384:14@365:10@249:13] [debug variable = WBSlave.log_done.V]
  call void @llvm.dbg.value(metadata !{i3* %WBSlave.REG0_ADDR.V}, i64 0, metadata !16398), !dbg !16379 ; [debug line = 384:14@365:10@249:13] [debug variable = WBSlave.REG0_ADDR.V]
  call void @llvm.dbg.value(metadata !{i3* %WBSlave.REG1_ADDR.V}, i64 0, metadata !16399), !dbg !16379 ; [debug line = 384:14@365:10@249:13] [debug variable = WBSlave.REG1_ADDR.V]
  call void @llvm.dbg.value(metadata !{i3* %WBSlave.REG2_ADDR.V}, i64 0, metadata !16400), !dbg !16379 ; [debug line = 384:14@365:10@249:13] [debug variable = WBSlave.REG2_ADDR.V]
  call void @llvm.dbg.value(metadata !{i3* %WBSlave.REG3_ADDR.V}, i64 0, metadata !16401), !dbg !16379 ; [debug line = 384:14@365:10@249:13] [debug variable = WBSlave.REG3_ADDR.V]
  call void @llvm.dbg.value(metadata !{i3* %WBSlave.REG4_ADDR.V}, i64 0, metadata !16402), !dbg !16379 ; [debug line = 384:14@365:10@249:13] [debug variable = WBSlave.REG4_ADDR.V]
  call void @llvm.dbg.value(metadata !{i3* %WBSlave.DELAY_ADDR.V}, i64 0, metadata !16403), !dbg !16379 ; [debug line = 384:14@365:10@249:13] [debug variable = WBSlave.DELAY_ADDR.V]
  call void @llvm.dbg.value(metadata !{i3* %WBSlave.LAST_ADDR.V}, i64 0, metadata !16404), !dbg !16379 ; [debug line = 384:14@365:10@249:13] [debug variable = WBSlave.LAST_ADDR.V]
  %val.V.4 = load volatile i4* %WBSlave.sel_i.m_if.Val.V, align 1, !dbg !16405 ; [#uses=1 type=i4] [debug line = 374:13@60:21@180:66@351:73@386:22@365:10@249:13]
  call void @llvm.dbg.value(metadata !{i4 %val.V.4}, i64 0, metadata !16410), !dbg !16405 ; [debug line = 374:13@60:21@180:66@351:73@386:22@365:10@249:13] [debug variable = val.V]
  %select.1 = zext i4 %val.V.4 to i32, !dbg !16409 ; [#uses=1 type=i32] [debug line = 386:22@365:10@249:13]
  call void @llvm.dbg.value(metadata !{i32 %select.1}, i64 0, metadata !16411), !dbg !16409 ; [debug line = 386:22@365:10@249:13] [debug variable = select]
  br label %25, !dbg !16412                       ; [debug line = 387:23@365:10@249:13]

; <label>:25                                      ; preds = %27, %24
  %mask.4 = phi i32 [ 0, %24 ], [ %mask.7, %27 ]  ; [#uses=2 type=i32]
  %select.0.i1 = phi i32 [ %select.1, %24 ], [ %select.5, %27 ] ; [#uses=2 type=i32]
  %i.0.i1 = phi i3 [ 0, %24 ], [ %i.1, %27 ]      ; [#uses=2 type=i3]
  %select.0.i1.cast = trunc i32 %select.0.i1 to i4, !dbg !16412 ; [#uses=1 type=i4] [debug line = 387:23@365:10@249:13]
  %exitcond.i2 = icmp eq i3 %i.0.i1, -4, !dbg !16412 ; [#uses=1 type=i1] [debug line = 387:23@365:10@249:13]
  %26 = call i32 (...)* @_ssdm_op_SpecLoopTripCount(i64 4, i64 4, i64 4) ; [#uses=0 type=i32]
  br i1 %exitcond.i2, label %gen_select_mask.exit72, label %27, !dbg !16412 ; [debug line = 387:23@365:10@249:13]

; <label>:27                                      ; preds = %25
  %mask.5 = shl i32 %mask.4, 8, !dbg !16413       ; [#uses=2 type=i32] [debug line = 388:13@365:10@249:13]
  call void @llvm.dbg.value(metadata !{i32 %mask.5}, i64 0, metadata !16414), !dbg !16413 ; [debug line = 388:13@365:10@249:13] [debug variable = mask]
  %tmp.19 = icmp sgt i4 %select.0.i1.cast, -1, !dbg !16415 ; [#uses=1 type=i1] [debug line = 389:13@365:10@249:13]
  %mask.6 = or i32 %mask.5, 255, !dbg !16416      ; [#uses=1 type=i32] [debug line = 390:17@365:10@249:13]
  call void @llvm.dbg.value(metadata !{i32 %mask.6}, i64 0, metadata !16414), !dbg !16416 ; [debug line = 390:17@365:10@249:13] [debug variable = mask]
  %mask.7 = select i1 %tmp.19, i32 %mask.5, i32 %mask.6, !dbg !16415 ; [#uses=1 type=i32] [debug line = 389:13@365:10@249:13]
  call void @llvm.dbg.value(metadata !{i32 %mask.7}, i64 0, metadata !16414), !dbg !16415 ; [debug line = 389:13@365:10@249:13] [debug variable = mask]
  %select.5 = shl i32 %select.0.i1, 1, !dbg !16417 ; [#uses=1 type=i32] [debug line = 392:13@365:10@249:13]
  call void @llvm.dbg.value(metadata !{i32 %select.5}, i64 0, metadata !16411), !dbg !16417 ; [debug line = 392:13@365:10@249:13] [debug variable = select]
  %i.1 = add i3 %i.0.i1, 1, !dbg !16418           ; [#uses=1 type=i3] [debug line = 387:32@365:10@249:13]
  call void @llvm.dbg.value(metadata !{i3 %i.1}, i64 0, metadata !16419), !dbg !16418 ; [debug line = 387:32@365:10@249:13] [debug variable = i]
  br label %25, !dbg !16418                       ; [debug line = 387:32@365:10@249:13]

gen_select_mask.exit72:                           ; preds = %25
  %mask.4.lcssa = phi i32 [ %mask.4, %25 ]        ; [#uses=1 type=i32]
  call void @llvm.dbg.value(metadata !{i32 %mask.4}, i64 0, metadata !16420) nounwind, !dbg !16377 ; [debug line = 365:10@249:13] [debug variable = mask]
  %tmp.16 = zext i32 %r.V.1 to i64, !dbg !16421   ; [#uses=1 type=i64] [debug line = 366:3@249:13]
  %WBSlave.regs.addr.2 = getelementptr [16 x i32]* %WBSlave.regs, i64 0, i64 %tmp.16, !dbg !16421 ; [#uses=1 type=i32*] [debug line = 366:3@249:13]
  %WBSlave.regs.load.2 = load i32* %WBSlave.regs.addr.2, align 4, !dbg !16421 ; [#uses=1 type=i32] [debug line = 366:3@249:13]
  %v.assign = and i32 %WBSlave.regs.load.2, %mask.4.lcssa, !dbg !16421 ; [#uses=1 type=i32] [debug line = 366:3@249:13]
  call void @llvm.dbg.value(metadata !{i32 %v.assign}, i64 0, metadata !16422) nounwind, !dbg !16424 ; [debug line = 344:68@366:3@249:13] [debug variable = v]
  call void @llvm.dbg.value(metadata !{i32 %v.assign}, i64 0, metadata !16425) nounwind, !dbg !16428 ; [debug line = 344:68@344:91@366:3@249:13] [debug variable = v]
  call void @llvm.dbg.value(metadata !{i32 %v.assign}, i64 0, metadata !16429) nounwind, !dbg !16432 ; [debug line = 1457:77@344:89@344:91@366:3@249:13] [debug variable = op]
  call void @llvm.dbg.value(metadata !{i32 %v.assign}, i64 0, metadata !16433) nounwind, !dbg !16436 ; [debug line = 206:21@427:73@366:3@249:13] [debug variable = v.V]
  store volatile i32 %v.assign, i32* %WBSlave.dat_o.m_if.Val.V, align 4, !dbg !16437 ; [debug line = 365:13@56:100@207:13@427:73@366:3@249:13]
  %n.assign.1 = load i32* %WBSlave.regs.addr, align 4, !dbg !16440 ; [#uses=3 type=i32] [debug line = 367:12@249:13]
  %tmp.17 = icmp eq i32 %n.assign.1, 0, !dbg !16440 ; [#uses=1 type=i1] [debug line = 367:12@249:13]
  br i1 %tmp.17, label %_ZN7_ap_sc_7sc_core4waitEi.exit11.i, label %28, !dbg !16440 ; [debug line = 367:12@249:13]

; <label>:28                                      ; preds = %gen_select_mask.exit72
  call void @llvm.dbg.value(metadata !{i32 %n.assign.1}, i64 0, metadata !16441) nounwind, !dbg !16443 ; [debug line = 802:53@367:39@249:13] [debug variable = n]
  %tmp.29 = icmp slt i32 %n.assign.1, 2, !dbg !16444 ; [#uses=1 type=i1] [debug line = 803:5@367:39@249:13]
  br i1 %tmp.29, label %29, label %.preheader106.i, !dbg !16444 ; [debug line = 803:5@367:39@249:13]

; <label>:29                                      ; preds = %28
  call void (...)* @_ssdm_op_Wait(i32 1) nounwind, !dbg !16445 ; [debug line = 803:19@367:39@249:13]
  br label %_ZN7_ap_sc_7sc_core4waitEi.exit7.i, !dbg !16446 ; [debug line = 803:37@367:39@249:13]

.preheader106.i:                                  ; preds = %31, %28
  %i.i6.0.i = phi i31 [ %i.5, %31 ], [ 0, %28 ]   ; [#uses=2 type=i31]
  %i.i6.0.i.cast = zext i31 %i.i6.0.i to i32, !dbg !16447 ; [#uses=1 type=i32] [debug line = 804:19@367:39@249:13]
  %exitcond105.i = icmp eq i32 %i.i6.0.i.cast, %n.assign.1, !dbg !16447 ; [#uses=1 type=i1] [debug line = 804:19@367:39@249:13]
  %30 = call i32 (...)* @_ssdm_op_SpecLoopTripCount(i64 2, i64 -1, i64 0) ; [#uses=0 type=i32]
  br i1 %exitcond105.i, label %_ZN7_ap_sc_7sc_core4waitEi.exit7.i, label %31, !dbg !16447 ; [debug line = 804:19@367:39@249:13]

; <label>:31                                      ; preds = %.preheader106.i
  call void (...)* @_ssdm_op_Wait(i32 1) nounwind, !dbg !16448 ; [debug line = 806:2@367:39@249:13]
  %i.5 = add i31 %i.i6.0.i, 1, !dbg !16449        ; [#uses=1 type=i31] [debug line = 804:28@367:39@249:13]
  call void @llvm.dbg.value(metadata !{i31 %i.5}, i64 0, metadata !16450) nounwind, !dbg !16449 ; [debug line = 804:28@367:39@249:13] [debug variable = i]
  br label %.preheader106.i, !dbg !16449          ; [debug line = 804:28@367:39@249:13]

_ZN7_ap_sc_7sc_core4waitEi.exit7.i:               ; preds = %.preheader106.i, %29
  br label %_ZN7_ap_sc_7sc_core4waitEi.exit11.i, !dbg !16442 ; [debug line = 367:39@249:13]

_ZN7_ap_sc_7sc_core4waitEi.exit11.i:              ; preds = %_ZN7_ap_sc_7sc_core4waitEi.exit7.i, %gen_select_mask.exit72
  call void @llvm.dbg.value(metadata !{i1* %WBSlave.ack_o.m_if.Val}, i64 0, metadata !16451) nounwind, !dbg !16455 ; [debug line = 128:96@207:13@427:73@368:3@249:13] [debug variable = P]
  store volatile i1 true, i1* %WBSlave.ack_o.m_if.Val, align 1, !dbg !16456 ; [debug line = 167:116@207:13@427:73@368:3@249:13]
  %tmp.36 = zext i3 %WBSlave.STAT_ADDR.V.load to i64, !dbg !16457 ; [#uses=1 type=i64] [debug line = 369:20@249:13]
  %WBSlave.regs.addr.4 = getelementptr [16 x i32]* %WBSlave.regs, i64 0, i64 %tmp.36, !dbg !16457 ; [#uses=1 type=i32*] [debug line = 369:20@249:13]
  %WBSlave.regs.load.7 = load i32* %WBSlave.regs.addr.4, align 4, !dbg !16457 ; [#uses=1 type=i32] [debug line = 369:20@249:13]
  %v.1 = icmp ne i32 %WBSlave.regs.load.7, 0, !dbg !16457 ; [#uses=1 type=i1] [debug line = 369:20@249:13]
  call void @llvm.dbg.value(metadata !{i1 %v.1}, i64 0, metadata !16458) nounwind, !dbg !16460 ; [debug line = 206:21@427:73@369:20@249:13] [debug variable = v]
  call void @llvm.dbg.value(metadata !{i1* %WBSlave.int_o.m_if.Val}, i64 0, metadata !16461) nounwind, !dbg !16463 ; [debug line = 128:96@207:13@427:73@369:20@249:13] [debug variable = P]
  store volatile i1 %v.1, i1* %WBSlave.int_o.m_if.Val, align 1, !dbg !16464 ; [debug line = 167:116@207:13@427:73@369:20@249:13]
  call void (...)* @_ssdm_op_Wait(i32 1) nounwind, !dbg !16465 ; [debug line = 803:19@370:3@249:13]
  br label %send.exit, !dbg !16467                ; [debug line = 371:6@249:13]

; <label>:32                                      ; preds = %23
  %tmp.7 = icmp ugt i32 %val.V.2, 255, !dbg !16468 ; [#uses=1 type=i1] [debug line = 373:5@249:13]
  %tmp.9 = icmp ult i32 %val.V.2, 1280, !dbg !16468 ; [#uses=1 type=i1] [debug line = 373:5@249:13]
  %or.cond.i1 = and i1 %tmp.7, %tmp.9, !dbg !16468 ; [#uses=1 type=i1] [debug line = 373:5@249:13]
  br i1 %or.cond.i1, label %33, label %._crit_edge.i59, !dbg !16468 ; [debug line = 373:5@249:13]

; <label>:33                                      ; preds = %32
  call void @llvm.dbg.value(metadata !{i1* %WBSlave.clk.m_if.Val}, i64 0, metadata !16469), !dbg !16473 ; [debug line = 384:14@374:10@249:13] [debug variable = WBSlave.clk.m_if.Val]
  call void @llvm.dbg.value(metadata !{i1* %WBSlave.reset.m_if.Val}, i64 0, metadata !16474), !dbg !16473 ; [debug line = 384:14@374:10@249:13] [debug variable = WBSlave.reset.m_if.Val]
  call void @llvm.dbg.value(metadata !{i32* %WBSlave.adr_i.m_if.Val.V}, i64 0, metadata !16475), !dbg !16473 ; [debug line = 384:14@374:10@249:13] [debug variable = WBSlave.adr_i.m_if.Val.V]
  call void @llvm.dbg.value(metadata !{i32* %WBSlave.dat_i.m_if.Val.V}, i64 0, metadata !16476), !dbg !16473 ; [debug line = 384:14@374:10@249:13] [debug variable = WBSlave.dat_i.m_if.Val.V]
  call void @llvm.dbg.value(metadata !{i1* %WBSlave.we_i.m_if.Val}, i64 0, metadata !16477), !dbg !16473 ; [debug line = 384:14@374:10@249:13] [debug variable = WBSlave.we_i.m_if.Val]
  call void @llvm.dbg.value(metadata !{i1* %WBSlave.stb_i.m_if.Val}, i64 0, metadata !16478), !dbg !16473 ; [debug line = 384:14@374:10@249:13] [debug variable = WBSlave.stb_i.m_if.Val]
  call void @llvm.dbg.value(metadata !{i1* %WBSlave.cyc_i.m_if.Val}, i64 0, metadata !16479), !dbg !16473 ; [debug line = 384:14@374:10@249:13] [debug variable = WBSlave.cyc_i.m_if.Val]
  call void @llvm.dbg.value(metadata !{i4* %WBSlave.sel_i.m_if.Val.V}, i64 0, metadata !16480), !dbg !16473 ; [debug line = 384:14@374:10@249:13] [debug variable = WBSlave.sel_i.m_if.Val.V]
  call void @llvm.dbg.value(metadata !{i32* %WBSlave.dat_o.m_if.Val.V}, i64 0, metadata !16481), !dbg !16473 ; [debug line = 384:14@374:10@249:13] [debug variable = WBSlave.dat_o.m_if.Val.V]
  call void @llvm.dbg.value(metadata !{i1* %WBSlave.ack_o.m_if.Val}, i64 0, metadata !16482), !dbg !16473 ; [debug line = 384:14@374:10@249:13] [debug variable = WBSlave.ack_o.m_if.Val]
  call void @llvm.dbg.value(metadata !{i1* %WBSlave.int_o.m_if.Val}, i64 0, metadata !16483), !dbg !16473 ; [debug line = 384:14@374:10@249:13] [debug variable = WBSlave.int_o.m_if.Val]
  call void @llvm.dbg.value(metadata !{[16 x i32]* %WBSlave.regs}, i64 0, metadata !16484), !dbg !16473 ; [debug line = 384:14@374:10@249:13] [debug variable = WBSlave.regs]
  call void @llvm.dbg.value(metadata !{[500 x i32]* %WBSlave.PBuffer}, i64 0, metadata !16485), !dbg !16473 ; [debug line = 384:14@374:10@249:13] [debug variable = WBSlave.PBuffer]
  call void @llvm.dbg.value(metadata !{i3* %WBSlave.CTRL_ADDR.V}, i64 0, metadata !16486), !dbg !16473 ; [debug line = 384:14@374:10@249:13] [debug variable = WBSlave.CTRL_ADDR.V]
  call void @llvm.dbg.value(metadata !{i3* %WBSlave.STAT_ADDR.V}, i64 0, metadata !16487), !dbg !16473 ; [debug line = 384:14@374:10@249:13] [debug variable = WBSlave.STAT_ADDR.V]
  call void @llvm.dbg.value(metadata !{i21* %WBSlave.log_in.V}, i64 0, metadata !16488), !dbg !16473 ; [debug line = 384:14@374:10@249:13] [debug variable = WBSlave.log_in.V]
  call void @llvm.dbg.value(metadata !{i21* %WBSlave.log_out.V}, i64 0, metadata !16489), !dbg !16473 ; [debug line = 384:14@374:10@249:13] [debug variable = WBSlave.log_out.V]
  call void @llvm.dbg.value(metadata !{i1* %WBSlave.log_start.V}, i64 0, metadata !16490), !dbg !16473 ; [debug line = 384:14@374:10@249:13] [debug variable = WBSlave.log_start.V]
  call void @llvm.dbg.value(metadata !{i1* %WBSlave.log_done.V}, i64 0, metadata !16491), !dbg !16473 ; [debug line = 384:14@374:10@249:13] [debug variable = WBSlave.log_done.V]
  call void @llvm.dbg.value(metadata !{i3* %WBSlave.REG0_ADDR.V}, i64 0, metadata !16492), !dbg !16473 ; [debug line = 384:14@374:10@249:13] [debug variable = WBSlave.REG0_ADDR.V]
  call void @llvm.dbg.value(metadata !{i3* %WBSlave.REG1_ADDR.V}, i64 0, metadata !16493), !dbg !16473 ; [debug line = 384:14@374:10@249:13] [debug variable = WBSlave.REG1_ADDR.V]
  call void @llvm.dbg.value(metadata !{i3* %WBSlave.REG2_ADDR.V}, i64 0, metadata !16494), !dbg !16473 ; [debug line = 384:14@374:10@249:13] [debug variable = WBSlave.REG2_ADDR.V]
  call void @llvm.dbg.value(metadata !{i3* %WBSlave.REG3_ADDR.V}, i64 0, metadata !16495), !dbg !16473 ; [debug line = 384:14@374:10@249:13] [debug variable = WBSlave.REG3_ADDR.V]
  call void @llvm.dbg.value(metadata !{i3* %WBSlave.REG4_ADDR.V}, i64 0, metadata !16496), !dbg !16473 ; [debug line = 384:14@374:10@249:13] [debug variable = WBSlave.REG4_ADDR.V]
  call void @llvm.dbg.value(metadata !{i3* %WBSlave.DELAY_ADDR.V}, i64 0, metadata !16497), !dbg !16473 ; [debug line = 384:14@374:10@249:13] [debug variable = WBSlave.DELAY_ADDR.V]
  call void @llvm.dbg.value(metadata !{i3* %WBSlave.LAST_ADDR.V}, i64 0, metadata !16498), !dbg !16473 ; [debug line = 384:14@374:10@249:13] [debug variable = WBSlave.LAST_ADDR.V]
  %val.V.6 = load volatile i4* %WBSlave.sel_i.m_if.Val.V, align 1, !dbg !16499 ; [#uses=1 type=i4] [debug line = 374:13@60:21@180:66@351:73@386:22@374:10@249:13]
  call void @llvm.dbg.value(metadata !{i4 %val.V.6}, i64 0, metadata !16504), !dbg !16499 ; [debug line = 374:13@60:21@180:66@351:73@386:22@374:10@249:13] [debug variable = val.V]
  %select.3 = zext i4 %val.V.6 to i32, !dbg !16503 ; [#uses=1 type=i32] [debug line = 386:22@374:10@249:13]
  call void @llvm.dbg.value(metadata !{i32 %select.3}, i64 0, metadata !16505), !dbg !16503 ; [debug line = 386:22@374:10@249:13] [debug variable = select]
  br label %34, !dbg !16506                       ; [debug line = 387:23@374:10@249:13]

; <label>:34                                      ; preds = %36, %33
  %mask.12 = phi i32 [ 0, %33 ], [ %mask.15, %36 ] ; [#uses=2 type=i32]
  %select.0.i3 = phi i32 [ %select.3, %33 ], [ %select.7, %36 ] ; [#uses=2 type=i32]
  %i.0.i3 = phi i3 [ 0, %33 ], [ %i.3, %36 ]      ; [#uses=2 type=i3]
  %select.0.i3.cast = trunc i32 %select.0.i3 to i4, !dbg !16506 ; [#uses=1 type=i4] [debug line = 387:23@374:10@249:13]
  %exitcond.i4 = icmp eq i3 %i.0.i3, -4, !dbg !16506 ; [#uses=1 type=i1] [debug line = 387:23@374:10@249:13]
  %35 = call i32 (...)* @_ssdm_op_SpecLoopTripCount(i64 4, i64 4, i64 4) ; [#uses=0 type=i32]
  br i1 %exitcond.i4, label %gen_select_mask.exit78, label %36, !dbg !16506 ; [debug line = 387:23@374:10@249:13]

; <label>:36                                      ; preds = %34
  %mask.13 = shl i32 %mask.12, 8, !dbg !16507     ; [#uses=2 type=i32] [debug line = 388:13@374:10@249:13]
  call void @llvm.dbg.value(metadata !{i32 %mask.13}, i64 0, metadata !16508), !dbg !16507 ; [debug line = 388:13@374:10@249:13] [debug variable = mask]
  %tmp.32 = icmp sgt i4 %select.0.i3.cast, -1, !dbg !16509 ; [#uses=1 type=i1] [debug line = 389:13@374:10@249:13]
  %mask.14 = or i32 %mask.13, 255, !dbg !16510    ; [#uses=1 type=i32] [debug line = 390:17@374:10@249:13]
  call void @llvm.dbg.value(metadata !{i32 %mask.14}, i64 0, metadata !16508), !dbg !16510 ; [debug line = 390:17@374:10@249:13] [debug variable = mask]
  %mask.15 = select i1 %tmp.32, i32 %mask.13, i32 %mask.14, !dbg !16509 ; [#uses=1 type=i32] [debug line = 389:13@374:10@249:13]
  call void @llvm.dbg.value(metadata !{i32 %mask.15}, i64 0, metadata !16508), !dbg !16509 ; [debug line = 389:13@374:10@249:13] [debug variable = mask]
  %select.7 = shl i32 %select.0.i3, 1, !dbg !16511 ; [#uses=1 type=i32] [debug line = 392:13@374:10@249:13]
  call void @llvm.dbg.value(metadata !{i32 %select.7}, i64 0, metadata !16505), !dbg !16511 ; [debug line = 392:13@374:10@249:13] [debug variable = select]
  %i.3 = add i3 %i.0.i3, 1, !dbg !16512           ; [#uses=1 type=i3] [debug line = 387:32@374:10@249:13]
  call void @llvm.dbg.value(metadata !{i3 %i.3}, i64 0, metadata !16513), !dbg !16512 ; [debug line = 387:32@374:10@249:13] [debug variable = i]
  br label %34, !dbg !16512                       ; [debug line = 387:32@374:10@249:13]

gen_select_mask.exit78:                           ; preds = %34
  %mask.12.lcssa = phi i32 [ %mask.12, %34 ]      ; [#uses=1 type=i32]
  call void @llvm.dbg.value(metadata !{i32 %mask.12}, i64 0, metadata !16420) nounwind, !dbg !16471 ; [debug line = 374:10@249:13] [debug variable = mask]
  %tmp.30 = zext i32 %r.V.1 to i64, !dbg !16514   ; [#uses=1 type=i64] [debug line = 375:3@249:13]
  %WBSlave.PBuffer.addr.1 = getelementptr [500 x i32]* %WBSlave.PBuffer, i64 0, i64 %tmp.30, !dbg !16514 ; [#uses=1 type=i32*] [debug line = 375:3@249:13]
  %WBSlave.PBuffer.load.1 = load i32* %WBSlave.PBuffer.addr.1, align 4, !dbg !16514 ; [#uses=1 type=i32] [debug line = 375:3@249:13]
  %v.assign.1 = and i32 %WBSlave.PBuffer.load.1, %mask.12.lcssa, !dbg !16514 ; [#uses=1 type=i32] [debug line = 375:3@249:13]
  call void @llvm.dbg.value(metadata !{i32 %v.assign.1}, i64 0, metadata !16515) nounwind, !dbg !16516 ; [debug line = 344:68@375:3@249:13] [debug variable = v]
  call void @llvm.dbg.value(metadata !{i32 %v.assign.1}, i64 0, metadata !16517) nounwind, !dbg !16519 ; [debug line = 344:68@344:91@375:3@249:13] [debug variable = v]
  call void @llvm.dbg.value(metadata !{i32 %v.assign.1}, i64 0, metadata !16520) nounwind, !dbg !16522 ; [debug line = 1457:77@344:89@344:91@375:3@249:13] [debug variable = op]
  call void @llvm.dbg.value(metadata !{i32 %v.assign.1}, i64 0, metadata !16523) nounwind, !dbg !16525 ; [debug line = 206:21@427:73@375:3@249:13] [debug variable = v.V]
  store volatile i32 %v.assign.1, i32* %WBSlave.dat_o.m_if.Val.V, align 4, !dbg !16526 ; [debug line = 365:13@56:100@207:13@427:73@375:3@249:13]
  %n.assign.3 = load i32* %WBSlave.regs.addr, align 4, !dbg !16529 ; [#uses=3 type=i32] [debug line = 376:12@249:13]
  %tmp.31 = icmp eq i32 %n.assign.3, 0, !dbg !16529 ; [#uses=1 type=i1] [debug line = 376:12@249:13]
  br i1 %tmp.31, label %_ZN7_ap_sc_7sc_core4waitEi.exit.i58, label %37, !dbg !16529 ; [debug line = 376:12@249:13]

; <label>:37                                      ; preds = %gen_select_mask.exit78
  call void @llvm.dbg.value(metadata !{i32 %n.assign.3}, i64 0, metadata !16530) nounwind, !dbg !16532 ; [debug line = 802:53@376:39@249:13] [debug variable = n]
  %tmp.34 = icmp slt i32 %n.assign.3, 2, !dbg !16533 ; [#uses=1 type=i1] [debug line = 803:5@376:39@249:13]
  br i1 %tmp.34, label %38, label %.preheader.i53, !dbg !16533 ; [debug line = 803:5@376:39@249:13]

; <label>:38                                      ; preds = %37
  call void (...)* @_ssdm_op_Wait(i32 1) nounwind, !dbg !16534 ; [debug line = 803:19@376:39@249:13]
  br label %_ZN7_ap_sc_7sc_core4waitEi.exit3.i54, !dbg !16535 ; [debug line = 803:37@376:39@249:13]

.preheader.i53:                                   ; preds = %40, %37
  %i.i2.0.i1 = phi i31 [ %i.7, %40 ], [ 0, %37 ]  ; [#uses=2 type=i31]
  %i.i2.0.i1.cast = zext i31 %i.i2.0.i1 to i32, !dbg !16536 ; [#uses=1 type=i32] [debug line = 804:19@376:39@249:13]
  %exitcond.i5 = icmp eq i32 %i.i2.0.i1.cast, %n.assign.3, !dbg !16536 ; [#uses=1 type=i1] [debug line = 804:19@376:39@249:13]
  %39 = call i32 (...)* @_ssdm_op_SpecLoopTripCount(i64 2, i64 -1, i64 0) ; [#uses=0 type=i32]
  br i1 %exitcond.i5, label %_ZN7_ap_sc_7sc_core4waitEi.exit3.i54, label %40, !dbg !16536 ; [debug line = 804:19@376:39@249:13]

; <label>:40                                      ; preds = %.preheader.i53
  call void (...)* @_ssdm_op_Wait(i32 1) nounwind, !dbg !16537 ; [debug line = 806:2@376:39@249:13]
  %i.7 = add i31 %i.i2.0.i1, 1, !dbg !16538       ; [#uses=1 type=i31] [debug line = 804:28@376:39@249:13]
  call void @llvm.dbg.value(metadata !{i31 %i.7}, i64 0, metadata !16539) nounwind, !dbg !16538 ; [debug line = 804:28@376:39@249:13] [debug variable = i]
  br label %.preheader.i53, !dbg !16538           ; [debug line = 804:28@376:39@249:13]

_ZN7_ap_sc_7sc_core4waitEi.exit3.i54:             ; preds = %.preheader.i53, %38
  br label %_ZN7_ap_sc_7sc_core4waitEi.exit.i58, !dbg !16531 ; [debug line = 376:39@249:13]

_ZN7_ap_sc_7sc_core4waitEi.exit.i58:              ; preds = %_ZN7_ap_sc_7sc_core4waitEi.exit3.i54, %gen_select_mask.exit78
  call void @llvm.dbg.value(metadata !{i1* %WBSlave.ack_o.m_if.Val}, i64 0, metadata !16540) nounwind, !dbg !16544 ; [debug line = 128:96@207:13@427:73@377:3@249:13] [debug variable = P]
  store volatile i1 true, i1* %WBSlave.ack_o.m_if.Val, align 1, !dbg !16545 ; [debug line = 167:116@207:13@427:73@377:3@249:13]
  %tmp.38 = zext i3 %WBSlave.STAT_ADDR.V.load to i64, !dbg !16546 ; [#uses=1 type=i64] [debug line = 378:20@249:13]
  %WBSlave.regs.addr.6 = getelementptr [16 x i32]* %WBSlave.regs, i64 0, i64 %tmp.38, !dbg !16546 ; [#uses=1 type=i32*] [debug line = 378:20@249:13]
  %WBSlave.regs.load.9 = load i32* %WBSlave.regs.addr.6, align 4, !dbg !16546 ; [#uses=1 type=i32] [debug line = 378:20@249:13]
  %v.3 = icmp ne i32 %WBSlave.regs.load.9, 0, !dbg !16546 ; [#uses=1 type=i1] [debug line = 378:20@249:13]
  call void @llvm.dbg.value(metadata !{i1 %v.3}, i64 0, metadata !16547) nounwind, !dbg !16549 ; [debug line = 206:21@427:73@378:20@249:13] [debug variable = v]
  call void @llvm.dbg.value(metadata !{i1* %WBSlave.int_o.m_if.Val}, i64 0, metadata !16550) nounwind, !dbg !16552 ; [debug line = 128:96@207:13@427:73@378:20@249:13] [debug variable = P]
  store volatile i1 %v.3, i1* %WBSlave.int_o.m_if.Val, align 1, !dbg !16553 ; [debug line = 167:116@207:13@427:73@378:20@249:13]
  call void (...)* @_ssdm_op_Wait(i32 1) nounwind, !dbg !16554 ; [debug line = 803:19@379:3@249:13]
  br label %._crit_edge.i59, !dbg !16556          ; [debug line = 380:2@249:13]

._crit_edge.i59:                                  ; preds = %_ZN7_ap_sc_7sc_core4waitEi.exit.i58, %32
  br label %send.exit

send.exit:                                        ; preds = %._crit_edge.i59, %_ZN7_ap_sc_7sc_core4waitEi.exit11.i
  br label %41

; <label>:41                                      ; preds = %send.exit, %receive.exit
  br label %3, !dbg !16557                        ; [debug line = 251:5]
}

; [#uses=3]
declare void @_ssdm_op_SpecProcessDecl(...) nounwind

; [#uses=6]
declare void @_ssdm_op_SpecSensitive(...) nounwind

; [#uses=1]
define void @"WBSlave::processSlave"(i1* %WBSlave.clk.m_if.Val, i1* %WBSlave.reset.m_if.Val, i32* %WBSlave.adr_i.m_if.Val.V, i32* %WBSlave.dat_i.m_if.Val.V, i1* %WBSlave.we_i.m_if.Val, i1* %WBSlave.stb_i.m_if.Val, i1* %WBSlave.cyc_i.m_if.Val, i4* %WBSlave.sel_i.m_if.Val.V, i32* %WBSlave.dat_o.m_if.Val.V, i1* %WBSlave.ack_o.m_if.Val, i1* %WBSlave.int_o.m_if.Val, [16 x i32]* %WBSlave.regs, [500 x i32]* %WBSlave.PBuffer, i3* %WBSlave.CTRL_ADDR.V, i3* %WBSlave.STAT_ADDR.V, i21* %WBSlave.log_in.V, i21* %WBSlave.log_out.V, i1* %WBSlave.log_start.V, i1* %WBSlave.log_done.V, i3* %WBSlave.REG0_ADDR.V, i3* %WBSlave.REG1_ADDR.V, i3* %WBSlave.REG2_ADDR.V, i3* %WBSlave.REG3_ADDR.V, i3* %WBSlave.REG4_ADDR.V, i3* %WBSlave.DELAY_ADDR.V, i3* %WBSlave.LAST_ADDR.V) {
_ZrsILi32ELb0EE11ap_int_baseIXT_EXT0_EXleT_Li64EEERKS1_i.exit1._crit_edge.i.i:
  call void (...)* @_ssdm_op_SpecBitsMap(i1* %WBSlave.clk.m_if.Val), !map !15766
  call void (...)* @_ssdm_op_SpecBitsMap(i1* %WBSlave.reset.m_if.Val), !map !15770
  call void (...)* @_ssdm_op_SpecBitsMap(i32* %WBSlave.adr_i.m_if.Val.V), !map !15774
  call void (...)* @_ssdm_op_SpecBitsMap(i32* %WBSlave.dat_i.m_if.Val.V), !map !15778
  call void (...)* @_ssdm_op_SpecBitsMap(i1* %WBSlave.we_i.m_if.Val), !map !15782
  call void (...)* @_ssdm_op_SpecBitsMap(i1* %WBSlave.stb_i.m_if.Val), !map !15786
  call void (...)* @_ssdm_op_SpecBitsMap(i1* %WBSlave.cyc_i.m_if.Val), !map !15790
  call void (...)* @_ssdm_op_SpecBitsMap(i4* %WBSlave.sel_i.m_if.Val.V), !map !15794
  call void (...)* @_ssdm_op_SpecBitsMap(i32* %WBSlave.dat_o.m_if.Val.V), !map !15798
  call void (...)* @_ssdm_op_SpecBitsMap(i1* %WBSlave.ack_o.m_if.Val), !map !15802
  call void (...)* @_ssdm_op_SpecBitsMap(i1* %WBSlave.int_o.m_if.Val), !map !15806
  call void (...)* @_ssdm_op_SpecBitsMap([16 x i32]* %WBSlave.regs), !map !15810
  call void (...)* @_ssdm_op_SpecBitsMap([500 x i32]* %WBSlave.PBuffer), !map !15814
  call void (...)* @_ssdm_op_SpecBitsMap(i3* %WBSlave.CTRL_ADDR.V), !map !15818
  call void (...)* @_ssdm_op_SpecBitsMap(i3* %WBSlave.STAT_ADDR.V), !map !15822
  call void (...)* @_ssdm_op_SpecBitsMap(i21* %WBSlave.log_in.V), !map !15826
  call void (...)* @_ssdm_op_SpecBitsMap(i21* %WBSlave.log_out.V), !map !15830
  call void (...)* @_ssdm_op_SpecBitsMap(i1* %WBSlave.log_start.V), !map !15834
  call void (...)* @_ssdm_op_SpecBitsMap(i1* %WBSlave.log_done.V), !map !15838
  call void (...)* @_ssdm_op_SpecBitsMap(i3* %WBSlave.REG0_ADDR.V), !map !15842
  call void (...)* @_ssdm_op_SpecBitsMap(i3* %WBSlave.REG1_ADDR.V), !map !15846
  call void (...)* @_ssdm_op_SpecBitsMap(i3* %WBSlave.REG2_ADDR.V), !map !15850
  call void (...)* @_ssdm_op_SpecBitsMap(i3* %WBSlave.REG3_ADDR.V), !map !15854
  call void (...)* @_ssdm_op_SpecBitsMap(i3* %WBSlave.REG4_ADDR.V), !map !15858
  call void (...)* @_ssdm_op_SpecBitsMap(i3* %WBSlave.DELAY_ADDR.V), !map !15862
  call void (...)* @_ssdm_op_SpecBitsMap(i3* %WBSlave.LAST_ADDR.V), !map !15866
  %prob.V = alloca [256 x i21], align 4           ; [#uses=3 type=[256 x i21]*]
  call void @llvm.dbg.value(metadata !{i1* %WBSlave.clk.m_if.Val}, i64 0, metadata !16558), !dbg !16561 ; [debug line = 254:15] [debug variable = WBSlave.clk.m_if.Val]
  call void @llvm.dbg.value(metadata !{i1* %WBSlave.reset.m_if.Val}, i64 0, metadata !16562), !dbg !16561 ; [debug line = 254:15] [debug variable = WBSlave.reset.m_if.Val]
  call void @llvm.dbg.value(metadata !{i32* %WBSlave.adr_i.m_if.Val.V}, i64 0, metadata !16563), !dbg !16561 ; [debug line = 254:15] [debug variable = WBSlave.adr_i.m_if.Val.V]
  call void @llvm.dbg.value(metadata !{i32* %WBSlave.dat_i.m_if.Val.V}, i64 0, metadata !16564), !dbg !16561 ; [debug line = 254:15] [debug variable = WBSlave.dat_i.m_if.Val.V]
  call void @llvm.dbg.value(metadata !{i1* %WBSlave.we_i.m_if.Val}, i64 0, metadata !16565), !dbg !16561 ; [debug line = 254:15] [debug variable = WBSlave.we_i.m_if.Val]
  call void @llvm.dbg.value(metadata !{i1* %WBSlave.stb_i.m_if.Val}, i64 0, metadata !16566), !dbg !16561 ; [debug line = 254:15] [debug variable = WBSlave.stb_i.m_if.Val]
  call void @llvm.dbg.value(metadata !{i1* %WBSlave.cyc_i.m_if.Val}, i64 0, metadata !16567), !dbg !16561 ; [debug line = 254:15] [debug variable = WBSlave.cyc_i.m_if.Val]
  call void @llvm.dbg.value(metadata !{i4* %WBSlave.sel_i.m_if.Val.V}, i64 0, metadata !16568), !dbg !16561 ; [debug line = 254:15] [debug variable = WBSlave.sel_i.m_if.Val.V]
  call void @llvm.dbg.value(metadata !{i32* %WBSlave.dat_o.m_if.Val.V}, i64 0, metadata !16569), !dbg !16561 ; [debug line = 254:15] [debug variable = WBSlave.dat_o.m_if.Val.V]
  call void @llvm.dbg.value(metadata !{i1* %WBSlave.ack_o.m_if.Val}, i64 0, metadata !16570), !dbg !16561 ; [debug line = 254:15] [debug variable = WBSlave.ack_o.m_if.Val]
  call void @llvm.dbg.value(metadata !{i1* %WBSlave.int_o.m_if.Val}, i64 0, metadata !16571), !dbg !16561 ; [debug line = 254:15] [debug variable = WBSlave.int_o.m_if.Val]
  call void @llvm.dbg.value(metadata !{[16 x i32]* %WBSlave.regs}, i64 0, metadata !16572), !dbg !16561 ; [debug line = 254:15] [debug variable = WBSlave.regs]
  call void @llvm.dbg.value(metadata !{[500 x i32]* %WBSlave.PBuffer}, i64 0, metadata !16573), !dbg !16561 ; [debug line = 254:15] [debug variable = WBSlave.PBuffer]
  call void @llvm.dbg.value(metadata !{i3* %WBSlave.CTRL_ADDR.V}, i64 0, metadata !16574), !dbg !16561 ; [debug line = 254:15] [debug variable = WBSlave.CTRL_ADDR.V]
  call void @llvm.dbg.value(metadata !{i3* %WBSlave.STAT_ADDR.V}, i64 0, metadata !16575), !dbg !16561 ; [debug line = 254:15] [debug variable = WBSlave.STAT_ADDR.V]
  call void @llvm.dbg.value(metadata !{i21* %WBSlave.log_in.V}, i64 0, metadata !16576), !dbg !16561 ; [debug line = 254:15] [debug variable = WBSlave.log_in.V]
  call void @llvm.dbg.value(metadata !{i21* %WBSlave.log_out.V}, i64 0, metadata !16577), !dbg !16561 ; [debug line = 254:15] [debug variable = WBSlave.log_out.V]
  call void @llvm.dbg.value(metadata !{i1* %WBSlave.log_start.V}, i64 0, metadata !16578), !dbg !16561 ; [debug line = 254:15] [debug variable = WBSlave.log_start.V]
  call void @llvm.dbg.value(metadata !{i1* %WBSlave.log_done.V}, i64 0, metadata !16579), !dbg !16561 ; [debug line = 254:15] [debug variable = WBSlave.log_done.V]
  call void @llvm.dbg.value(metadata !{i3* %WBSlave.REG0_ADDR.V}, i64 0, metadata !16580), !dbg !16561 ; [debug line = 254:15] [debug variable = WBSlave.REG0_ADDR.V]
  call void @llvm.dbg.value(metadata !{i3* %WBSlave.REG1_ADDR.V}, i64 0, metadata !16581), !dbg !16561 ; [debug line = 254:15] [debug variable = WBSlave.REG1_ADDR.V]
  call void @llvm.dbg.value(metadata !{i3* %WBSlave.REG2_ADDR.V}, i64 0, metadata !16582), !dbg !16561 ; [debug line = 254:15] [debug variable = WBSlave.REG2_ADDR.V]
  call void @llvm.dbg.value(metadata !{i3* %WBSlave.REG3_ADDR.V}, i64 0, metadata !16583), !dbg !16561 ; [debug line = 254:15] [debug variable = WBSlave.REG3_ADDR.V]
  call void @llvm.dbg.value(metadata !{i3* %WBSlave.REG4_ADDR.V}, i64 0, metadata !16584), !dbg !16561 ; [debug line = 254:15] [debug variable = WBSlave.REG4_ADDR.V]
  call void @llvm.dbg.value(metadata !{i3* %WBSlave.DELAY_ADDR.V}, i64 0, metadata !16585), !dbg !16561 ; [debug line = 254:15] [debug variable = WBSlave.DELAY_ADDR.V]
  call void @llvm.dbg.value(metadata !{i3* %WBSlave.LAST_ADDR.V}, i64 0, metadata !16586), !dbg !16561 ; [debug line = 254:15] [debug variable = WBSlave.LAST_ADDR.V]
  call void (...)* @_ssdm_op_SpecPort([8 x i8]* @.str8, i32 0, [7 x i8]* @.str14, [4 x i8]* @.str10, i32 0, i32 0, i1* %WBSlave.clk.m_if.Val) nounwind, !dbg !16587 ; [debug line = 255:4]
  call void (...)* @_ssdm_op_SpecPort([8 x i8]* @.str8, i32 0, [7 x i8]* @.str14, [6 x i8]* @.str11, i32 0, i32 0, i1* %WBSlave.reset.m_if.Val) nounwind, !dbg !16589 ; [debug line = 256:3]
  call void (...)* @_ssdm_op_SpecPort([8 x i8]* @.str8, i32 0, [8 x i8]* @.str15, [6 x i8]* @.str16, i32 0, i32 0, i32* %WBSlave.adr_i.m_if.Val.V) nounwind, !dbg !16590 ; [debug line = 257:3]
  call void (...)* @_ssdm_op_SpecPort([8 x i8]* @.str8, i32 0, [8 x i8]* @.str15, [6 x i8]* @.str17, i32 0, i32 0, i32* %WBSlave.dat_i.m_if.Val.V) nounwind, !dbg !16591 ; [debug line = 258:3]
  call void (...)* @_ssdm_op_SpecPort([8 x i8]* @.str8, i32 0, [7 x i8]* @.str14, [5 x i8]* @.str18, i32 0, i32 0, i1* %WBSlave.we_i.m_if.Val) nounwind, !dbg !16592 ; [debug line = 259:3]
  call void (...)* @_ssdm_op_SpecPort([8 x i8]* @.str8, i32 0, [7 x i8]* @.str14, [6 x i8]* @.str19, i32 0, i32 0, i1* %WBSlave.stb_i.m_if.Val) nounwind, !dbg !16593 ; [debug line = 260:3]
  call void (...)* @_ssdm_op_SpecPort([8 x i8]* @.str8, i32 0, [7 x i8]* @.str14, [6 x i8]* @.str20, i32 0, i32 0, i1* %WBSlave.cyc_i.m_if.Val) nounwind, !dbg !16594 ; [debug line = 261:3]
  call void (...)* @_ssdm_op_SpecPort([8 x i8]* @.str8, i32 0, [31 x i8]* @.str21, [6 x i8]* @.str22, i32 0, i32 0, i4* %WBSlave.sel_i.m_if.Val.V) nounwind, !dbg !16595 ; [debug line = 262:3]
  call void (...)* @_ssdm_op_SpecPort([8 x i8]* @.str8, i32 1, [8 x i8]* @.str15, [6 x i8]* @.str23, i32 0, i32 0, i32* %WBSlave.dat_o.m_if.Val.V) nounwind, !dbg !16596 ; [debug line = 263:3]
  call void (...)* @_ssdm_op_SpecPort([8 x i8]* @.str8, i32 1, [7 x i8]* @.str14, [6 x i8]* @.str24, i32 0, i32 0, i1* %WBSlave.ack_o.m_if.Val) nounwind, !dbg !16597 ; [debug line = 264:3]
  call void (...)* @_ssdm_op_SpecPort([8 x i8]* @.str8, i32 1, [7 x i8]* @.str14, [6 x i8]* @.str25, i32 0, i32 0, i1* %WBSlave.int_o.m_if.Val) nounwind, !dbg !16598 ; [debug line = 265:3]
  call void (...)* @_ssdm_op_SpecProcessDef([8 x i8]* @.str8, i32 2, [13 x i8]* @.str12) nounwind, !dbg !16599 ; [debug line = 266:3]
  %tmp = call i32 (...)* @_ssdm_op_SpecRegionBegin([15 x i8]* @.str42), !dbg !16600 ; [#uses=1 type=i32] [debug line = 266:111]
  call void (...)* @_ssdm_op_SpecProtocol(i32 1, [1 x i8]* @.str43) nounwind, !dbg !16601 ; [debug line = 266:195]
  %_ssdm_reset_v = call i32 (...)* @_ssdm_op_SpecStateBegin(i32 0, i32 0, i32 1) nounwind, !dbg !16602 ; [#uses=1 type=i32] [debug line = 266:245]
  call void @llvm.dbg.value(metadata !{i32 %_ssdm_reset_v}, i64 0, metadata !16603), !dbg !16602 ; [debug line = 266:245] [debug variable = _ssdm_reset_v]
  call void @llvm.dbg.declare(metadata !{[256 x i21]* %prob.V}, metadata !16604), !dbg !16608 ; [debug line = 258:39] [debug variable = prob.V]
  %0 = call i32 (...)* @_ssdm_op_SpecStateEnd(i32 %_ssdm_reset_v) nounwind, !dbg !16609 ; [#uses=0 type=i32] [debug line = 261:50]
  %1 = call i32 (...)* @_ssdm_op_SpecRegionEnd([15 x i8]* @.str42, i32 %tmp), !dbg !16610 ; [#uses=0 type=i32] [debug line = 261:88]
  %WBSlave.PBuffer.addr = getelementptr [500 x i32]* %WBSlave.PBuffer, i64 0, i64 64, !dbg !16611 ; [#uses=1 type=i32*] [debug line = 324:3]
  %WBSlave.log_done.V.load = load i1* %WBSlave.log_done.V, align 1, !dbg !16613 ; [#uses=3 type=i1] [debug line = 1973:9@3722:144@282:38]
  %v.V.assign = load i21* %WBSlave.log_out.V, align 4, !dbg !16629 ; [#uses=3 type=i21] [debug line = 283:5]
  br label %_ZN7_ap_sc_7sc_core4waitEi.exit6, !dbg !16630 ; [debug line = 261:123]

_ZN7_ap_sc_7sc_core4waitEi.exit6:                 ; preds = %_ZN7_ap_sc_7sc_core4waitEi.exit, %_ZrsILi32ELb0EE11ap_int_baseIXT_EXT0_EXleT_Li64EEERKS1_i.exit1._crit_edge.i.i
  %psi. = phi i21 [ undef, %_ZrsILi32ELb0EE11ap_int_baseIXT_EXT0_EXleT_Li64EEERKS1_i.exit1._crit_edge.i.i ], [ %psi.1.lcssa, %_ZN7_ap_sc_7sc_core4waitEi.exit ] ; [#uses=1 type=i21]
  %thresh = phi i32 [ 0, %_ZrsILi32ELb0EE11ap_int_baseIXT_EXT0_EXleT_Li64EEERKS1_i.exit1._crit_edge.i.i ], [ %thresh.1.lcssa, %_ZN7_ap_sc_7sc_core4waitEi.exit ] ; [#uses=1 type=i32]
  %loop_begin = call i32 (...)* @_ssdm_op_SpecLoopBegin() nounwind ; [#uses=0 type=i32]
  call void (...)* @_ssdm_op_Wait(i32 1) nounwind, !dbg !16631 ; [debug line = 266:6]
  %WBSlave.CTRL_ADDR.V.load = load i3* %WBSlave.CTRL_ADDR.V, align 1, !dbg !16633 ; [#uses=1 type=i3] [debug line = 1654:70@266:41]
  %tmp. = zext i3 %WBSlave.CTRL_ADDR.V.load to i64, !dbg !16634 ; [#uses=1 type=i64] [debug line = 266:41]
  %WBSlave.regs.addr = getelementptr [16 x i32]* %WBSlave.regs, i64 0, i64 %tmp., !dbg !16634 ; [#uses=2 type=i32*] [debug line = 266:41]
  %WBSlave.regs.load = load i32* %WBSlave.regs.addr, align 4, !dbg !16634 ; [#uses=1 type=i32] [debug line = 266:41]
  %tmp.43 = icmp ne i32 %WBSlave.regs.load, 0, !dbg !16634 ; [#uses=1 type=i1] [debug line = 266:41]
  call void (...)* @_ssdm_op_Poll(i1 %tmp.43), !dbg !16635 ; [debug line = 266:61]
  %WBSlave.REG1_ADDR.V.load = load i3* %WBSlave.REG1_ADDR.V, align 1, !dbg !16636 ; [#uses=1 type=i3] [debug line = 1654:70@268:12]
  %tmp.44 = zext i3 %WBSlave.REG1_ADDR.V.load to i64, !dbg !16637 ; [#uses=1 type=i64] [debug line = 268:12]
  %WBSlave.regs.addr.7 = getelementptr [16 x i32]* %WBSlave.regs, i64 0, i64 %tmp.44, !dbg !16637 ; [#uses=1 type=i32*] [debug line = 268:12]
  %v.assign = load i32* %WBSlave.regs.addr.7, align 4, !dbg !16637 ; [#uses=4 type=i32] [debug line = 268:12]
  call void @llvm.dbg.value(metadata !{i32 %v.assign}, i64 0, metadata !16638), !dbg !16644 ; [debug line = 1036:62@268:12] [debug variable = v]
  call void @llvm.dbg.value(metadata !{i32 %v.assign}, i64 0, metadata !16645), !dbg !16647 ; [debug line = 1036:62@1036:86@268:12] [debug variable = v]
  call void @llvm.dbg.value(metadata !{i32 %v.assign}, i64 0, metadata !16649), !dbg !16651 ; [debug line = 784:71@1036:84@1036:86@268:12] [debug variable = b]
  call void @llvm.dbg.value(metadata !{i32 %v.assign}, i64 0, metadata !16653), !dbg !16655 ; [debug line = 2170:120@784:77@1036:84@1036:86@268:12] [debug variable = i_op]
  call void @llvm.dbg.value(metadata !{i32 %v.assign}, i64 0, metadata !16658), !dbg !16660 ; [debug line = 2170:120@2170:144@784:77@1036:84@1036:86@268:12] [debug variable = i_op]
  call void @llvm.dbg.value(metadata !{i32 %v.assign}, i64 0, metadata !16662) nounwind, !dbg !16670 ; [debug line = 663:0@761:5@784:77@1036:84@1036:86@268:12] [debug variable = __Val2__]
  %__Val2__.1 = shl i32 %v.assign, 16, !dbg !16671 ; [#uses=1 type=i32] [debug line = 691:17@761:5@784:77@1036:84@1036:86@268:12]
  call void @llvm.dbg.value(metadata !{i32 %__Val2__.1}, i64 0, metadata !16673) nounwind, !dbg !16676 ; [debug line = 705:100@761:5@784:77@1036:84@1036:86@268:12] [debug variable = __Val2__]
  %__Result__.1 = call i1 @_ssdm_op_PartSelect.i1.i32.i32.i32(i32 %v.assign, i32 15, i32 15), !dbg !16677 ; [#uses=1 type=i1] [debug line = 705:102@761:5@784:77@1036:84@1036:86@268:12]
  call void @llvm.dbg.value(metadata !{i32 %v.assign}, i64 0, metadata !16678) nounwind, !dbg !16680 ; [debug line = 709:0@761:5@784:77@1036:84@1036:86@268:12] [debug variable = __Val2__]
  call void @llvm.dbg.value(metadata !{i32 %v.assign}, i64 0, metadata !16681) nounwind, !dbg !16685 ; [debug line = 723:0@761:5@784:77@1036:84@1036:86@268:12] [debug variable = __Val2__]
  call void @llvm.dbg.value(metadata !{i32 %v.assign}, i64 0, metadata !16686) nounwind, !dbg !16689 ; [debug line = 731:0@761:5@784:77@1036:84@1036:86@268:12] [debug variable = __Val2__]
  %tmp.37 = call i1 @_ssdm_op_PartSelect.i1.i32.i32.i32(i32 %v.assign, i32 16, i32 16) ; [#uses=1 type=i1]
  %tmp.38 = or i1 %tmp.37, %__Result__.1          ; [#uses=1 type=i1]
  %tmp.39 = call i15 @_ssdm_op_PartSelect.i15.i32.i32.i32(i32 %v.assign, i32 17, i32 31) ; [#uses=1 type=i15]
  %tmp.45 = call i32 @_ssdm_op_BitConcatenate.i32.i16.i15.i1(i16 0, i15 %tmp.39, i1 %tmp.38), !dbg !16690 ; [#uses=1 type=i32] [debug line = 753:66@761:5@784:77@1036:84@1036:86@268:12]
  %overflow = icmp eq i32 %tmp.45, 0, !dbg !16690 ; [#uses=1 type=i1] [debug line = 753:66@761:5@784:77@1036:84@1036:86@268:12]
  call void @llvm.dbg.value(metadata !{i1 %overflow}, i64 0, metadata !16691) nounwind, !dbg !16692 ; [debug line = 753:18@761:5@784:77@1036:84@1036:86@268:12] [debug variable = overflow]
  call void @llvm.dbg.value(metadata !{i1 %overflow}, i64 0, metadata !16693) nounwind, !dbg !16696 ; [debug line = 510:73@759:13@761:5@784:77@1036:84@1036:86@268:12] [debug variable = overflow]
  %n.V = select i1 %overflow, i32 %__Val2__.1, i32 2147483647, !dbg !16697 ; [#uses=1 type=i32] [debug line = 515:2@759:13@761:5@784:77@1036:84@1036:86@268:12]
  call void @llvm.dbg.value(metadata !{i32 %n.V}, i64 0, metadata !16699), !dbg !16701 ; [debug line = 988:9@1027:12@268:12] [debug variable = n.V]
  call void (...)* @_ssdm_op_Wait(i32 1) nounwind, !dbg !16710 ; [debug line = 803:19@269:3]
  br label %2, !dbg !16712                        ; [debug line = 271:7]

; <label>:2                                       ; preds = %_ZN7_ap_sc_7sc_core4waitEi.exit8_ifconv, %_ZN7_ap_sc_7sc_core4waitEi.exit6
  %i = phi i9 [ 0, %_ZN7_ap_sc_7sc_core4waitEi.exit6 ], [ %i.8, %_ZN7_ap_sc_7sc_core4waitEi.exit8_ifconv ] ; [#uses=4 type=i9]
  %exitcond1 = icmp eq i9 %i, -256, !dbg !16712   ; [#uses=1 type=i1] [debug line = 271:7]
  %3 = call i32 (...)* @_ssdm_op_SpecLoopTripCount(i64 256, i64 256, i64 256) ; [#uses=0 type=i32]
  br i1 %exitcond1, label %.preheader8, label %_ZN7_ap_sc_7sc_core4waitEi.exit8_ifconv, !dbg !16712 ; [debug line = 271:7]

_ZN7_ap_sc_7sc_core4waitEi.exit8_ifconv:          ; preds = %2
  %tmp.46 = add i9 %i, 64, !dbg !16714            ; [#uses=1 type=i9] [debug line = 272:4]
  %tmp.47 = zext i9 %tmp.46 to i64, !dbg !16714   ; [#uses=1 type=i64] [debug line = 272:4]
  %WBSlave.PBuffer.addr.2 = getelementptr [500 x i32]* %WBSlave.PBuffer, i64 0, i64 %tmp.47, !dbg !16714 ; [#uses=1 type=i32*] [debug line = 272:4]
  %v.assign.2 = load i32* %WBSlave.PBuffer.addr.2, align 4, !dbg !16714 ; [#uses=4 type=i32] [debug line = 272:4]
  call void @llvm.dbg.value(metadata !{i32 %v.assign.2}, i64 0, metadata !16638), !dbg !16716 ; [debug line = 1036:62@272:4] [debug variable = v]
  call void @llvm.dbg.value(metadata !{i32 %v.assign.2}, i64 0, metadata !16645), !dbg !16717 ; [debug line = 1036:62@1036:86@272:4] [debug variable = v]
  call void @llvm.dbg.value(metadata !{i32 %v.assign.2}, i64 0, metadata !16649), !dbg !16719 ; [debug line = 784:71@1036:84@1036:86@272:4] [debug variable = b]
  call void @llvm.dbg.value(metadata !{i32 %v.assign.2}, i64 0, metadata !16653), !dbg !16721 ; [debug line = 2170:120@784:77@1036:84@1036:86@272:4] [debug variable = i_op]
  call void @llvm.dbg.value(metadata !{i32 %v.assign.2}, i64 0, metadata !16658), !dbg !16723 ; [debug line = 2170:120@2170:144@784:77@1036:84@1036:86@272:4] [debug variable = i_op]
  call void @llvm.dbg.value(metadata !{i32 %v.assign.2}, i64 0, metadata !16725) nounwind, !dbg !16727 ; [debug line = 663:0@761:5@784:77@1036:84@1036:86@272:4] [debug variable = __Val2__]
  %__Val2__.3 = shl i32 %v.assign.2, 16, !dbg !16728 ; [#uses=1 type=i32] [debug line = 691:17@761:5@784:77@1036:84@1036:86@272:4]
  call void @llvm.dbg.value(metadata !{i32 %__Val2__.3}, i64 0, metadata !16729) nounwind, !dbg !16730 ; [debug line = 705:100@761:5@784:77@1036:84@1036:86@272:4] [debug variable = __Val2__]
  %__Result__.3 = call i1 @_ssdm_op_PartSelect.i1.i32.i32.i32(i32 %v.assign.2, i32 15, i32 15), !dbg !16731 ; [#uses=1 type=i1] [debug line = 705:102@761:5@784:77@1036:84@1036:86@272:4]
  call void @llvm.dbg.value(metadata !{i32 %v.assign.2}, i64 0, metadata !16732) nounwind, !dbg !16733 ; [debug line = 709:0@761:5@784:77@1036:84@1036:86@272:4] [debug variable = __Val2__]
  call void @llvm.dbg.value(metadata !{i32 %v.assign.2}, i64 0, metadata !16734) nounwind, !dbg !16735 ; [debug line = 723:0@761:5@784:77@1036:84@1036:86@272:4] [debug variable = __Val2__]
  call void @llvm.dbg.value(metadata !{i32 %v.assign.2}, i64 0, metadata !16736) nounwind, !dbg !16737 ; [debug line = 731:0@761:5@784:77@1036:84@1036:86@272:4] [debug variable = __Val2__]
  %tmp.40 = call i1 @_ssdm_op_PartSelect.i1.i32.i32.i32(i32 %v.assign.2, i32 16, i32 16) ; [#uses=1 type=i1]
  %tmp.41 = or i1 %tmp.40, %__Result__.3          ; [#uses=1 type=i1]
  %tmp.42 = call i15 @_ssdm_op_PartSelect.i15.i32.i32.i32(i32 %v.assign.2, i32 17, i32 31) ; [#uses=1 type=i15]
  %tmp.48 = call i32 @_ssdm_op_BitConcatenate.i32.i16.i15.i1(i16 0, i15 %tmp.42, i1 %tmp.41), !dbg !16738 ; [#uses=1 type=i32] [debug line = 753:66@761:5@784:77@1036:84@1036:86@272:4]
  %overflow.1 = icmp eq i32 %tmp.48, 0, !dbg !16738 ; [#uses=1 type=i1] [debug line = 753:66@761:5@784:77@1036:84@1036:86@272:4]
  call void @llvm.dbg.value(metadata !{i1 %overflow.1}, i64 0, metadata !16739) nounwind, !dbg !16740 ; [debug line = 753:18@761:5@784:77@1036:84@1036:86@272:4] [debug variable = overflow]
  call void @llvm.dbg.value(metadata !{i1 %overflow.1}, i64 0, metadata !16741) nounwind, !dbg !16743 ; [debug line = 510:73@759:13@761:5@784:77@1036:84@1036:86@272:4] [debug variable = overflow]
  %__Val2__.4 = select i1 %overflow.1, i32 %__Val2__.3, i32 2147483647, !dbg !16744 ; [#uses=1 type=i32] [debug line = 515:2@759:13@761:5@784:77@1036:84@1036:86@272:4]
  %tmp.49 = zext i9 %i to i64, !dbg !16745        ; [#uses=1 type=i64] [debug line = 273:4]
  call void @llvm.dbg.value(metadata !{i32 %__Val2__.4}, i64 0, metadata !16746) nounwind, !dbg !16761 ; [debug line = 663:0@761:5@1309:45@273:14] [debug variable = __Val2__]
  %tmp.50 = sext i32 %__Val2__.4 to i64, !dbg !16762 ; [#uses=1 type=i64] [debug line = 689:13@761:5@1309:45@273:14]
  %tmp.51 = shl nsw i64 %tmp.50, 32, !dbg !16764  ; [#uses=1 type=i64] [debug line = 691:17@761:5@1309:45@273:14]
  %tmp.52 = sext i32 %n.V to i64, !dbg !16765     ; [#uses=1 type=i64] [debug line = 1311:9@273:14]
  %tmp.53 = sdiv i64 %tmp.51, %tmp.52, !dbg !16765 ; [#uses=9 type=i64] [debug line = 1311:9@273:14]
  %signbit = call i1 @_ssdm_op_PartSelect.i1.i64.i32.i32(i64 %tmp.53, i32 63, i32 63), !dbg !16766 ; [#uses=2 type=i1] [debug line = 663:0@1033:31@1033:33@273:14]
  call void @llvm.dbg.value(metadata !{i1 %signbit}, i64 0, metadata !16780) nounwind, !dbg !16766 ; [debug line = 663:0@1033:31@1033:33@273:14] [debug variable = signbit]
  call void @llvm.dbg.value(metadata !{i1 %signbit}, i64 0, metadata !16781) nounwind, !dbg !16782 ; [debug line = 665:14@1033:31@1033:33@273:14] [debug variable = isneg]
  %tmp.56 = lshr i64 %tmp.53, 16, !dbg !16783     ; [#uses=1 type=i64] [debug line = 670:17@1033:31@1033:33@273:14]
  %__Val2__.5 = trunc i64 %tmp.56 to i21, !dbg !16783 ; [#uses=1 type=i21] [debug line = 670:17@1033:31@1033:33@273:14]
  %qbit = call i1 @_ssdm_op_PartSelect.i1.i64.i32.i32(i64 %tmp.53, i32 15, i32 15), !dbg !16785 ; [#uses=1 type=i1] [debug line = 677:0@1033:31@1033:33@273:14]
  call void @llvm.dbg.value(metadata !{i1 %qbit}, i64 0, metadata !16788) nounwind, !dbg !16785 ; [debug line = 677:0@1033:31@1033:33@273:14] [debug variable = qbit]
  call void @llvm.dbg.value(metadata !{i1 %qbit}, i64 0, metadata !16789) nounwind, !dbg !16790 ; [debug line = 679:73@1033:31@1033:33@273:14] [debug variable = qb]
  %__Result__.7 = call i15 @_ssdm_op_PartSelect.i15.i64.i32.i32(i64 %tmp.53, i32 0, i32 14), !dbg !16791 ; [#uses=1 type=i15] [debug line = 682:0@1033:31@1033:33@273:14]
  %r = icmp ne i15 %__Result__.7, 0, !dbg !16791  ; [#uses=1 type=i1] [debug line = 682:0@1033:31@1033:33@273:14]
  call void @llvm.dbg.value(metadata !{i1 %r}, i64 0, metadata !16793) nounwind, !dbg !16791 ; [debug line = 682:0@1033:31@1033:33@273:14] [debug variable = r]
  call void @llvm.dbg.value(metadata !{i1 %qbit}, i64 0, metadata !16794) nounwind, !dbg !16797 ; [debug line = 583:61@685:25@1033:31@1033:33@273:14] [debug variable = qb]
  call void @llvm.dbg.value(metadata !{i1 %r}, i64 0, metadata !16798) nounwind, !dbg !16799 ; [debug line = 583:70@685:25@1033:31@1033:33@273:14] [debug variable = r]
  call void @llvm.dbg.value(metadata !{i1 %signbit}, i64 0, metadata !16800) nounwind, !dbg !16801 ; [debug line = 583:78@685:25@1033:31@1033:33@273:14] [debug variable = s]
  call void @llvm.dbg.value(metadata !{i21 %__Val2__.5}, i64 0, metadata !16802) nounwind, !dbg !16805 ; [debug line = 587:88@685:25@1033:31@1033:33@273:14] [debug variable = __Val2__]
  %__Result__.8 = call i1 @_ssdm_op_PartSelect.i1.i64.i32.i32(i64 %tmp.53, i32 36, i32 36), !dbg !16806 ; [#uses=1 type=i1] [debug line = 587:90@685:25@1033:31@1033:33@273:14]
  call void @llvm.dbg.value(metadata !{i21 %__Val2__.5}, i64 0, metadata !16807) nounwind, !dbg !16809 ; [debug line = 597:88@685:25@1033:31@1033:33@273:14] [debug variable = __Val2__]
  %__Result__.9 = call i1 @_ssdm_op_PartSelect.i1.i64.i32.i32(i64 %tmp.53, i32 16, i32 16), !dbg !16810 ; [#uses=1 type=i1] [debug line = 597:90@685:25@1033:31@1033:33@273:14]
  %r..i.i = or i1 %__Result__.9, %r, !dbg !16811  ; [#uses=1 type=i1] [debug line = 597:189@685:25@1033:31@1033:33@273:14]
  %qb.assign.1 = and i1 %r..i.i, %qbit, !dbg !16811 ; [#uses=1 type=i1] [debug line = 597:189@685:25@1033:31@1033:33@273:14]
  call void @llvm.dbg.value(metadata !{i1 %qb.assign.1}, i64 0, metadata !16794) nounwind, !dbg !16811 ; [debug line = 597:189@685:25@1033:31@1033:33@273:14] [debug variable = qb]
  %tmp.57 = zext i1 %qb.assign.1 to i21, !dbg !16812 ; [#uses=1 type=i21] [debug line = 600:9@685:25@1033:31@1033:33@273:14]
  %__Val2__.6 = add i21 %__Val2__.5, %tmp.57, !dbg !16812 ; [#uses=4 type=i21] [debug line = 600:9@685:25@1033:31@1033:33@273:14]
  call void @llvm.dbg.value(metadata !{i21 %__Val2__.6}, i64 0, metadata !16813) nounwind, !dbg !16815 ; [debug line = 602:100@685:25@1033:31@1033:33@273:14] [debug variable = __Val2__]
  %newsignbit = call i1 @_ssdm_op_PartSelect.i1.i21.i32.i32(i21 %__Val2__.6, i32 20, i32 20), !dbg !16816 ; [#uses=3 type=i1] [debug line = 602:102@685:25@1033:31@1033:33@273:14]
  %tmp.58 = xor i1 %newsignbit, true, !dbg !16817 ; [#uses=1 type=i1] [debug line = 602:213@685:25@1033:31@1033:33@273:14]
  %carry = and i1 %__Result__.8, %tmp.58, !dbg !16796 ; [#uses=3 type=i1] [debug line = 685:25@1033:31@1033:33@273:14]
  call void @llvm.dbg.value(metadata !{i1 %carry}, i64 0, metadata !16818) nounwind, !dbg !16796 ; [debug line = 685:25@1033:31@1033:33@273:14] [debug variable = carry]
  call void @llvm.dbg.value(metadata !{i1 %signbit}, i64 0, metadata !16819) nounwind, !dbg !16821 ; [debug line = 702:33@1033:31@1033:33@273:14] [debug variable = neg_src]
  call void @llvm.dbg.value(metadata !{i21 %__Val2__.6}, i64 0, metadata !16822) nounwind, !dbg !16824 ; [debug line = 705:100@1033:31@1033:33@273:14] [debug variable = __Val2__]
  call void @llvm.dbg.value(metadata !{i1 %newsignbit}, i64 0, metadata !16825) nounwind, !dbg !16826 ; [debug line = 705:213@1033:31@1033:33@273:14] [debug variable = newsignbit]
  %__Result__.4 = call i1 @_ssdm_op_PartSelect.i1.i64.i32.i32(i64 %tmp.53, i32 37, i32 37), !dbg !16827 ; [#uses=1 type=i1] [debug line = 709:0@1033:31@1033:33@273:14]
  %tmp.59 = call i26 @_ssdm_op_PartSelect.i26.i64.i32.i32(i64 %tmp.53, i32 38, i32 63), !dbg !16829 ; [#uses=1 type=i26] [debug line = 723:0@1033:31@1033:33@273:14]
  %Range2_all_ones = icmp eq i26 %tmp.59, -1, !dbg !16833 ; [#uses=1 type=i1] [debug line = 2913:9@726:50@1033:31@1033:33@273:14]
  call void @llvm.dbg.value(metadata !{i1 %Range2_all_ones}, i64 0, metadata !16837) nounwind, !dbg !16836 ; [debug line = 726:50@1033:31@1033:33@273:14] [debug variable = Range2_all_ones]
  %tmp.60 = call i27 @_ssdm_op_PartSelect.i27.i64.i32.i32(i64 %tmp.53, i32 37, i32 63), !dbg !16838 ; [#uses=2 type=i27] [debug line = 731:0@1033:31@1033:33@273:14]
  %Range1_all_ones = icmp eq i27 %tmp.60, -1, !dbg !16841 ; [#uses=3 type=i1] [debug line = 2913:9@735:50@1033:31@1033:33@273:14]
  call void @llvm.dbg.value(metadata !{i1 %Range1_all_ones}, i64 0, metadata !16843) nounwind, !dbg !16842 ; [debug line = 735:50@1033:31@1033:33@273:14] [debug variable = Range1_all_ones]
  %Range1_all_zeros = icmp eq i27 %tmp.60, 0, !dbg !16844 ; [#uses=1 type=i1] [debug line = 736:21@1033:31@1033:33@273:14]
  call void @llvm.dbg.value(metadata !{i1 %Range1_all_zeros}, i64 0, metadata !16845) nounwind, !dbg !16844 ; [debug line = 736:21@1033:31@1033:33@273:14] [debug variable = Range1_all_zeros]
  %deleted_zeros = select i1 %carry, i1 %Range1_all_ones, i1 %Range1_all_zeros, !dbg !16846 ; [#uses=1 type=i1] [debug line = 746:17@1033:31@1033:33@273:14]
  call void @llvm.dbg.value(metadata !{i1 %deleted_zeros}, i64 0, metadata !16847) nounwind, !dbg !16848 ; [debug line = 700:18@1033:31@1033:33@273:14] [debug variable = deleted_zeros]
  %tmp.64 = xor i1 %__Result__.4, true, !dbg !16849 ; [#uses=1 type=i1] [debug line = 747:17@1033:31@1033:33@273:14]
  %.41.i = and i1 %Range2_all_ones, %tmp.64, !dbg !16849 ; [#uses=1 type=i1] [debug line = 747:17@1033:31@1033:33@273:14]
  %deleted_ones = select i1 %carry, i1 %.41.i, i1 %Range1_all_ones, !dbg !16850 ; [#uses=1 type=i1] [debug line = 701:18@1033:31@1033:33@273:14]
  call void @llvm.dbg.value(metadata !{i1 %deleted_ones}, i64 0, metadata !16851) nounwind, !dbg !16850 ; [debug line = 701:18@1033:31@1033:33@273:14] [debug variable = deleted_ones]
  %.38.i = and i1 %carry, %Range1_all_ones, !dbg !16852 ; [#uses=1 type=i1] [debug line = 749:17@1033:31@1033:33@273:14]
  %tmp.69 = xor i1 %.38.i, true                   ; [#uses=1 type=i1]
  call void @llvm.dbg.value(metadata !{i1 %newsignbit}, i64 0, metadata !16853) nounwind, !dbg !16854 ; [debug line = 752:47@1033:31@1033:33@273:14] [debug variable = neg_trg]
  %.not.i = xor i1 %deleted_zeros, true, !dbg !16855 ; [#uses=1 type=i1] [debug line = 753:66@1033:31@1033:33@273:14]
  %brmerge.i = or i1 %newsignbit, %.not.i, !dbg !16855 ; [#uses=1 type=i1] [debug line = 753:66@1033:31@1033:33@273:14]
  %tmp.71 = xor i1 %signbit, true, !dbg !16855    ; [#uses=1 type=i1] [debug line = 753:66@1033:31@1033:33@273:14]
  %overflow.2 = and i1 %brmerge.i, %tmp.71, !dbg !16855 ; [#uses=2 type=i1] [debug line = 753:66@1033:31@1033:33@273:14]
  call void @llvm.dbg.value(metadata !{i1 %overflow.2}, i64 0, metadata !16856) nounwind, !dbg !16857 ; [debug line = 753:18@1033:31@1033:33@273:14] [debug variable = overflow]
  %brmerge40.demorgan.i = and i1 %newsignbit, %deleted_ones, !dbg !16858 ; [#uses=1 type=i1] [debug line = 754:68@1033:31@1033:33@273:14]
  %brmerge40.i = xor i1 %brmerge40.demorgan.i, true, !dbg !16858 ; [#uses=1 type=i1] [debug line = 754:68@1033:31@1033:33@273:14]
  call void @llvm.dbg.value(metadata !{i21 %__Val2__.6}, i64 0, metadata !16859) nounwind, !dbg !16861 ; [debug line = 757:88@1033:31@1033:33@273:14] [debug variable = __Val2__]
  %__Result__. = call i20 @_ssdm_op_PartSelect.i20.i21.i32.i32(i21 %__Val2__.6, i32 0, i32 19), !dbg !16862 ; [#uses=1 type=i20] [debug line = 757:90@1033:31@1033:33@273:14]
  %tmp.72 = icmp eq i20 %__Result__., 0, !dbg !16863 ; [#uses=1 type=i1] [debug line = 757:185@1033:31@1033:33@273:14]
  %tmp.74 = or i1 %tmp.72, %brmerge40.i           ; [#uses=1 type=i1]
  %tmp7 = and i1 %tmp.74, %tmp.69                 ; [#uses=1 type=i1]
  %underflow = and i1 %tmp7, %signbit             ; [#uses=3 type=i1]
  call void @llvm.dbg.value(metadata !{i1 %underflow}, i64 0, metadata !16864) nounwind, !dbg !16865 ; [debug line = 754:18@1033:31@1033:33@273:14] [debug variable = underflow]
  call void @llvm.dbg.value(metadata !{i1 %underflow}, i64 0, metadata !16866) nounwind, !dbg !16869 ; [debug line = 510:57@759:13@1033:31@1033:33@273:14] [debug variable = underflow]
  call void @llvm.dbg.value(metadata !{i1 %overflow.2}, i64 0, metadata !16870) nounwind, !dbg !16871 ; [debug line = 510:73@759:13@1033:31@1033:33@273:14] [debug variable = overflow]
  %brmerge.i.i1 = or i1 %underflow, %overflow.2, !dbg !16872 ; [#uses=1 type=i1] [debug line = 515:2@759:13@1033:31@1033:33@273:14]
  %underflow.12.not = xor i1 %underflow, true, !dbg !16872 ; [#uses=1 type=i1] [debug line = 515:2@759:13@1033:31@1033:33@273:14]
  %brmerge = or i1 %overflow.2, %underflow.12.not, !dbg !16872 ; [#uses=1 type=i1] [debug line = 515:2@759:13@1033:31@1033:33@273:14]
  %__Val2__.8.mux = select i1 %brmerge.i.i1, i21 1048575, i21 %__Val2__.6, !dbg !16872 ; [#uses=1 type=i21] [debug line = 515:2@759:13@1033:31@1033:33@273:14]
  %.__Val2__.8 = select i1 %underflow, i21 -1048575, i21 %__Val2__.6, !dbg !16874 ; [#uses=1 type=i21] [debug line = 567:24@759:13@1033:31@1033:33@273:14]
  %this.assign.9.1 = select i1 %brmerge, i21 %__Val2__.8.mux, i21 %.__Val2__.8 ; [#uses=1 type=i21]
  %prob.V.addr.2 = getelementptr [256 x i21]* %prob.V, i64 0, i64 %tmp.49, !dbg !16877 ; [#uses=1 type=i21*] [debug line = 988:9@1027:12@273:14]
  store i21 %this.assign.9.1, i21* %prob.V.addr.2, align 4, !dbg !16877 ; [debug line = 988:9@1027:12@273:14]
  call void (...)* @_ssdm_op_Wait(i32 1) nounwind, !dbg !16888 ; [debug line = 803:19@274:4]
  %i.8 = add i9 %i, 1, !dbg !16890                ; [#uses=1 type=i9] [debug line = 271:21]
  call void @llvm.dbg.value(metadata !{i9 %i.8}, i64 0, metadata !16891), !dbg !16890 ; [debug line = 271:21] [debug variable = i]
  br label %2, !dbg !16890                        ; [debug line = 271:21]

.preheader8:                                      ; preds = %_ZN7_ap_sc_7sc_core4waitEi.exit12, %2
  %__Val2__.17 = phi i21 [ %Hn.1, %_ZN7_ap_sc_7sc_core4waitEi.exit12 ], [ 0, %2 ] ; [#uses=4 type=i21]
  %i.1 = phi i9 [ %i.9, %_ZN7_ap_sc_7sc_core4waitEi.exit12 ], [ 0, %2 ] ; [#uses=3 type=i9]
  %exitcond2 = icmp eq i9 %i.1, -256, !dbg !16892 ; [#uses=1 type=i1] [debug line = 278:15]
  %4 = call i32 (...)* @_ssdm_op_SpecLoopTripCount(i64 256, i64 256, i64 256) ; [#uses=0 type=i32]
  br i1 %exitcond2, label %.preheader7.preheader, label %5, !dbg !16892 ; [debug line = 278:15]

.preheader7.preheader:                            ; preds = %.preheader8
  %__Val2__.20.lcssa = phi i21 [ %__Val2__.17, %.preheader8 ] ; [#uses=1 type=i21]
  br label %.preheader7, !dbg !16893              ; [debug line = 290:15]

; <label>:5                                       ; preds = %.preheader8
  %tmp.54 = zext i9 %i.1 to i64, !dbg !16895      ; [#uses=1 type=i64] [debug line = 279:8]
  %prob.V.addr = getelementptr [256 x i21]* %prob.V, i64 0, i64 %tmp.54, !dbg !16896 ; [#uses=1 type=i21*] [debug line = 1081:13@1895:86@279:8]
  %prob.V.load = load i21* %prob.V.addr, align 4, !dbg !16896 ; [#uses=4 type=i21] [debug line = 1081:13@1895:86@279:8]
  %tmp.55 = icmp eq i21 %prob.V.load, 0, !dbg !16896 ; [#uses=1 type=i1] [debug line = 1081:13@1895:86@279:8]
  br i1 %tmp.55, label %_ZN7_ap_sc_7sc_core4waitEi.exit12, label %to_double.exit463, !dbg !16896 ; [debug line = 1081:13@1895:86@279:8]

to_double.exit463:                                ; preds = %5
  %dp.7 = sitofp i21 %prob.V.load to double, !dbg !16903 ; [#uses=1 type=double] [debug line = 1083:32@1895:86@279:8]
  call void @llvm.dbg.value(metadata !{double %dp.7}, i64 0, metadata !16904) nounwind, !dbg !16903 ; [debug line = 1083:32@1895:86@279:8] [debug variable = dp]
  call void @llvm.dbg.value(metadata !{double %dp.7}, i64 0, metadata !16905) nounwind, !dbg !16908 ; [debug line = 837:85@1085:21@1895:86@279:8] [debug variable = pf]
  %res.V = bitcast double %dp.7 to i64, !dbg !16909 ; [#uses=2 type=i64] [debug line = 842:9@1085:21@1895:86@279:8]
  call void @llvm.dbg.value(metadata !{i64 %res.V}, i64 0, metadata !16911) nounwind, !dbg !16907 ; [debug line = 1085:21@1895:86@279:8] [debug variable = res.V]
  call void @llvm.dbg.value(metadata !{i64 %res.V}, i64 0, metadata !16917) nounwind, !dbg !16919 ; [debug line = 1087:84@1895:86@279:8] [debug variable = __Val2__]
  %exp.V = call i11 @_ssdm_op_PartSelect.i11.i64.i32.i32(i64 %res.V, i32 52, i32 62), !dbg !16920 ; [#uses=1 type=i11] [debug line = 1087:86@1895:86@279:8]
  call void @llvm.dbg.value(metadata !{i11 %exp.V}, i64 0, metadata !16921) nounwind, !dbg !16927 ; [debug line = 1087:175@1895:86@279:8] [debug variable = exp.V]
  %exp.V.7 = add i11 %exp.V, -16, !dbg !16928     ; [#uses=2 type=i11] [debug line = 1819:147@3734:159@1088:13@1895:86@279:8]
  call void @llvm.dbg.value(metadata !{i11 %exp.V.7}, i64 0, metadata !16938) nounwind, !dbg !16928 ; [debug line = 1819:147@3734:159@1088:13@1895:86@279:8] [debug variable = exp.V]
  call void @llvm.dbg.value(metadata !{i64 %res.V}, i64 0, metadata !16939) nounwind, !dbg !16941 ; [debug line = 1089:84@1895:86@279:8] [debug variable = __Val2__]
  call void @llvm.dbg.value(metadata !{i11 %exp.V.7}, i64 0, metadata !16942) nounwind, !dbg !16943 ; [debug line = 1089:117@1895:86@279:8] [debug variable = __Repl2__]
  %__Result__ = call i64 @llvm.part.set.i64.i11(i64 %res.V, i11 %exp.V.7, i32 52, i32 62) nounwind, !dbg !16944 ; [#uses=2 type=i64] [debug line = 1089:119@1895:86@279:8]
  call void @llvm.dbg.value(metadata !{i64 %__Result__}, i64 0, metadata !16945) nounwind, !dbg !16944 ; [debug line = 1089:119@1895:86@279:8] [debug variable = __Result__]
  call void @llvm.dbg.value(metadata !{i64 %__Result__}, i64 0, metadata !16911) nounwind, !dbg !16946 ; [debug line = 1089:226@1895:86@279:8] [debug variable = res.V]
  call void @llvm.dbg.value(metadata !{i64 %__Result__}, i64 0, metadata !16947) nounwind, !dbg !16950 ; [debug line = 854:85@1090:34@1895:86@279:8] [debug variable = pi]
  %dp = bitcast i64 %__Result__ to double, !dbg !16951 ; [#uses=1 type=double] [debug line = 860:9@1090:34@1895:86@279:8]
  call void @llvm.dbg.value(metadata !{double %dp}, i64 0, metadata !16904) nounwind, !dbg !16949 ; [debug line = 1090:34@1895:86@279:8] [debug variable = dp]
  %tmp.21 = trunc i64 %__Result__ to i52          ; [#uses=1 type=i52]
  %notlhs = icmp ne i11 %exp.V.7, -1              ; [#uses=1 type=i1]
  %notrhs = icmp eq i52 %tmp.21, 0                ; [#uses=1 type=i1]
  %tmp.22 = or i1 %notrhs, %notlhs                ; [#uses=1 type=i1]
  %tmp.23 = fcmp oeq double %dp, 0.000000e+00, !dbg !16953 ; [#uses=1 type=i1] [debug line = 1091:13@1895:86@279:8]
  %tmp.24 = and i1 %tmp.22, %tmp.23, !dbg !16953  ; [#uses=1 type=i1] [debug line = 1091:13@1895:86@279:8]
  br i1 %tmp.24, label %_ZN7_ap_sc_7sc_core4waitEi.exit12, label %_ZN7_ap_sc_7sc_core4waitEi.exit10_ifconv, !dbg !16895 ; [debug line = 279:8]

_ZN7_ap_sc_7sc_core4waitEi.exit10_ifconv:         ; preds = %to_double.exit463
  call void @llvm.dbg.value(metadata !{i21* %WBSlave.log_in.V}, i64 0, metadata !16954), !dbg !16959 ; [debug line = 1027:12@280:5] [debug variable = ssdm_int<21 + 1024 * 0, true>.V]
  store i21 %prob.V.load, i21* %WBSlave.log_in.V, align 4, !dbg !16960 ; [debug line = 988:9@1027:12@280:5]
  call void (...)* @_ssdm_op_Wait(i32 1) nounwind, !dbg !16962 ; [debug line = 282:8]
  call void (...)* @_ssdm_op_Poll(i1 %WBSlave.log_done.V.load), !dbg !16963 ; [debug line = 282:56]
  call void @llvm.dbg.value(metadata !{i21 %v.V.assign}, i64 0, metadata !16964), !dbg !16969 ; [debug line = 1036:62@283:5] [debug variable = v.V]
  call void @llvm.dbg.value(metadata !{i21 %v.V.assign}, i64 0, metadata !16970) nounwind, !dbg !16979 ; [debug line = 663:0@1036:84@1036:86@283:5] [debug variable = __Val2__]
  store i1 false, i1* %WBSlave.log_start.V, align 1, !dbg !16980 ; [debug line = 378:13@284:5]
  call void (...)* @_ssdm_op_Wait(i32 1) nounwind, !dbg !16984 ; [debug line = 803:19@285:5]
  %OP1.V.cast = sext i21 %prob.V.load to i42, !dbg !16986 ; [#uses=1 type=i42] [debug line = 1293:9@286:11]
  %OP2.V.cast = sext i21 %v.V.assign to i42, !dbg !16994 ; [#uses=1 type=i42] [debug line = 1295:9@286:11]
  %__Val2__.11 = mul i42 %OP2.V.cast, %OP1.V.cast, !dbg !16995 ; [#uses=1 type=i42] [debug line = 1296:9@286:11]
  call void @llvm.dbg.value(metadata !{i21 %__Val2__.17}, i64 0, metadata !16996) nounwind, !dbg !17015 ; [debug line = 663:0@761:5@1330:0@1348:246@286:11] [debug variable = __Val2__]
  %tmp.69.cast = zext i21 %__Val2__.17 to i37, !dbg !17016 ; [#uses=1 type=i37] [debug line = 691:17@761:5@1330:0@1348:246@286:11]
  %tmp.70 = shl nuw i37 %tmp.69.cast, 16, !dbg !17016 ; [#uses=1 type=i37] [debug line = 691:17@761:5@1330:0@1348:246@286:11]
  %tmp.70.cast = sext i37 %tmp.70 to i42, !dbg !17016 ; [#uses=1 type=i42] [debug line = 691:17@761:5@1330:0@1348:246@286:11]
  call void @llvm.dbg.value(metadata !{i42 %__Val2__.11}, i64 0, metadata !17018) nounwind, !dbg !17024 ; [debug line = 663:0@761:5@1330:0@1348:246@286:11] [debug variable = __Val2__]
  %__Val2__.18 = sub i42 %tmp.70.cast, %__Val2__.11, !dbg !17002 ; [#uses=9 type=i42] [debug line = 1330:0@1348:246@286:11]
  call void @llvm.dbg.value(metadata !{i42 %__Val2__.18}, i64 0, metadata !17025) nounwind, !dbg !17030 ; [debug line = 663:0@761:5@1348:246@286:11] [debug variable = __Val2__]
  %signbit.1 = call i1 @_ssdm_op_PartSelect.i1.i42.i32.i32(i42 %__Val2__.18, i32 41, i32 41), !dbg !17030 ; [#uses=2 type=i1] [debug line = 663:0@761:5@1348:246@286:11]
  call void @llvm.dbg.value(metadata !{i1 %signbit.1}, i64 0, metadata !17031) nounwind, !dbg !17030 ; [debug line = 663:0@761:5@1348:246@286:11] [debug variable = signbit]
  call void @llvm.dbg.value(metadata !{i1 %signbit.1}, i64 0, metadata !17032) nounwind, !dbg !17033 ; [debug line = 665:14@761:5@1348:246@286:11] [debug variable = isneg]
  %tmp.75 = lshr i42 %__Val2__.18, 16, !dbg !17034 ; [#uses=1 type=i42] [debug line = 670:17@761:5@1348:246@286:11]
  %__Val2__.19 = trunc i42 %tmp.75 to i21, !dbg !17034 ; [#uses=1 type=i21] [debug line = 670:17@761:5@1348:246@286:11]
  call void @llvm.dbg.value(metadata !{i42 %__Val2__.18}, i64 0, metadata !17036) nounwind, !dbg !17039 ; [debug line = 677:0@761:5@1348:246@286:11] [debug variable = __Val2__]
  %qbit.1 = call i1 @_ssdm_op_PartSelect.i1.i42.i32.i32(i42 %__Val2__.18, i32 15, i32 15), !dbg !17039 ; [#uses=1 type=i1] [debug line = 677:0@761:5@1348:246@286:11]
  call void @llvm.dbg.value(metadata !{i1 %qbit.1}, i64 0, metadata !17040) nounwind, !dbg !17039 ; [debug line = 677:0@761:5@1348:246@286:11] [debug variable = qbit]
  call void @llvm.dbg.value(metadata !{i1 %qbit.1}, i64 0, metadata !17041) nounwind, !dbg !17042 ; [debug line = 679:73@761:5@1348:246@286:11] [debug variable = qb]
  call void @llvm.dbg.value(metadata !{i42 %__Val2__.18}, i64 0, metadata !17043) nounwind, !dbg !17045 ; [debug line = 682:0@761:5@1348:246@286:11] [debug variable = __Val2__]
  %__Result__.6 = call i15 @_ssdm_op_PartSelect.i15.i42.i32.i32(i42 %__Val2__.18, i32 0, i32 14), !dbg !17045 ; [#uses=1 type=i15] [debug line = 682:0@761:5@1348:246@286:11]
  %r.1 = icmp ne i15 %__Result__.6, 0, !dbg !17045 ; [#uses=1 type=i1] [debug line = 682:0@761:5@1348:246@286:11]
  call void @llvm.dbg.value(metadata !{i1 %r.1}, i64 0, metadata !17046) nounwind, !dbg !17045 ; [debug line = 682:0@761:5@1348:246@286:11] [debug variable = r]
  call void @llvm.dbg.value(metadata !{i1 %qbit.1}, i64 0, metadata !17047) nounwind, !dbg !17049 ; [debug line = 583:61@685:25@761:5@1348:246@286:11] [debug variable = qb]
  call void @llvm.dbg.value(metadata !{i1 %r.1}, i64 0, metadata !17050) nounwind, !dbg !17051 ; [debug line = 583:70@685:25@761:5@1348:246@286:11] [debug variable = r]
  call void @llvm.dbg.value(metadata !{i1 %signbit.1}, i64 0, metadata !17052) nounwind, !dbg !17053 ; [debug line = 583:78@685:25@761:5@1348:246@286:11] [debug variable = s]
  call void @llvm.dbg.value(metadata !{i21 %__Val2__.19}, i64 0, metadata !17054) nounwind, !dbg !17055 ; [debug line = 587:88@685:25@761:5@1348:246@286:11] [debug variable = __Val2__]
  %__Result__.10 = call i1 @_ssdm_op_PartSelect.i1.i42.i32.i32(i42 %__Val2__.18, i32 36, i32 36), !dbg !17056 ; [#uses=1 type=i1] [debug line = 587:90@685:25@761:5@1348:246@286:11]
  call void @llvm.dbg.value(metadata !{i21 %__Val2__.19}, i64 0, metadata !17057) nounwind, !dbg !17058 ; [debug line = 597:88@685:25@761:5@1348:246@286:11] [debug variable = __Val2__]
  %__Result__.11 = call i1 @_ssdm_op_PartSelect.i1.i42.i32.i32(i42 %__Val2__.18, i32 16, i32 16), !dbg !17059 ; [#uses=1 type=i1] [debug line = 597:90@685:25@761:5@1348:246@286:11]
  %r..i.i.i1 = or i1 %__Result__.11, %r.1, !dbg !17060 ; [#uses=1 type=i1] [debug line = 597:189@685:25@761:5@1348:246@286:11]
  %qb.assign.3 = and i1 %r..i.i.i1, %qbit.1, !dbg !17060 ; [#uses=1 type=i1] [debug line = 597:189@685:25@761:5@1348:246@286:11]
  call void @llvm.dbg.value(metadata !{i1 %qb.assign.3}, i64 0, metadata !17047) nounwind, !dbg !17060 ; [debug line = 597:189@685:25@761:5@1348:246@286:11] [debug variable = qb]
  %tmp.73 = zext i1 %qb.assign.3 to i21, !dbg !17061 ; [#uses=1 type=i21] [debug line = 600:9@685:25@761:5@1348:246@286:11]
  %__Val2__.20 = add i21 %__Val2__.19, %tmp.73, !dbg !17061 ; [#uses=4 type=i21] [debug line = 600:9@685:25@761:5@1348:246@286:11]
  call void @llvm.dbg.value(metadata !{i21 %__Val2__.20}, i64 0, metadata !17062) nounwind, !dbg !17063 ; [debug line = 602:100@685:25@761:5@1348:246@286:11] [debug variable = __Val2__]
  %newsignbit.1 = call i1 @_ssdm_op_PartSelect.i1.i21.i32.i32(i21 %__Val2__.20, i32 20, i32 20), !dbg !17064 ; [#uses=3 type=i1] [debug line = 602:102@685:25@761:5@1348:246@286:11]
  %tmp.76 = xor i1 %newsignbit.1, true, !dbg !17065 ; [#uses=1 type=i1] [debug line = 602:213@685:25@761:5@1348:246@286:11]
  %carry.1 = and i1 %__Result__.10, %tmp.76, !dbg !17048 ; [#uses=3 type=i1] [debug line = 685:25@761:5@1348:246@286:11]
  call void @llvm.dbg.value(metadata !{i1 %carry.1}, i64 0, metadata !17066) nounwind, !dbg !17048 ; [debug line = 685:25@761:5@1348:246@286:11] [debug variable = carry]
  call void @llvm.dbg.value(metadata !{i1 %signbit.1}, i64 0, metadata !17067) nounwind, !dbg !17069 ; [debug line = 702:33@761:5@1348:246@286:11] [debug variable = neg_src]
  call void @llvm.dbg.value(metadata !{i21 %__Val2__.20}, i64 0, metadata !17070) nounwind, !dbg !17072 ; [debug line = 705:100@761:5@1348:246@286:11] [debug variable = __Val2__]
  call void @llvm.dbg.value(metadata !{i1 %newsignbit.1}, i64 0, metadata !17073) nounwind, !dbg !17074 ; [debug line = 705:213@761:5@1348:246@286:11] [debug variable = newsignbit]
  call void @llvm.dbg.value(metadata !{i42 %__Val2__.18}, i64 0, metadata !17075) nounwind, !dbg !17077 ; [debug line = 709:0@761:5@1348:246@286:11] [debug variable = __Val2__]
  %__Result__.13 = call i1 @_ssdm_op_PartSelect.i1.i42.i32.i32(i42 %__Val2__.18, i32 37, i32 37), !dbg !17077 ; [#uses=1 type=i1] [debug line = 709:0@761:5@1348:246@286:11]
  call void @llvm.dbg.value(metadata !{i42 %__Val2__.18}, i64 0, metadata !17078) nounwind, !dbg !17082 ; [debug line = 723:0@761:5@1348:246@286:11] [debug variable = __Val2__]
  %tmp.25 = call i4 @_ssdm_op_PartSelect.i4.i42.i32.i32(i42 %__Val2__.18, i32 38, i32 41), !dbg !17082 ; [#uses=1 type=i4] [debug line = 723:0@761:5@1348:246@286:11]
  %Range2_all_ones.1 = icmp eq i4 %tmp.25, -1, !dbg !17083 ; [#uses=1 type=i1] [debug line = 1973:9@726:50@761:5@1348:246@286:11]
  call void @llvm.dbg.value(metadata !{i1 %Range2_all_ones.1}, i64 0, metadata !17087) nounwind, !dbg !17086 ; [debug line = 726:50@761:5@1348:246@286:11] [debug variable = Range2_all_ones]
  call void @llvm.dbg.value(metadata !{i42 %__Val2__.18}, i64 0, metadata !17088) nounwind, !dbg !17091 ; [debug line = 731:0@761:5@1348:246@286:11] [debug variable = __Val2__]
  %tmp.26 = call i5 @_ssdm_op_PartSelect.i5.i42.i32.i32(i42 %__Val2__.18, i32 37, i32 41), !dbg !17091 ; [#uses=2 type=i5] [debug line = 731:0@761:5@1348:246@286:11]
  %Range1_all_ones.1 = icmp eq i5 %tmp.26, -1, !dbg !17092 ; [#uses=3 type=i1] [debug line = 1973:9@735:50@761:5@1348:246@286:11]
  call void @llvm.dbg.value(metadata !{i1 %Range1_all_ones.1}, i64 0, metadata !17094) nounwind, !dbg !17093 ; [debug line = 735:50@761:5@1348:246@286:11] [debug variable = Range1_all_ones]
  %Range1_all_zeros.1 = icmp eq i5 %tmp.26, 0, !dbg !17095 ; [#uses=1 type=i1] [debug line = 736:21@761:5@1348:246@286:11]
  call void @llvm.dbg.value(metadata !{i1 %Range1_all_zeros.1}, i64 0, metadata !17096) nounwind, !dbg !17095 ; [debug line = 736:21@761:5@1348:246@286:11] [debug variable = Range1_all_zeros]
  %deleted_zeros.1 = select i1 %carry.1, i1 %Range1_all_ones.1, i1 %Range1_all_zeros.1, !dbg !17097 ; [#uses=1 type=i1] [debug line = 746:17@761:5@1348:246@286:11]
  call void @llvm.dbg.value(metadata !{i1 %deleted_zeros.1}, i64 0, metadata !17098) nounwind, !dbg !17099 ; [debug line = 700:18@761:5@1348:246@286:11] [debug variable = deleted_zeros]
  %tmp.78 = xor i1 %__Result__.13, true, !dbg !17100 ; [#uses=1 type=i1] [debug line = 747:17@761:5@1348:246@286:11]
  %.41.i.i1 = and i1 %Range2_all_ones.1, %tmp.78, !dbg !17100 ; [#uses=1 type=i1] [debug line = 747:17@761:5@1348:246@286:11]
  %deleted_ones.1 = select i1 %carry.1, i1 %.41.i.i1, i1 %Range1_all_ones.1, !dbg !17101 ; [#uses=1 type=i1] [debug line = 701:18@761:5@1348:246@286:11]
  call void @llvm.dbg.value(metadata !{i1 %deleted_ones.1}, i64 0, metadata !17102) nounwind, !dbg !17101 ; [debug line = 701:18@761:5@1348:246@286:11] [debug variable = deleted_ones]
  %.38.i.i1 = and i1 %carry.1, %Range1_all_ones.1, !dbg !17103 ; [#uses=1 type=i1] [debug line = 749:17@761:5@1348:246@286:11]
  %tmp.79 = xor i1 %.38.i.i1, true                ; [#uses=1 type=i1]
  call void @llvm.dbg.value(metadata !{i1 %newsignbit.1}, i64 0, metadata !17104) nounwind, !dbg !17105 ; [debug line = 752:47@761:5@1348:246@286:11] [debug variable = neg_trg]
  %.not.i.i1 = xor i1 %deleted_zeros.1, true, !dbg !17106 ; [#uses=1 type=i1] [debug line = 753:66@761:5@1348:246@286:11]
  %brmerge.i.i2 = or i1 %newsignbit.1, %.not.i.i1, !dbg !17106 ; [#uses=1 type=i1] [debug line = 753:66@761:5@1348:246@286:11]
  %tmp.80 = xor i1 %signbit.1, true, !dbg !17106  ; [#uses=1 type=i1] [debug line = 753:66@761:5@1348:246@286:11]
  %overflow.3 = and i1 %brmerge.i.i2, %tmp.80, !dbg !17106 ; [#uses=2 type=i1] [debug line = 753:66@761:5@1348:246@286:11]
  call void @llvm.dbg.value(metadata !{i1 %overflow.3}, i64 0, metadata !17107) nounwind, !dbg !17108 ; [debug line = 753:18@761:5@1348:246@286:11] [debug variable = overflow]
  %brmerge40.demorgan.i.i1 = and i1 %newsignbit.1, %deleted_ones.1, !dbg !17109 ; [#uses=1 type=i1] [debug line = 754:68@761:5@1348:246@286:11]
  %brmerge40.i.i1 = xor i1 %brmerge40.demorgan.i.i1, true, !dbg !17109 ; [#uses=1 type=i1] [debug line = 754:68@761:5@1348:246@286:11]
  call void @llvm.dbg.value(metadata !{i21 %__Val2__.20}, i64 0, metadata !17110) nounwind, !dbg !17112 ; [debug line = 757:88@761:5@1348:246@286:11] [debug variable = __Val2__]
  %__Result__.14 = call i20 @_ssdm_op_PartSelect.i20.i21.i32.i32(i21 %__Val2__.20, i32 0, i32 19), !dbg !17113 ; [#uses=1 type=i20] [debug line = 757:90@761:5@1348:246@286:11]
  %tmp.81 = icmp eq i20 %__Result__.14, 0, !dbg !17114 ; [#uses=1 type=i1] [debug line = 757:185@761:5@1348:246@286:11]
  %tmp.83 = or i1 %tmp.81, %brmerge40.i.i1        ; [#uses=1 type=i1]
  %tmp8 = and i1 %tmp.83, %tmp.79                 ; [#uses=1 type=i1]
  %underflow.1 = and i1 %tmp8, %signbit.1         ; [#uses=3 type=i1]
  call void @llvm.dbg.value(metadata !{i1 %underflow.1}, i64 0, metadata !17115) nounwind, !dbg !17116 ; [debug line = 754:18@761:5@1348:246@286:11] [debug variable = underflow]
  call void @llvm.dbg.value(metadata !{i1 %underflow.1}, i64 0, metadata !17117) nounwind, !dbg !17119 ; [debug line = 510:57@759:13@761:5@1348:246@286:11] [debug variable = underflow]
  call void @llvm.dbg.value(metadata !{i1 %overflow.3}, i64 0, metadata !17120) nounwind, !dbg !17121 ; [debug line = 510:73@759:13@761:5@1348:246@286:11] [debug variable = overflow]
  %brmerge.i.i.i1 = or i1 %underflow.1, %overflow.3, !dbg !17122 ; [#uses=1 type=i1] [debug line = 515:2@759:13@761:5@1348:246@286:11]
  %underflow.13.not = xor i1 %underflow.1, true, !dbg !17122 ; [#uses=1 type=i1] [debug line = 515:2@759:13@761:5@1348:246@286:11]
  %brmerge2 = or i1 %overflow.3, %underflow.13.not, !dbg !17122 ; [#uses=1 type=i1] [debug line = 515:2@759:13@761:5@1348:246@286:11]
  %__Val2__.14.mux = select i1 %brmerge.i.i.i1, i21 1048575, i21 %__Val2__.20, !dbg !17122 ; [#uses=1 type=i21] [debug line = 515:2@759:13@761:5@1348:246@286:11]
  br i1 %brmerge2, label %_ZN7_ap_sc_7sc_core4waitEi.exit12, label %._crit_edge1.i.i.i517, !dbg !17122 ; [debug line = 515:2@759:13@761:5@1348:246@286:11]

._crit_edge1.i.i.i517:                            ; preds = %_ZN7_ap_sc_7sc_core4waitEi.exit10_ifconv
  %.__Val2__.2 = select i1 %underflow.1, i21 -1048575, i21 %__Val2__.20, !dbg !17123 ; [#uses=1 type=i21] [debug line = 567:24@759:13@761:5@1348:246@286:11]
  br label %_ZN7_ap_sc_7sc_core4waitEi.exit12

_ZN7_ap_sc_7sc_core4waitEi.exit12:                ; preds = %._crit_edge1.i.i.i517, %_ZN7_ap_sc_7sc_core4waitEi.exit10_ifconv, %to_double.exit463, %5
  %Hn.1 = phi i21 [ %__Val2__.17, %5 ], [ %__Val2__.17, %to_double.exit463 ], [ %.__Val2__.2, %._crit_edge1.i.i.i517 ], [ %__Val2__.14.mux, %_ZN7_ap_sc_7sc_core4waitEi.exit10_ifconv ] ; [#uses=1 type=i21]
  call void (...)* @_ssdm_op_Wait(i32 1) nounwind, !dbg !17124 ; [debug line = 803:19@288:4]
  %i.9 = add i9 %i.1, 1, !dbg !17126              ; [#uses=1 type=i9] [debug line = 278:34]
  call void @llvm.dbg.value(metadata !{i9 %i.9}, i64 0, metadata !16891), !dbg !17126 ; [debug line = 278:34] [debug variable = i]
  br label %.preheader8, !dbg !17126              ; [debug line = 278:34]

.preheader7:                                      ; preds = %_ZN7_ap_sc_7sc_core4waitEi.exit2, %.preheader7.preheader
  %psiMax = phi i21 [ %psiMax.1, %_ZN7_ap_sc_7sc_core4waitEi.exit2 ], [ 0, %.preheader7.preheader ] ; [#uses=2 type=i21]
  %psi.1 = phi i21 [ %psiMax.V, %_ZN7_ap_sc_7sc_core4waitEi.exit2 ], [ %psi., %.preheader7.preheader ] ; [#uses=3 type=i21]
  %thresh.3 = phi i9 [ %i.10, %_ZN7_ap_sc_7sc_core4waitEi.exit2 ], [ 1, %.preheader7.preheader ] ; [#uses=4 type=i9]
  %thresh.1 = phi i32 [ %thresh.2, %_ZN7_ap_sc_7sc_core4waitEi.exit2 ], [ %thresh, %.preheader7.preheader ] ; [#uses=2 type=i32]
  %thresh.3.cast1 = zext i9 %thresh.3 to i32, !dbg !16893 ; [#uses=1 type=i32] [debug line = 290:15]
  %thresh.3.cast = zext i9 %thresh.3 to i10, !dbg !16893 ; [#uses=1 type=i10] [debug line = 290:15]
  %exitcond3 = icmp eq i9 %thresh.3, -256, !dbg !16893 ; [#uses=1 type=i1] [debug line = 290:15]
  %6 = call i32 (...)* @_ssdm_op_SpecLoopTripCount(i64 255, i64 255, i64 255) ; [#uses=0 type=i32]
  br i1 %exitcond3, label %_ZN7_ap_sc_7sc_core4waitEi.exit, label %.preheader, !dbg !16893 ; [debug line = 290:15]

.preheader:                                       ; preds = %_ZN7_ap_sc_7sc_core4waitEi.exit25, %.preheader7
  %__Val2__.7 = phi i21 [ %Hs.1, %_ZN7_ap_sc_7sc_core4waitEi.exit25 ], [ 0, %.preheader7 ] ; [#uses=4 type=i21]
  %__Val2__.8 = phi i21 [ %Ps.V, %_ZN7_ap_sc_7sc_core4waitEi.exit25 ], [ 0, %.preheader7 ] ; [#uses=2 type=i21]
  %j = phi i8 [ %j.1, %_ZN7_ap_sc_7sc_core4waitEi.exit25 ], [ 0, %.preheader7 ] ; [#uses=3 type=i8]
  %j.cast = zext i8 %j to i10, !dbg !17127        ; [#uses=1 type=i10] [debug line = 291:21]
  %exitcond = icmp eq i10 %j.cast, %thresh.3.cast, !dbg !17127 ; [#uses=1 type=i1] [debug line = 291:21]
  %7 = call i32 (...)* @_ssdm_op_SpecLoopTripCount(i64 1, i64 255, i64 0) ; [#uses=0 type=i32]
  br i1 %exitcond, label %8, label %_ifconv, !dbg !17127 ; [debug line = 291:21]

_ifconv:                                          ; preds = %.preheader
  %tmp.66 = zext i8 %j to i64, !dbg !17130        ; [#uses=1 type=i64] [debug line = 292:5]
  call void @llvm.dbg.value(metadata !{i21 %__Val2__.8}, i64 0, metadata !17132) nounwind, !dbg !17148 ; [debug line = 663:0@761:5@1329:0@1347:243@292:5] [debug variable = __Val2__]
  %tmp.67 = sext i21 %__Val2__.8 to i22, !dbg !17149 ; [#uses=1 type=i22] [debug line = 667:13@761:5@1329:0@1347:243@292:5]
  %prob.V.addr.1 = getelementptr [256 x i21]* %prob.V, i64 0, i64 %tmp.66, !dbg !17148 ; [#uses=1 type=i21*] [debug line = 663:0@761:5@1329:0@1347:243@292:5]
  %__Val2__.21 = load i21* %prob.V.addr.1, align 4, !dbg !17148 ; [#uses=5 type=i21] [debug line = 663:0@761:5@1329:0@1347:243@292:5]
  call void @llvm.dbg.value(metadata !{i21 %__Val2__.21}, i64 0, metadata !17132) nounwind, !dbg !17148 ; [debug line = 663:0@761:5@1329:0@1347:243@292:5] [debug variable = __Val2__]
  %tmp.68 = sext i21 %__Val2__.21 to i22, !dbg !17149 ; [#uses=1 type=i22] [debug line = 667:13@761:5@1329:0@1347:243@292:5]
  %__Val2__.22 = add i22 %tmp.68, %tmp.67, !dbg !17138 ; [#uses=4 type=i22] [debug line = 1329:0@1347:243@292:5]
  call void @llvm.dbg.value(metadata !{i22 %__Val2__.22}, i64 0, metadata !17150) nounwind, !dbg !17158 ; [debug line = 663:0@761:5@1347:243@292:5] [debug variable = __Val2__]
  %isneg = call i1 @_ssdm_op_PartSelect.i1.i22.i32.i32(i22 %__Val2__.22, i32 21, i32 21), !dbg !17158 ; [#uses=2 type=i1] [debug line = 663:0@761:5@1347:243@292:5]
  call void @llvm.dbg.value(metadata !{i1 %isneg}, i64 0, metadata !17159) nounwind, !dbg !17160 ; [debug line = 665:14@761:5@1347:243@292:5] [debug variable = isneg]
  %__Val2__.23 = trunc i22 %__Val2__.22 to i21, !dbg !17161 ; [#uses=2 type=i21] [debug line = 667:13@761:5@1347:243@292:5]
  call void @llvm.dbg.value(metadata !{i1 %isneg}, i64 0, metadata !17162) nounwind, !dbg !17164 ; [debug line = 702:33@761:5@1347:243@292:5] [debug variable = neg_src]
  call void @llvm.dbg.value(metadata !{i21 %__Val2__.23}, i64 0, metadata !17165) nounwind, !dbg !17167 ; [debug line = 705:100@761:5@1347:243@292:5] [debug variable = __Val2__]
  %newsignbit.2 = call i1 @_ssdm_op_PartSelect.i1.i22.i32.i32(i22 %__Val2__.22, i32 20, i32 20), !dbg !17168 ; [#uses=2 type=i1] [debug line = 705:102@761:5@1347:243@292:5]
  call void @llvm.dbg.value(metadata !{i1 %newsignbit.2}, i64 0, metadata !17169) nounwind, !dbg !17170 ; [debug line = 705:213@761:5@1347:243@292:5] [debug variable = newsignbit]
  call void @llvm.dbg.value(metadata !{i22 %__Val2__.22}, i64 0, metadata !17171) nounwind, !dbg !17173 ; [debug line = 709:0@761:5@1347:243@292:5] [debug variable = __Val2__]
  call void @llvm.dbg.value(metadata !{i1 %isneg}, i64 0, metadata !17174) nounwind, !dbg !17173 ; [debug line = 709:0@761:5@1347:243@292:5] [debug variable = lD]
  call void @llvm.dbg.value(metadata !{i1 %isneg}, i64 0, metadata !17175) nounwind, !dbg !17177 ; [debug line = 738:21@761:5@1347:243@292:5] [debug variable = Range1_all_ones]
  call void @llvm.dbg.value(metadata !{i1 %isneg}, i64 0, metadata !17179) nounwind, !dbg !17180 ; [debug line = 701:18@761:5@1347:243@292:5] [debug variable = deleted_ones]
  call void @llvm.dbg.value(metadata !{i1 %newsignbit.2}, i64 0, metadata !17181) nounwind, !dbg !17182 ; [debug line = 752:47@761:5@1347:243@292:5] [debug variable = neg_trg]
  %tmp.27 = xor i1 %isneg, true, !dbg !17183      ; [#uses=1 type=i1] [debug line = 510:73@759:13@761:5@1347:243@292:5]
  %overflow.4 = and i1 %newsignbit.2, %tmp.27, !dbg !17183 ; [#uses=2 type=i1] [debug line = 510:73@759:13@761:5@1347:243@292:5]
  call void @llvm.dbg.value(metadata !{i1 %overflow.4}, i64 0, metadata !17185) nounwind, !dbg !17186 ; [debug line = 753:18@761:5@1347:243@292:5] [debug variable = overflow]
  %tmp.77 = xor i1 %newsignbit.2, true, !dbg !17187 ; [#uses=1 type=i1] [debug line = 754:68@761:5@1347:243@292:5]
  call void @llvm.dbg.value(metadata !{i21 %__Val2__.23}, i64 0, metadata !17188) nounwind, !dbg !17190 ; [debug line = 757:88@761:5@1347:243@292:5] [debug variable = __Val2__]
  %__Result__.15 = call i20 @_ssdm_op_PartSelect.i20.i22.i32.i32(i22 %__Val2__.22, i32 0, i32 19), !dbg !17191 ; [#uses=1 type=i20] [debug line = 757:90@761:5@1347:243@292:5]
  %tmp.84 = icmp eq i20 %__Result__.15, 0, !dbg !17192 ; [#uses=1 type=i1] [debug line = 757:185@761:5@1347:243@292:5]
  %tmp.85 = or i1 %tmp.84, %tmp.77                ; [#uses=1 type=i1]
  %underflow.2 = and i1 %isneg, %tmp.85           ; [#uses=3 type=i1]
  call void @llvm.dbg.value(metadata !{i1 %underflow.2}, i64 0, metadata !17193) nounwind, !dbg !17194 ; [debug line = 754:18@761:5@1347:243@292:5] [debug variable = underflow]
  call void @llvm.dbg.value(metadata !{i1 %underflow.2}, i64 0, metadata !17195) nounwind, !dbg !17196 ; [debug line = 510:57@759:13@761:5@1347:243@292:5] [debug variable = underflow]
  call void @llvm.dbg.value(metadata !{i1 %overflow.4}, i64 0, metadata !17197) nounwind, !dbg !17183 ; [debug line = 510:73@759:13@761:5@1347:243@292:5] [debug variable = overflow]
  call void @llvm.dbg.value(metadata !{i1 %isneg}, i64 0, metadata !17198) nounwind, !dbg !17199 ; [debug line = 510:87@759:13@761:5@1347:243@292:5] [debug variable = lD]
  call void @llvm.dbg.value(metadata !{i1 %isneg}, i64 0, metadata !17200) nounwind, !dbg !17201 ; [debug line = 510:96@759:13@761:5@1347:243@292:5] [debug variable = sign]
  %brmerge.i.i.i = or i1 %underflow.2, %overflow.4, !dbg !17202 ; [#uses=1 type=i1] [debug line = 515:2@759:13@761:5@1347:243@292:5]
  %underflow.14.not = xor i1 %underflow.2, true, !dbg !17202 ; [#uses=1 type=i1] [debug line = 515:2@759:13@761:5@1347:243@292:5]
  %brmerge3 = or i1 %overflow.4, %underflow.14.not, !dbg !17202 ; [#uses=1 type=i1] [debug line = 515:2@759:13@761:5@1347:243@292:5]
  %__Val2__.18.mux = select i1 %brmerge.i.i.i, i21 1048575, i21 %__Val2__.23, !dbg !17202 ; [#uses=1 type=i21] [debug line = 515:2@759:13@761:5@1347:243@292:5]
  %.__Val2__. = select i1 %underflow.2, i21 -1048575, i21 %__Val2__.23, !dbg !17203 ; [#uses=1 type=i21] [debug line = 567:24@759:13@761:5@1347:243@292:5]
  %Ps.V = select i1 %brmerge3, i21 %__Val2__.18.mux, i21 %.__Val2__., !dbg !17204 ; [#uses=1 type=i21] [debug line = 988:9@1347:243@292:5]
  call void @llvm.dbg.value(metadata !{i21 %Ps.V}, i64 0, metadata !17205), !dbg !17204 ; [debug line = 988:9@1347:243@292:5] [debug variable = Ps.V]
  %tmp.86 = icmp eq i21 %__Val2__.21, 0, !dbg !17207 ; [#uses=1 type=i1] [debug line = 1081:13@1896:85@293:9]
  br i1 %tmp.86, label %_ZN7_ap_sc_7sc_core4waitEi.exit25, label %to_double.exit456, !dbg !17207 ; [debug line = 1081:13@1896:85@293:9]

to_double.exit456:                                ; preds = %_ifconv
  %dp.8 = sitofp i21 %__Val2__.21 to double, !dbg !17212 ; [#uses=1 type=double] [debug line = 1083:32@1896:85@293:9]
  call void @llvm.dbg.value(metadata !{double %dp.8}, i64 0, metadata !17213) nounwind, !dbg !17212 ; [debug line = 1083:32@1896:85@293:9] [debug variable = dp]
  call void @llvm.dbg.value(metadata !{double %dp.8}, i64 0, metadata !17214) nounwind, !dbg !17216 ; [debug line = 837:85@1085:21@1896:85@293:9] [debug variable = pf]
  %res.V.1 = bitcast double %dp.8 to i64, !dbg !17217 ; [#uses=2 type=i64] [debug line = 842:9@1085:21@1896:85@293:9]
  call void @llvm.dbg.value(metadata !{i64 %res.V.1}, i64 0, metadata !17218) nounwind, !dbg !17215 ; [debug line = 1085:21@1896:85@293:9] [debug variable = res.V]
  call void @llvm.dbg.value(metadata !{i64 %res.V.1}, i64 0, metadata !17219) nounwind, !dbg !17220 ; [debug line = 1087:84@1896:85@293:9] [debug variable = __Val2__]
  %exp.V.5 = call i11 @_ssdm_op_PartSelect.i11.i64.i32.i32(i64 %res.V.1, i32 52, i32 62), !dbg !17221 ; [#uses=1 type=i11] [debug line = 1087:86@1896:85@293:9]
  call void @llvm.dbg.value(metadata !{i11 %exp.V.5}, i64 0, metadata !17222) nounwind, !dbg !17223 ; [debug line = 1087:175@1896:85@293:9] [debug variable = exp.V]
  %exp.V.8 = add i11 %exp.V.5, -16, !dbg !17224   ; [#uses=2 type=i11] [debug line = 1819:147@3734:159@1088:13@1896:85@293:9]
  call void @llvm.dbg.value(metadata !{i11 %exp.V.8}, i64 0, metadata !17227) nounwind, !dbg !17224 ; [debug line = 1819:147@3734:159@1088:13@1896:85@293:9] [debug variable = exp.V]
  call void @llvm.dbg.value(metadata !{i64 %res.V.1}, i64 0, metadata !17228) nounwind, !dbg !17229 ; [debug line = 1089:84@1896:85@293:9] [debug variable = __Val2__]
  call void @llvm.dbg.value(metadata !{i11 %exp.V.8}, i64 0, metadata !17230) nounwind, !dbg !17231 ; [debug line = 1089:117@1896:85@293:9] [debug variable = __Repl2__]
  %__Result__.2 = call i64 @llvm.part.set.i64.i11(i64 %res.V.1, i11 %exp.V.8, i32 52, i32 62) nounwind, !dbg !17232 ; [#uses=2 type=i64] [debug line = 1089:119@1896:85@293:9]
  call void @llvm.dbg.value(metadata !{i64 %__Result__.2}, i64 0, metadata !17233) nounwind, !dbg !17232 ; [debug line = 1089:119@1896:85@293:9] [debug variable = __Result__]
  call void @llvm.dbg.value(metadata !{i64 %__Result__.2}, i64 0, metadata !17218) nounwind, !dbg !17234 ; [debug line = 1089:226@1896:85@293:9] [debug variable = res.V]
  call void @llvm.dbg.value(metadata !{i64 %__Result__.2}, i64 0, metadata !17235) nounwind, !dbg !17237 ; [debug line = 854:85@1090:34@1896:85@293:9] [debug variable = pi]
  %dp.6 = bitcast i64 %__Result__.2 to double, !dbg !17238 ; [#uses=1 type=double] [debug line = 860:9@1090:34@1896:85@293:9]
  call void @llvm.dbg.value(metadata !{double %dp.6}, i64 0, metadata !17213) nounwind, !dbg !17236 ; [debug line = 1090:34@1896:85@293:9] [debug variable = dp]
  %tmp.36 = trunc i64 %__Result__.2 to i52        ; [#uses=1 type=i52]
  %notlhs3 = icmp ne i11 %exp.V.8, -1             ; [#uses=1 type=i1]
  %notrhs3 = icmp eq i52 %tmp.36, 0               ; [#uses=1 type=i1]
  %tmp.87 = or i1 %notrhs3, %notlhs3              ; [#uses=1 type=i1]
  %tmp.88 = fcmp ogt double %dp.6, 0.000000e+00, !dbg !17239 ; [#uses=1 type=i1] [debug line = 1091:13@1896:85@293:9]
  %tmp.89 = and i1 %tmp.87, %tmp.88, !dbg !17239  ; [#uses=1 type=i1] [debug line = 1091:13@1896:85@293:9]
  br i1 %tmp.89, label %_ZN7_ap_sc_7sc_core4waitEi.exit19_ifconv, label %_ZN7_ap_sc_7sc_core4waitEi.exit25, !dbg !17211 ; [debug line = 293:9]

_ZN7_ap_sc_7sc_core4waitEi.exit19_ifconv:         ; preds = %to_double.exit456
  call void @llvm.dbg.value(metadata !{i21* %WBSlave.log_in.V}, i64 0, metadata !17240), !dbg !17244 ; [debug line = 1027:12@294:6] [debug variable = ssdm_int<21 + 1024 * 0, true>.V]
  store i21 %__Val2__.21, i21* %WBSlave.log_in.V, align 4, !dbg !17245 ; [debug line = 988:9@1027:12@294:6]
  call void (...)* @_ssdm_op_Wait(i32 1) nounwind, !dbg !17247 ; [debug line = 296:9]
  call void (...)* @_ssdm_op_Poll(i1 %WBSlave.log_done.V.load), !dbg !17249 ; [debug line = 296:57]
  call void @llvm.dbg.value(metadata !{i21 %v.V.assign}, i64 0, metadata !16964), !dbg !17250 ; [debug line = 1036:62@297:6] [debug variable = v.V]
  call void @llvm.dbg.value(metadata !{i21 %v.V.assign}, i64 0, metadata !17252) nounwind, !dbg !17255 ; [debug line = 663:0@1036:84@1036:86@297:6] [debug variable = __Val2__]
  store i1 false, i1* %WBSlave.log_start.V, align 1, !dbg !17256 ; [debug line = 378:13@298:6]
  call void (...)* @_ssdm_op_Wait(i32 1) nounwind, !dbg !17258 ; [debug line = 803:19@299:6]
  %OP1.V.2.cast = sext i21 %__Val2__.21 to i42, !dbg !17260 ; [#uses=1 type=i42] [debug line = 1293:9@300:12]
  %OP2.V.2.cast = sext i21 %v.V.assign to i42, !dbg !17262 ; [#uses=1 type=i42] [debug line = 1295:9@300:12]
  %__Val2__.38 = mul i42 %OP2.V.2.cast, %OP1.V.2.cast, !dbg !17263 ; [#uses=1 type=i42] [debug line = 1296:9@300:12]
  call void @llvm.dbg.value(metadata !{i21 %__Val2__.7}, i64 0, metadata !17264) nounwind, !dbg !17268 ; [debug line = 663:0@761:5@1330:0@1348:246@300:12] [debug variable = __Val2__]
  %tmp.116.cast = zext i21 %__Val2__.7 to i37, !dbg !17269 ; [#uses=1 type=i37] [debug line = 691:17@761:5@1330:0@1348:246@300:12]
  %tmp.117 = shl nuw i37 %tmp.116.cast, 16, !dbg !17269 ; [#uses=1 type=i37] [debug line = 691:17@761:5@1330:0@1348:246@300:12]
  %tmp.117.cast = sext i37 %tmp.117 to i42, !dbg !17269 ; [#uses=1 type=i42] [debug line = 691:17@761:5@1330:0@1348:246@300:12]
  call void @llvm.dbg.value(metadata !{i42 %__Val2__.38}, i64 0, metadata !17270) nounwind, !dbg !17272 ; [debug line = 663:0@761:5@1330:0@1348:246@300:12] [debug variable = __Val2__]
  %__Val2__.39 = sub i42 %tmp.117.cast, %__Val2__.38, !dbg !17266 ; [#uses=9 type=i42] [debug line = 1330:0@1348:246@300:12]
  call void @llvm.dbg.value(metadata !{i42 %__Val2__.39}, i64 0, metadata !17273) nounwind, !dbg !17275 ; [debug line = 663:0@761:5@1348:246@300:12] [debug variable = __Val2__]
  %signbit.2 = call i1 @_ssdm_op_PartSelect.i1.i42.i32.i32(i42 %__Val2__.39, i32 41, i32 41), !dbg !17275 ; [#uses=2 type=i1] [debug line = 663:0@761:5@1348:246@300:12]
  call void @llvm.dbg.value(metadata !{i1 %signbit.2}, i64 0, metadata !17276) nounwind, !dbg !17275 ; [debug line = 663:0@761:5@1348:246@300:12] [debug variable = signbit]
  call void @llvm.dbg.value(metadata !{i1 %signbit.2}, i64 0, metadata !17277) nounwind, !dbg !17278 ; [debug line = 665:14@761:5@1348:246@300:12] [debug variable = isneg]
  %tmp.119 = lshr i42 %__Val2__.39, 16, !dbg !17279 ; [#uses=1 type=i42] [debug line = 670:17@761:5@1348:246@300:12]
  %__Val2__.40 = trunc i42 %tmp.119 to i21, !dbg !17279 ; [#uses=1 type=i21] [debug line = 670:17@761:5@1348:246@300:12]
  call void @llvm.dbg.value(metadata !{i42 %__Val2__.39}, i64 0, metadata !17280) nounwind, !dbg !17281 ; [debug line = 677:0@761:5@1348:246@300:12] [debug variable = __Val2__]
  %qbit.2 = call i1 @_ssdm_op_PartSelect.i1.i42.i32.i32(i42 %__Val2__.39, i32 15, i32 15), !dbg !17281 ; [#uses=1 type=i1] [debug line = 677:0@761:5@1348:246@300:12]
  call void @llvm.dbg.value(metadata !{i1 %qbit.2}, i64 0, metadata !17282) nounwind, !dbg !17281 ; [debug line = 677:0@761:5@1348:246@300:12] [debug variable = qbit]
  call void @llvm.dbg.value(metadata !{i1 %qbit.2}, i64 0, metadata !17283) nounwind, !dbg !17284 ; [debug line = 679:73@761:5@1348:246@300:12] [debug variable = qb]
  call void @llvm.dbg.value(metadata !{i42 %__Val2__.39}, i64 0, metadata !17285) nounwind, !dbg !17286 ; [debug line = 682:0@761:5@1348:246@300:12] [debug variable = __Val2__]
  %__Result__.25 = call i15 @_ssdm_op_PartSelect.i15.i42.i32.i32(i42 %__Val2__.39, i32 0, i32 14), !dbg !17286 ; [#uses=1 type=i15] [debug line = 682:0@761:5@1348:246@300:12]
  %r.2 = icmp ne i15 %__Result__.25, 0, !dbg !17286 ; [#uses=1 type=i1] [debug line = 682:0@761:5@1348:246@300:12]
  call void @llvm.dbg.value(metadata !{i1 %r.2}, i64 0, metadata !17287) nounwind, !dbg !17286 ; [debug line = 682:0@761:5@1348:246@300:12] [debug variable = r]
  call void @llvm.dbg.value(metadata !{i1 %qbit.2}, i64 0, metadata !17288) nounwind, !dbg !17290 ; [debug line = 583:61@685:25@761:5@1348:246@300:12] [debug variable = qb]
  call void @llvm.dbg.value(metadata !{i1 %r.2}, i64 0, metadata !17291) nounwind, !dbg !17292 ; [debug line = 583:70@685:25@761:5@1348:246@300:12] [debug variable = r]
  call void @llvm.dbg.value(metadata !{i1 %signbit.2}, i64 0, metadata !17293) nounwind, !dbg !17294 ; [debug line = 583:78@685:25@761:5@1348:246@300:12] [debug variable = s]
  call void @llvm.dbg.value(metadata !{i21 %__Val2__.40}, i64 0, metadata !17295) nounwind, !dbg !17296 ; [debug line = 587:88@685:25@761:5@1348:246@300:12] [debug variable = __Val2__]
  %__Result__.26 = call i1 @_ssdm_op_PartSelect.i1.i42.i32.i32(i42 %__Val2__.39, i32 36, i32 36), !dbg !17297 ; [#uses=1 type=i1] [debug line = 587:90@685:25@761:5@1348:246@300:12]
  call void @llvm.dbg.value(metadata !{i21 %__Val2__.40}, i64 0, metadata !17298) nounwind, !dbg !17299 ; [debug line = 597:88@685:25@761:5@1348:246@300:12] [debug variable = __Val2__]
  %__Result__.27 = call i1 @_ssdm_op_PartSelect.i1.i42.i32.i32(i42 %__Val2__.39, i32 16, i32 16), !dbg !17300 ; [#uses=1 type=i1] [debug line = 597:90@685:25@761:5@1348:246@300:12]
  %r..i.i.i = or i1 %__Result__.27, %r.2, !dbg !17301 ; [#uses=1 type=i1] [debug line = 597:189@685:25@761:5@1348:246@300:12]
  %qb.assign.7 = and i1 %r..i.i.i, %qbit.2, !dbg !17301 ; [#uses=1 type=i1] [debug line = 597:189@685:25@761:5@1348:246@300:12]
  call void @llvm.dbg.value(metadata !{i1 %qb.assign.7}, i64 0, metadata !17288) nounwind, !dbg !17301 ; [debug line = 597:189@685:25@761:5@1348:246@300:12] [debug variable = qb]
  %tmp.120 = zext i1 %qb.assign.7 to i21, !dbg !17302 ; [#uses=1 type=i21] [debug line = 600:9@685:25@761:5@1348:246@300:12]
  %__Val2__.41 = add i21 %__Val2__.40, %tmp.120, !dbg !17302 ; [#uses=4 type=i21] [debug line = 600:9@685:25@761:5@1348:246@300:12]
  call void @llvm.dbg.value(metadata !{i21 %__Val2__.41}, i64 0, metadata !17303) nounwind, !dbg !17304 ; [debug line = 602:100@685:25@761:5@1348:246@300:12] [debug variable = __Val2__]
  %newsignbit.3 = call i1 @_ssdm_op_PartSelect.i1.i21.i32.i32(i21 %__Val2__.41, i32 20, i32 20), !dbg !17305 ; [#uses=3 type=i1] [debug line = 602:102@685:25@761:5@1348:246@300:12]
  %tmp.121 = xor i1 %newsignbit.3, true, !dbg !17306 ; [#uses=1 type=i1] [debug line = 602:213@685:25@761:5@1348:246@300:12]
  %carry.3 = and i1 %__Result__.26, %tmp.121, !dbg !17289 ; [#uses=3 type=i1] [debug line = 685:25@761:5@1348:246@300:12]
  call void @llvm.dbg.value(metadata !{i1 %carry.3}, i64 0, metadata !17307) nounwind, !dbg !17289 ; [debug line = 685:25@761:5@1348:246@300:12] [debug variable = carry]
  call void @llvm.dbg.value(metadata !{i1 %signbit.2}, i64 0, metadata !17308) nounwind, !dbg !17309 ; [debug line = 702:33@761:5@1348:246@300:12] [debug variable = neg_src]
  call void @llvm.dbg.value(metadata !{i21 %__Val2__.41}, i64 0, metadata !17310) nounwind, !dbg !17311 ; [debug line = 705:100@761:5@1348:246@300:12] [debug variable = __Val2__]
  call void @llvm.dbg.value(metadata !{i1 %newsignbit.3}, i64 0, metadata !17312) nounwind, !dbg !17313 ; [debug line = 705:213@761:5@1348:246@300:12] [debug variable = newsignbit]
  call void @llvm.dbg.value(metadata !{i42 %__Val2__.39}, i64 0, metadata !17314) nounwind, !dbg !17315 ; [debug line = 709:0@761:5@1348:246@300:12] [debug variable = __Val2__]
  %__Result__.29 = call i1 @_ssdm_op_PartSelect.i1.i42.i32.i32(i42 %__Val2__.39, i32 37, i32 37), !dbg !17315 ; [#uses=1 type=i1] [debug line = 709:0@761:5@1348:246@300:12]
  call void @llvm.dbg.value(metadata !{i42 %__Val2__.39}, i64 0, metadata !17316) nounwind, !dbg !17317 ; [debug line = 723:0@761:5@1348:246@300:12] [debug variable = __Val2__]
  %tmp.122 = call i4 @_ssdm_op_PartSelect.i4.i42.i32.i32(i42 %__Val2__.39, i32 38, i32 41), !dbg !17317 ; [#uses=1 type=i4] [debug line = 723:0@761:5@1348:246@300:12]
  %Range2_all_ones.2 = icmp eq i4 %tmp.122, -1, !dbg !17318 ; [#uses=1 type=i1] [debug line = 1973:9@726:50@761:5@1348:246@300:12]
  call void @llvm.dbg.value(metadata !{i1 %Range2_all_ones.2}, i64 0, metadata !17320) nounwind, !dbg !17319 ; [debug line = 726:50@761:5@1348:246@300:12] [debug variable = Range2_all_ones]
  call void @llvm.dbg.value(metadata !{i42 %__Val2__.39}, i64 0, metadata !17321) nounwind, !dbg !17322 ; [debug line = 731:0@761:5@1348:246@300:12] [debug variable = __Val2__]
  %tmp.123 = call i5 @_ssdm_op_PartSelect.i5.i42.i32.i32(i42 %__Val2__.39, i32 37, i32 41), !dbg !17322 ; [#uses=2 type=i5] [debug line = 731:0@761:5@1348:246@300:12]
  %Range1_all_ones.3 = icmp eq i5 %tmp.123, -1, !dbg !17323 ; [#uses=3 type=i1] [debug line = 1973:9@735:50@761:5@1348:246@300:12]
  call void @llvm.dbg.value(metadata !{i1 %Range1_all_ones.3}, i64 0, metadata !17325) nounwind, !dbg !17324 ; [debug line = 735:50@761:5@1348:246@300:12] [debug variable = Range1_all_ones]
  %Range1_all_zeros.2 = icmp eq i5 %tmp.123, 0, !dbg !17326 ; [#uses=1 type=i1] [debug line = 736:21@761:5@1348:246@300:12]
  call void @llvm.dbg.value(metadata !{i1 %Range1_all_zeros.2}, i64 0, metadata !17327) nounwind, !dbg !17326 ; [debug line = 736:21@761:5@1348:246@300:12] [debug variable = Range1_all_zeros]
  %deleted_zeros.2 = select i1 %carry.3, i1 %Range1_all_ones.3, i1 %Range1_all_zeros.2, !dbg !17328 ; [#uses=1 type=i1] [debug line = 746:17@761:5@1348:246@300:12]
  call void @llvm.dbg.value(metadata !{i1 %deleted_zeros.2}, i64 0, metadata !17329) nounwind, !dbg !17330 ; [debug line = 700:18@761:5@1348:246@300:12] [debug variable = deleted_zeros]
  %tmp.124 = xor i1 %__Result__.29, true, !dbg !17331 ; [#uses=1 type=i1] [debug line = 747:17@761:5@1348:246@300:12]
  %.41.i.i = and i1 %Range2_all_ones.2, %tmp.124, !dbg !17331 ; [#uses=1 type=i1] [debug line = 747:17@761:5@1348:246@300:12]
  %deleted_ones.3 = select i1 %carry.3, i1 %.41.i.i, i1 %Range1_all_ones.3, !dbg !17332 ; [#uses=1 type=i1] [debug line = 701:18@761:5@1348:246@300:12]
  call void @llvm.dbg.value(metadata !{i1 %deleted_ones.3}, i64 0, metadata !17333) nounwind, !dbg !17332 ; [debug line = 701:18@761:5@1348:246@300:12] [debug variable = deleted_ones]
  %.38.i.i = and i1 %carry.3, %Range1_all_ones.3, !dbg !17334 ; [#uses=1 type=i1] [debug line = 749:17@761:5@1348:246@300:12]
  %tmp.125 = xor i1 %.38.i.i, true                ; [#uses=1 type=i1]
  call void @llvm.dbg.value(metadata !{i1 %newsignbit.3}, i64 0, metadata !17335) nounwind, !dbg !17336 ; [debug line = 752:47@761:5@1348:246@300:12] [debug variable = neg_trg]
  %.not.i.i = xor i1 %deleted_zeros.2, true, !dbg !17337 ; [#uses=1 type=i1] [debug line = 753:66@761:5@1348:246@300:12]
  %brmerge.i.i4 = or i1 %newsignbit.3, %.not.i.i, !dbg !17337 ; [#uses=1 type=i1] [debug line = 753:66@761:5@1348:246@300:12]
  %tmp.126 = xor i1 %signbit.2, true, !dbg !17337 ; [#uses=1 type=i1] [debug line = 753:66@761:5@1348:246@300:12]
  %overflow.5 = and i1 %brmerge.i.i4, %tmp.126, !dbg !17337 ; [#uses=2 type=i1] [debug line = 753:66@761:5@1348:246@300:12]
  call void @llvm.dbg.value(metadata !{i1 %overflow.5}, i64 0, metadata !17338) nounwind, !dbg !17339 ; [debug line = 753:18@761:5@1348:246@300:12] [debug variable = overflow]
  %brmerge40.demorgan.i.i = and i1 %newsignbit.3, %deleted_ones.3, !dbg !17340 ; [#uses=1 type=i1] [debug line = 754:68@761:5@1348:246@300:12]
  %brmerge40.i.i = xor i1 %brmerge40.demorgan.i.i, true, !dbg !17340 ; [#uses=1 type=i1] [debug line = 754:68@761:5@1348:246@300:12]
  call void @llvm.dbg.value(metadata !{i21 %__Val2__.41}, i64 0, metadata !17341) nounwind, !dbg !17342 ; [debug line = 757:88@761:5@1348:246@300:12] [debug variable = __Val2__]
  %__Result__.30 = call i20 @_ssdm_op_PartSelect.i20.i21.i32.i32(i21 %__Val2__.41, i32 0, i32 19), !dbg !17343 ; [#uses=1 type=i20] [debug line = 757:90@761:5@1348:246@300:12]
  %tmp.127 = icmp eq i20 %__Result__.30, 0, !dbg !17344 ; [#uses=1 type=i1] [debug line = 757:185@761:5@1348:246@300:12]
  %tmp.128 = or i1 %tmp.127, %brmerge40.i.i       ; [#uses=1 type=i1]
  %tmp9 = and i1 %tmp.128, %tmp.125               ; [#uses=1 type=i1]
  %underflow.3 = and i1 %tmp9, %signbit.2         ; [#uses=3 type=i1]
  call void @llvm.dbg.value(metadata !{i1 %underflow.3}, i64 0, metadata !17345) nounwind, !dbg !17346 ; [debug line = 754:18@761:5@1348:246@300:12] [debug variable = underflow]
  call void @llvm.dbg.value(metadata !{i1 %underflow.3}, i64 0, metadata !17347) nounwind, !dbg !17349 ; [debug line = 510:57@759:13@761:5@1348:246@300:12] [debug variable = underflow]
  call void @llvm.dbg.value(metadata !{i1 %overflow.5}, i64 0, metadata !17350) nounwind, !dbg !17351 ; [debug line = 510:73@759:13@761:5@1348:246@300:12] [debug variable = overflow]
  %brmerge.i.i.i2 = or i1 %underflow.3, %overflow.5, !dbg !17352 ; [#uses=1 type=i1] [debug line = 515:2@759:13@761:5@1348:246@300:12]
  %underflow.15.not = xor i1 %underflow.3, true, !dbg !17352 ; [#uses=1 type=i1] [debug line = 515:2@759:13@761:5@1348:246@300:12]
  %brmerge4 = or i1 %overflow.5, %underflow.15.not, !dbg !17352 ; [#uses=1 type=i1] [debug line = 515:2@759:13@761:5@1348:246@300:12]
  %__Val2__.33.mux = select i1 %brmerge.i.i.i2, i21 1048575, i21 %__Val2__.41, !dbg !17352 ; [#uses=1 type=i21] [debug line = 515:2@759:13@761:5@1348:246@300:12]
  br i1 %brmerge4, label %_ZN7_ap_sc_7sc_core4waitEi.exit25, label %._crit_edge1.i.i.i480, !dbg !17352 ; [debug line = 515:2@759:13@761:5@1348:246@300:12]

._crit_edge1.i.i.i480:                            ; preds = %_ZN7_ap_sc_7sc_core4waitEi.exit19_ifconv
  %.__Val2__.4 = select i1 %underflow.3, i21 -1048575, i21 %__Val2__.41, !dbg !17353 ; [#uses=1 type=i21] [debug line = 567:24@759:13@761:5@1348:246@300:12]
  br label %_ZN7_ap_sc_7sc_core4waitEi.exit25

_ZN7_ap_sc_7sc_core4waitEi.exit25:                ; preds = %._crit_edge1.i.i.i480, %_ZN7_ap_sc_7sc_core4waitEi.exit19_ifconv, %to_double.exit456, %_ifconv
  %Hs.1 = phi i21 [ %__Val2__.7, %_ifconv ], [ %__Val2__.7, %to_double.exit456 ], [ %.__Val2__.4, %._crit_edge1.i.i.i480 ], [ %__Val2__.33.mux, %_ZN7_ap_sc_7sc_core4waitEi.exit19_ifconv ] ; [#uses=1 type=i21]
  call void (...)* @_ssdm_op_Wait(i32 1) nounwind, !dbg !17354 ; [debug line = 803:19@302:5]
  %j.1 = add i8 %j, 1, !dbg !17356                ; [#uses=1 type=i8] [debug line = 291:38]
  call void @llvm.dbg.value(metadata !{i8 %j.1}, i64 0, metadata !17357), !dbg !17356 ; [debug line = 291:38] [debug variable = j]
  br label %.preheader, !dbg !17356               ; [debug line = 291:38]

; <label>:8                                       ; preds = %.preheader
  %__Val2__.8.lcssa = phi i21 [ %__Val2__.8, %.preheader ] ; [#uses=5 type=i21]
  %__Val2__.7.lcssa = phi i21 [ %__Val2__.7, %.preheader ] ; [#uses=2 type=i21]
  %tmp.65 = icmp eq i21 %__Val2__.8.lcssa, 0, !dbg !17358 ; [#uses=1 type=i1] [debug line = 1081:13@1896:85@304:8]
  br i1 %tmp.65, label %._crit_edge, label %to_double.exit449, !dbg !17358 ; [debug line = 1081:13@1896:85@304:8]

to_double.exit449:                                ; preds = %8
  %dp.9 = sitofp i21 %__Val2__.8.lcssa to double, !dbg !17361 ; [#uses=1 type=double] [debug line = 1083:32@1896:85@304:8]
  call void @llvm.dbg.value(metadata !{double %dp.9}, i64 0, metadata !17362) nounwind, !dbg !17361 ; [debug line = 1083:32@1896:85@304:8] [debug variable = dp]
  call void @llvm.dbg.value(metadata !{double %dp.9}, i64 0, metadata !17363) nounwind, !dbg !17365 ; [debug line = 837:85@1085:21@1896:85@304:8] [debug variable = pf]
  %res.V.2 = bitcast double %dp.9 to i64, !dbg !17366 ; [#uses=2 type=i64] [debug line = 842:9@1085:21@1896:85@304:8]
  call void @llvm.dbg.value(metadata !{i64 %res.V.2}, i64 0, metadata !17367) nounwind, !dbg !17364 ; [debug line = 1085:21@1896:85@304:8] [debug variable = res.V]
  call void @llvm.dbg.value(metadata !{i64 %res.V.2}, i64 0, metadata !17368) nounwind, !dbg !17369 ; [debug line = 1087:84@1896:85@304:8] [debug variable = __Val2__]
  %exp.V.2 = call i11 @_ssdm_op_PartSelect.i11.i64.i32.i32(i64 %res.V.2, i32 52, i32 62), !dbg !17370 ; [#uses=1 type=i11] [debug line = 1087:86@1896:85@304:8]
  call void @llvm.dbg.value(metadata !{i11 %exp.V.2}, i64 0, metadata !17371) nounwind, !dbg !17372 ; [debug line = 1087:175@1896:85@304:8] [debug variable = exp.V]
  %exp.V.9 = add i11 %exp.V.2, -16, !dbg !17373   ; [#uses=3 type=i11] [debug line = 1819:147@3734:159@1088:13@1896:85@304:8]
  call void @llvm.dbg.value(metadata !{i11 %exp.V.9}, i64 0, metadata !17376) nounwind, !dbg !17373 ; [debug line = 1819:147@3734:159@1088:13@1896:85@304:8] [debug variable = exp.V]
  call void @llvm.dbg.value(metadata !{i64 %res.V.2}, i64 0, metadata !17377) nounwind, !dbg !17378 ; [debug line = 1089:84@1896:85@304:8] [debug variable = __Val2__]
  call void @llvm.dbg.value(metadata !{i11 %exp.V.9}, i64 0, metadata !17379) nounwind, !dbg !17380 ; [debug line = 1089:117@1896:85@304:8] [debug variable = __Repl2__]
  %__Result__.5 = call i64 @llvm.part.set.i64.i11(i64 %res.V.2, i11 %exp.V.9, i32 52, i32 62) nounwind, !dbg !17381 ; [#uses=3 type=i64] [debug line = 1089:119@1896:85@304:8]
  call void @llvm.dbg.value(metadata !{i64 %__Result__.5}, i64 0, metadata !17382) nounwind, !dbg !17381 ; [debug line = 1089:119@1896:85@304:8] [debug variable = __Result__]
  call void @llvm.dbg.value(metadata !{i64 %__Result__.5}, i64 0, metadata !17367) nounwind, !dbg !17383 ; [debug line = 1089:226@1896:85@304:8] [debug variable = res.V]
  call void @llvm.dbg.value(metadata !{i64 %__Result__.5}, i64 0, metadata !17384) nounwind, !dbg !17386 ; [debug line = 854:85@1090:34@1896:85@304:8] [debug variable = pi]
  %dp.2 = bitcast i64 %__Result__.5 to double, !dbg !17387 ; [#uses=2 type=double] [debug line = 860:9@1090:34@1896:85@304:8]
  call void @llvm.dbg.value(metadata !{double %dp.2}, i64 0, metadata !17362) nounwind, !dbg !17385 ; [debug line = 1090:34@1896:85@304:8] [debug variable = dp]
  %tmp.28 = trunc i64 %__Result__.5 to i52        ; [#uses=1 type=i52]
  %notlhs1 = icmp ne i11 %exp.V.9, -1             ; [#uses=1 type=i1]
  %notrhs1 = icmp eq i52 %tmp.28, 0               ; [#uses=1 type=i1]
  %tmp.29 = or i1 %notrhs1, %notlhs1              ; [#uses=1 type=i1]
  %tmp.30 = fcmp ogt double %dp.2, 0.000000e+00, !dbg !17388 ; [#uses=1 type=i1] [debug line = 1091:13@1896:85@304:8]
  %tmp.31 = and i1 %tmp.29, %tmp.30, !dbg !17388  ; [#uses=1 type=i1] [debug line = 1091:13@1896:85@304:8]
  %tmp.32 = trunc i64 %__Result__.5 to i52        ; [#uses=1 type=i52]
  %notlhs2 = icmp ne i11 %exp.V.9, -1             ; [#uses=1 type=i1]
  %notrhs2 = icmp eq i52 %tmp.32, 0               ; [#uses=1 type=i1]
  %tmp.33 = or i1 %notrhs2, %notlhs2              ; [#uses=1 type=i1]
  %tmp.34 = fcmp olt double %dp.2, 1.000000e+00, !dbg !17389 ; [#uses=1 type=i1] [debug line = 1091:13@1898:85@304:20]
  %tmp.35 = and i1 %tmp.33, %tmp.34, !dbg !17389  ; [#uses=1 type=i1] [debug line = 1091:13@1898:85@304:20]
  %or.cond = and i1 %tmp.31, %tmp.35, !dbg !17393 ; [#uses=1 type=i1] [debug line = 304:20]
  call void @llvm.dbg.value(metadata !{double %dp.9}, i64 0, metadata !17394) nounwind, !dbg !17395 ; [debug line = 1083:32@1898:85@304:20] [debug variable = dp]
  call void @llvm.dbg.value(metadata !{double %dp.9}, i64 0, metadata !17396) nounwind, !dbg !17398 ; [debug line = 837:85@1085:21@1898:85@304:20] [debug variable = pf]
  call void @llvm.dbg.value(metadata !{i64 %res.V.2}, i64 0, metadata !17399) nounwind, !dbg !17397 ; [debug line = 1085:21@1898:85@304:20] [debug variable = res.V]
  call void @llvm.dbg.value(metadata !{i64 %res.V.2}, i64 0, metadata !17400) nounwind, !dbg !17401 ; [debug line = 1087:84@1898:85@304:20] [debug variable = __Val2__]
  call void @llvm.dbg.value(metadata !{i11 %exp.V.2}, i64 0, metadata !17402) nounwind, !dbg !17403 ; [debug line = 1087:175@1898:85@304:20] [debug variable = exp.V]
  call void @llvm.dbg.value(metadata !{i11 %exp.V.9}, i64 0, metadata !17404) nounwind, !dbg !17407 ; [debug line = 1819:147@3734:159@1088:13@1898:85@304:20] [debug variable = exp.V]
  call void @llvm.dbg.value(metadata !{i64 %res.V.2}, i64 0, metadata !17408) nounwind, !dbg !17409 ; [debug line = 1089:84@1898:85@304:20] [debug variable = __Val2__]
  call void @llvm.dbg.value(metadata !{i11 %exp.V.9}, i64 0, metadata !17410) nounwind, !dbg !17411 ; [debug line = 1089:117@1898:85@304:20] [debug variable = __Repl2__]
  call void @llvm.dbg.value(metadata !{i64 %__Result__.5}, i64 0, metadata !17412) nounwind, !dbg !17413 ; [debug line = 1089:119@1898:85@304:20] [debug variable = __Result__]
  call void @llvm.dbg.value(metadata !{i64 %__Result__.5}, i64 0, metadata !17399) nounwind, !dbg !17414 ; [debug line = 1089:226@1898:85@304:20] [debug variable = res.V]
  call void @llvm.dbg.value(metadata !{i64 %__Result__.5}, i64 0, metadata !17415) nounwind, !dbg !17417 ; [debug line = 854:85@1090:34@1898:85@304:20] [debug variable = pi]
  call void @llvm.dbg.value(metadata !{double %dp.2}, i64 0, metadata !17394) nounwind, !dbg !17416 ; [debug line = 1090:34@1898:85@304:20] [debug variable = dp]
  br i1 %or.cond, label %_ZN7_ap_sc_7sc_core4waitEi.exit29_ifconv, label %._crit_edge, !dbg !17360 ; [debug line = 304:8]

_ZN7_ap_sc_7sc_core4waitEi.exit29_ifconv:         ; preds = %to_double.exit449
  %OP1.V = sext i21 %__Val2__.8.lcssa to i42, !dbg !17418 ; [#uses=3 type=i42] [debug line = 1293:9@305:17]
  call void @llvm.dbg.value(metadata !{i42 %OP1.V}, i64 0, metadata !17426), !dbg !17418 ; [debug line = 1293:9@305:17] [debug variable = OP1.V]
  call void @llvm.dbg.value(metadata !{i42 %OP1.V}, i64 0, metadata !17432), !dbg !17434 ; [debug line = 1295:9@305:17] [debug variable = OP2.V]
  %__Val2__.27 = mul nsw i42 %OP1.V, %OP1.V, !dbg !17435 ; [#uses=1 type=i42] [debug line = 1296:9@305:17]
  call void @llvm.dbg.value(metadata !{i21 %__Val2__.8}, i64 0, metadata !17436) nounwind, !dbg !17450 ; [debug line = 663:0@761:5@1330:0@305:17] [debug variable = __Val2__]
  %tmp.81.cast = zext i21 %__Val2__.8.lcssa to i37, !dbg !17451 ; [#uses=1 type=i37] [debug line = 691:17@761:5@1330:0@305:17]
  %tmp.82 = shl nuw i37 %tmp.81.cast, 16, !dbg !17451 ; [#uses=1 type=i37] [debug line = 691:17@761:5@1330:0@305:17]
  %tmp.82.cast = sext i37 %tmp.82 to i42, !dbg !17451 ; [#uses=1 type=i42] [debug line = 691:17@761:5@1330:0@305:17]
  call void @llvm.dbg.value(metadata !{i42 %__Val2__.27}, i64 0, metadata !17453) nounwind, !dbg !17459 ; [debug line = 663:0@761:5@1330:0@305:17] [debug variable = __Val2__]
  %__Val2__.28 = sub i42 %tmp.82.cast, %__Val2__.27, !dbg !17442 ; [#uses=4 type=i42] [debug line = 1330:0@305:17]
  call void @llvm.dbg.value(metadata !{i42 %__Val2__.28}, i64 0, metadata !17460) nounwind, !dbg !17472 ; [debug line = 663:0@1033:31@1033:33@305:17] [debug variable = __Val2__]
  %tmp.91 = lshr i42 %__Val2__.28, 16, !dbg !17473 ; [#uses=1 type=i42] [debug line = 670:17@1033:31@1033:33@305:17]
  %tmp.92 = trunc i42 %tmp.91 to i26, !dbg !17473 ; [#uses=1 type=i26] [debug line = 670:17@1033:31@1033:33@305:17]
  %__Val2__.43.cast = sext i26 %tmp.92 to i28, !dbg !17475 ; [#uses=1 type=i28] [debug line = 677:0@1033:31@1033:33@305:17]
  call void @llvm.dbg.value(metadata !{i42 %__Val2__.28}, i64 0, metadata !17478) nounwind, !dbg !17475 ; [debug line = 677:0@1033:31@1033:33@305:17] [debug variable = __Val2__]
  %qbit.3 = call i1 @_ssdm_op_PartSelect.i1.i42.i32.i32(i42 %__Val2__.28, i32 15, i32 15), !dbg !17475 ; [#uses=1 type=i1] [debug line = 677:0@1033:31@1033:33@305:17]
  call void @llvm.dbg.value(metadata !{i1 %qbit.3}, i64 0, metadata !17479) nounwind, !dbg !17475 ; [debug line = 677:0@1033:31@1033:33@305:17] [debug variable = qbit]
  call void @llvm.dbg.value(metadata !{i1 %qbit.3}, i64 0, metadata !17480) nounwind, !dbg !17481 ; [debug line = 679:73@1033:31@1033:33@305:17] [debug variable = qb]
  call void @llvm.dbg.value(metadata !{i42 %__Val2__.28}, i64 0, metadata !17482) nounwind, !dbg !17484 ; [debug line = 682:0@1033:31@1033:33@305:17] [debug variable = __Val2__]
  %__Result__.16 = call i15 @_ssdm_op_PartSelect.i15.i42.i32.i32(i42 %__Val2__.28, i32 0, i32 14), !dbg !17484 ; [#uses=1 type=i15] [debug line = 682:0@1033:31@1033:33@305:17]
  %r.3 = icmp ne i15 %__Result__.16, 0, !dbg !17484 ; [#uses=1 type=i1] [debug line = 682:0@1033:31@1033:33@305:17]
  call void @llvm.dbg.value(metadata !{i1 %r.3}, i64 0, metadata !17485) nounwind, !dbg !17484 ; [debug line = 682:0@1033:31@1033:33@305:17] [debug variable = r]
  call void @llvm.dbg.value(metadata !{i1 %qbit.3}, i64 0, metadata !17486) nounwind, !dbg !17489 ; [debug line = 583:61@685:25@1033:31@1033:33@305:17] [debug variable = qb]
  call void @llvm.dbg.value(metadata !{i1 %r.3}, i64 0, metadata !17490) nounwind, !dbg !17491 ; [debug line = 583:70@685:25@1033:31@1033:33@305:17] [debug variable = r]
  %__Result__.17 = call i1 @_ssdm_op_PartSelect.i1.i42.i32.i32(i42 %__Val2__.28, i32 16, i32 16), !dbg !17492 ; [#uses=1 type=i1] [debug line = 597:90@685:25@1033:31@1033:33@305:17]
  %r..i.i1 = or i1 %__Result__.17, %r.3, !dbg !17495 ; [#uses=1 type=i1] [debug line = 597:189@685:25@1033:31@1033:33@305:17]
  %qb.assign.5 = and i1 %r..i.i1, %qbit.3, !dbg !17495 ; [#uses=1 type=i1] [debug line = 597:189@685:25@1033:31@1033:33@305:17]
  call void @llvm.dbg.value(metadata !{i1 %qb.assign.5}, i64 0, metadata !17486) nounwind, !dbg !17495 ; [debug line = 597:189@685:25@1033:31@1033:33@305:17] [debug variable = qb]
  %tmp.86.cast = zext i1 %qb.assign.5 to i28, !dbg !17496 ; [#uses=1 type=i28] [debug line = 600:9@685:25@1033:31@1033:33@305:17]
  %__Val2__.30 = add i28 %__Val2__.43.cast, %tmp.86.cast, !dbg !17496 ; [#uses=5 type=i28] [debug line = 600:9@685:25@1033:31@1033:33@305:17]
  call void @llvm.dbg.value(metadata !{i28 %__Val2__.30}, i64 0, metadata !17497) nounwind, !dbg !17499 ; [debug line = 602:100@685:25@1033:31@1033:33@305:17] [debug variable = __Val2__]
  call void (...)* @_ssdm_op_Wait(i32 1) nounwind, !dbg !17500 ; [debug line = 803:19@306:5]
  call void @llvm.dbg.value(metadata !{i28 %__Val2__.30}, i64 0, metadata !17502), !dbg !17507 ; [debug line = 1036:62@307:5] [debug variable = v.V]
  call void @llvm.dbg.value(metadata !{i28 %__Val2__.30}, i64 0, metadata !17509) nounwind, !dbg !17518 ; [debug line = 663:0@1036:84@1036:86@307:5] [debug variable = __Val2__]
  %isneg.3 = call i1 @_ssdm_op_PartSelect.i1.i28.i32.i32(i28 %__Val2__.30, i32 27, i32 27), !dbg !17518 ; [#uses=2 type=i1] [debug line = 663:0@1036:84@1036:86@307:5]
  call void @llvm.dbg.value(metadata !{i1 %isneg.3}, i64 0, metadata !17519) nounwind, !dbg !17520 ; [debug line = 665:14@1036:84@1036:86@307:5] [debug variable = isneg]
  %__Val2__.31 = trunc i28 %__Val2__.30 to i21, !dbg !17521 ; [#uses=2 type=i21] [debug line = 667:13@1036:84@1036:86@307:5]
  call void @llvm.dbg.value(metadata !{i1 %isneg.3}, i64 0, metadata !17522) nounwind, !dbg !17524 ; [debug line = 702:33@1036:84@1036:86@307:5] [debug variable = neg_src]
  call void @llvm.dbg.value(metadata !{i21 %__Val2__.31}, i64 0, metadata !17525) nounwind, !dbg !17527 ; [debug line = 705:100@1036:84@1036:86@307:5] [debug variable = __Val2__]
  %newsignbit.4 = call i1 @_ssdm_op_PartSelect.i1.i28.i32.i32(i28 %__Val2__.30, i32 20, i32 20), !dbg !17528 ; [#uses=2 type=i1] [debug line = 705:102@1036:84@1036:86@307:5]
  call void @llvm.dbg.value(metadata !{i1 %newsignbit.4}, i64 0, metadata !17529) nounwind, !dbg !17530 ; [debug line = 705:213@1036:84@1036:86@307:5] [debug variable = newsignbit]
  call void @llvm.dbg.value(metadata !{i28 %__Val2__.30}, i64 0, metadata !17531) nounwind, !dbg !17533 ; [debug line = 709:0@1036:84@1036:86@307:5] [debug variable = __Val2__]
  call void @llvm.dbg.value(metadata !{i28 %__Val2__.30}, i64 0, metadata !17534) nounwind, !dbg !17538 ; [debug line = 723:0@1036:84@1036:86@307:5] [debug variable = __Val2__]
  call void @llvm.dbg.value(metadata !{i28 %__Val2__.30}, i64 0, metadata !17539) nounwind, !dbg !17542 ; [debug line = 731:0@1036:84@1036:86@307:5] [debug variable = __Val2__]
  %tmp.94 = call i7 @_ssdm_op_PartSelect.i7.i28.i32.i32(i28 %__Val2__.30, i32 21, i32 27), !dbg !17542 ; [#uses=2 type=i7] [debug line = 731:0@1036:84@1036:86@307:5]
  call void @llvm.dbg.value(metadata !{i1 %newsignbit.4}, i64 0, metadata !17543) nounwind, !dbg !17544 ; [debug line = 752:47@1036:84@1036:86@307:5] [debug variable = neg_trg]
  %.not.i1 = icmp ne i7 %tmp.94, 0, !dbg !17545   ; [#uses=1 type=i1] [debug line = 753:66@1036:84@1036:86@307:5]
  %brmerge.i1 = or i1 %newsignbit.4, %.not.i1, !dbg !17545 ; [#uses=1 type=i1] [debug line = 753:66@1036:84@1036:86@307:5]
  %tmp.90 = xor i1 %isneg.3, true, !dbg !17545    ; [#uses=1 type=i1] [debug line = 753:66@1036:84@1036:86@307:5]
  %overflow.6 = and i1 %brmerge.i1, %tmp.90, !dbg !17546 ; [#uses=2 type=i1] [debug line = 510:73@759:13@1036:84@1036:86@307:5]
  call void @llvm.dbg.value(metadata !{i1 %overflow.6}, i64 0, metadata !17548) nounwind, !dbg !17549 ; [debug line = 753:18@1036:84@1036:86@307:5] [debug variable = overflow]
  %newsignbit.0.not.i = xor i1 %newsignbit.4, true, !dbg !17550 ; [#uses=1 type=i1] [debug line = 754:68@1036:84@1036:86@307:5]
  %.not38.i = icmp ne i7 %tmp.94, -1, !dbg !17550 ; [#uses=1 type=i1] [debug line = 754:68@1036:84@1036:86@307:5]
  call void @llvm.dbg.value(metadata !{i21 %__Val2__.31}, i64 0, metadata !17551) nounwind, !dbg !17553 ; [debug line = 757:88@1036:84@1036:86@307:5] [debug variable = __Val2__]
  %__Result__.18 = call i20 @_ssdm_op_PartSelect.i20.i28.i32.i32(i28 %__Val2__.30, i32 0, i32 19), !dbg !17554 ; [#uses=1 type=i20] [debug line = 757:90@1036:84@1036:86@307:5]
  %tmp.93 = icmp eq i20 %__Result__.18, 0, !dbg !17555 ; [#uses=1 type=i1] [debug line = 757:185@1036:84@1036:86@307:5]
  %tmp10 = or i1 %tmp.93, %newsignbit.0.not.i     ; [#uses=1 type=i1]
  %underflow. = or i1 %tmp10, %.not38.i           ; [#uses=1 type=i1]
  %underflow.4 = and i1 %underflow., %isneg.3     ; [#uses=3 type=i1]
  call void @llvm.dbg.value(metadata !{i1 %underflow.4}, i64 0, metadata !17556) nounwind, !dbg !17557 ; [debug line = 754:18@1036:84@1036:86@307:5] [debug variable = underflow]
  call void @llvm.dbg.value(metadata !{i1 %underflow.4}, i64 0, metadata !17558) nounwind, !dbg !17559 ; [debug line = 510:57@759:13@1036:84@1036:86@307:5] [debug variable = underflow]
  call void @llvm.dbg.value(metadata !{i1 %overflow.6}, i64 0, metadata !17560) nounwind, !dbg !17546 ; [debug line = 510:73@759:13@1036:84@1036:86@307:5] [debug variable = overflow]
  call void @llvm.dbg.value(metadata !{i1 %isneg.3}, i64 0, metadata !17561) nounwind, !dbg !17562 ; [debug line = 510:96@759:13@1036:84@1036:86@307:5] [debug variable = sign]
  %brmerge.i.i3 = or i1 %underflow.4, %overflow.6, !dbg !17563 ; [#uses=1 type=i1] [debug line = 515:2@759:13@1036:84@1036:86@307:5]
  %underflow.16.not = xor i1 %underflow.4, true, !dbg !17563 ; [#uses=1 type=i1] [debug line = 515:2@759:13@1036:84@1036:86@307:5]
  %brmerge5 = or i1 %overflow.6, %underflow.16.not, !dbg !17563 ; [#uses=1 type=i1] [debug line = 515:2@759:13@1036:84@1036:86@307:5]
  %__Val2__.26.mux = select i1 %brmerge.i.i3, i21 1048575, i21 %__Val2__.31, !dbg !17563 ; [#uses=1 type=i21] [debug line = 515:2@759:13@1036:84@1036:86@307:5]
  %.__Val2__.1 = select i1 %underflow.4, i21 -1048575, i21 %__Val2__.31, !dbg !17564 ; [#uses=1 type=i21] [debug line = 567:24@759:13@1036:84@1036:86@307:5]
  %this.assign.13.1 = select i1 %brmerge5, i21 %__Val2__.26.mux, i21 %.__Val2__.1 ; [#uses=1 type=i21]
  call void @llvm.dbg.value(metadata !{i21* %WBSlave.log_in.V}, i64 0, metadata !17565), !dbg !17567 ; [debug line = 1027:12@307:5] [debug variable = ssdm_int<21 + 1024 * 0, true>.V]
  store i21 %this.assign.13.1, i21* %WBSlave.log_in.V, align 4, !dbg !17568 ; [debug line = 988:9@1027:12@307:5]
  call void (...)* @_ssdm_op_Wait(i32 1) nounwind, !dbg !17570 ; [debug line = 309:8]
  call void (...)* @_ssdm_op_Poll(i1 %WBSlave.log_done.V.load), !dbg !17572 ; [debug line = 309:56]
  call void @llvm.dbg.value(metadata !{i21 %v.V.assign}, i64 0, metadata !16964), !dbg !17573 ; [debug line = 1036:62@310:5] [debug variable = v.V]
  call void @llvm.dbg.value(metadata !{i21 %v.V.assign}, i64 0, metadata !17575) nounwind, !dbg !17578 ; [debug line = 663:0@1036:84@1036:86@310:5] [debug variable = __Val2__]
  store i1 false, i1* %WBSlave.log_start.V, align 1, !dbg !17579 ; [debug line = 378:13@311:5]
  call void (...)* @_ssdm_op_Wait(i32 1) nounwind, !dbg !17581 ; [debug line = 803:19@312:5]
  call void @llvm.dbg.value(metadata !{i21 %__Val2__.7}, i64 0, metadata !17583) nounwind, !dbg !17596 ; [debug line = 663:0@761:5@1309:45@313:18] [debug variable = __Val2__]
  %tmp.95 = sext i21 %__Val2__.7.lcssa to i42, !dbg !17597 ; [#uses=1 type=i42] [debug line = 689:13@761:5@1309:45@313:18]
  %tmp.96 = shl nsw i42 %tmp.95, 21, !dbg !17599  ; [#uses=1 type=i42] [debug line = 691:17@761:5@1309:45@313:18]
  %tmp.97 = sdiv i42 %tmp.96, %OP1.V, !dbg !17600 ; [#uses=1 type=i42] [debug line = 1311:9@313:18]
  %tmp.101.cast = zext i21 %v.V.assign to i26, !dbg !17601 ; [#uses=1 type=i26] [debug line = 691:17@761:5@1329:0@313:18]
  %tmp.98 = shl nuw i26 %tmp.101.cast, 5, !dbg !17601 ; [#uses=1 type=i26] [debug line = 691:17@761:5@1329:0@313:18]
  %tmp.102.cast = sext i26 %tmp.98 to i43, !dbg !17601 ; [#uses=1 type=i43] [debug line = 691:17@761:5@1329:0@313:18]
  %tmp.103.cast = sext i42 %tmp.97 to i43, !dbg !17607 ; [#uses=1 type=i43] [debug line = 1329:0@313:18]
  %__Val2__.33 = add i43 %tmp.102.cast, %tmp.103.cast, !dbg !17607 ; [#uses=1 type=i43] [debug line = 1329:0@313:18]
  %__Val2__.49.cast = zext i43 %__Val2__.33 to i44, !dbg !17607 ; [#uses=1 type=i44] [debug line = 1329:0@313:18]
  call void @llvm.dbg.value(metadata !{i21 %__Val2__.17}, i64 0, metadata !17615) nounwind, !dbg !17624 ; [debug line = 663:0@761:5@1330:0@313:29] [debug variable = __Val2__]
  %tmp.99 = sext i21 %__Val2__.20.lcssa to i22, !dbg !17625 ; [#uses=1 type=i22] [debug line = 667:13@761:5@1330:0@313:29]
  call void @llvm.dbg.value(metadata !{i21 %__Val2__.7}, i64 0, metadata !17615) nounwind, !dbg !17624 ; [debug line = 663:0@761:5@1330:0@313:29] [debug variable = __Val2__]
  %tmp.100 = sext i21 %__Val2__.7.lcssa to i22, !dbg !17625 ; [#uses=1 type=i22] [debug line = 667:13@761:5@1330:0@313:29]
  %__Val2__.12 = sub i22 %tmp.99, %tmp.100, !dbg !17617 ; [#uses=1 type=i22] [debug line = 1330:0@313:29]
  call void @llvm.dbg.value(metadata !{i21 %__Val2__.8}, i64 0, metadata !17626) nounwind, !dbg !17630 ; [debug line = 663:0@761:5@1330:0@313:41] [debug variable = __Val2__]
  %tmp.101 = sext i21 %__Val2__.8.lcssa to i22, !dbg !17631 ; [#uses=1 type=i22] [debug line = 667:13@761:5@1330:0@313:41]
  %r.V = sub i22 65536, %tmp.101, !dbg !17628     ; [#uses=1 type=i22] [debug line = 1330:0@313:41]
  call void @llvm.dbg.value(metadata !{i22 %r.V}, i64 0, metadata !17632), !dbg !17628 ; [debug line = 1330:0@313:41] [debug variable = r.V]
  call void @llvm.dbg.value(metadata !{i22 %__Val2__.12}, i64 0, metadata !17639) nounwind, !dbg !17648 ; [debug line = 663:0@761:5@1309:45@313:41] [debug variable = __Val2__]
  %tmp.102 = sext i22 %__Val2__.12 to i44, !dbg !17649 ; [#uses=1 type=i44] [debug line = 689:13@761:5@1309:45@313:41]
  %tmp.103 = shl nsw i44 %tmp.102, 22, !dbg !17651 ; [#uses=1 type=i44] [debug line = 691:17@761:5@1309:45@313:41]
  %tmp.104 = sext i22 %r.V to i44, !dbg !17652    ; [#uses=1 type=i44] [debug line = 1311:9@313:41]
  %tmp.105 = sdiv i44 %tmp.103, %tmp.104, !dbg !17652 ; [#uses=1 type=i44] [debug line = 1311:9@313:41]
  call void @llvm.dbg.value(metadata !{i43 %__Val2__.33}, i64 0, metadata !17653) nounwind, !dbg !17662 ; [debug line = 663:0@761:5@1329:0@313:41] [debug variable = __Val2__]
  %tmp.106 = shl nuw i44 %__Val2__.49.cast, 1, !dbg !17663 ; [#uses=1 type=i44] [debug line = 691:17@761:5@1329:0@313:41]
  %tmp.112.cast = sext i44 %tmp.106 to i45, !dbg !17663 ; [#uses=1 type=i45] [debug line = 691:17@761:5@1329:0@313:41]
  %tmp.113.cast = sext i44 %tmp.105 to i45, !dbg !17659 ; [#uses=1 type=i45] [debug line = 1329:0@313:41]
  %__Val2__.34 = add i45 %tmp.112.cast, %tmp.113.cast, !dbg !17659 ; [#uses=9 type=i45] [debug line = 1329:0@313:41]
  call void @llvm.dbg.value(metadata !{i45 %__Val2__.34}, i64 0, metadata !17665) nounwind, !dbg !17677 ; [debug line = 663:0@1033:31@1033:33@313:41] [debug variable = __Val2__]
  %signbit.3 = call i1 @_ssdm_op_PartSelect.i1.i45.i32.i32(i45 %__Val2__.34, i32 44, i32 44), !dbg !17677 ; [#uses=2 type=i1] [debug line = 663:0@1033:31@1033:33@313:41]
  call void @llvm.dbg.value(metadata !{i1 %signbit.3}, i64 0, metadata !17678) nounwind, !dbg !17677 ; [debug line = 663:0@1033:31@1033:33@313:41] [debug variable = signbit]
  call void @llvm.dbg.value(metadata !{i1 %signbit.3}, i64 0, metadata !17679) nounwind, !dbg !17680 ; [debug line = 665:14@1033:31@1033:33@313:41] [debug variable = isneg]
  %tmp.107 = lshr i45 %__Val2__.34, 6, !dbg !17681 ; [#uses=1 type=i45] [debug line = 670:17@1033:31@1033:33@313:41]
  %__Val2__.35 = trunc i45 %tmp.107 to i21, !dbg !17681 ; [#uses=1 type=i21] [debug line = 670:17@1033:31@1033:33@313:41]
  call void @llvm.dbg.value(metadata !{i45 %__Val2__.34}, i64 0, metadata !17683) nounwind, !dbg !17686 ; [debug line = 677:0@1033:31@1033:33@313:41] [debug variable = __Val2__]
  %qbit.4 = call i1 @_ssdm_op_PartSelect.i1.i45.i32.i32(i45 %__Val2__.34, i32 5, i32 5), !dbg !17686 ; [#uses=1 type=i1] [debug line = 677:0@1033:31@1033:33@313:41]
  call void @llvm.dbg.value(metadata !{i1 %qbit.4}, i64 0, metadata !17687) nounwind, !dbg !17686 ; [debug line = 677:0@1033:31@1033:33@313:41] [debug variable = qbit]
  call void @llvm.dbg.value(metadata !{i1 %qbit.4}, i64 0, metadata !17688) nounwind, !dbg !17689 ; [debug line = 679:73@1033:31@1033:33@313:41] [debug variable = qb]
  call void @llvm.dbg.value(metadata !{i45 %__Val2__.34}, i64 0, metadata !17690) nounwind, !dbg !17692 ; [debug line = 682:0@1033:31@1033:33@313:41] [debug variable = __Val2__]
  %__Result__.19 = call i5 @_ssdm_op_PartSelect.i5.i45.i32.i32(i45 %__Val2__.34, i32 0, i32 4), !dbg !17692 ; [#uses=1 type=i5] [debug line = 682:0@1033:31@1033:33@313:41]
  %r.4 = icmp ne i5 %__Result__.19, 0, !dbg !17692 ; [#uses=1 type=i1] [debug line = 682:0@1033:31@1033:33@313:41]
  call void @llvm.dbg.value(metadata !{i1 %r.4}, i64 0, metadata !17693) nounwind, !dbg !17692 ; [debug line = 682:0@1033:31@1033:33@313:41] [debug variable = r]
  call void @llvm.dbg.value(metadata !{i1 %qbit.4}, i64 0, metadata !17694) nounwind, !dbg !17696 ; [debug line = 583:61@685:25@1033:31@1033:33@313:41] [debug variable = qb]
  call void @llvm.dbg.value(metadata !{i1 %r.4}, i64 0, metadata !17697) nounwind, !dbg !17698 ; [debug line = 583:70@685:25@1033:31@1033:33@313:41] [debug variable = r]
  call void @llvm.dbg.value(metadata !{i1 %signbit.3}, i64 0, metadata !17699) nounwind, !dbg !17700 ; [debug line = 583:78@685:25@1033:31@1033:33@313:41] [debug variable = s]
  call void @llvm.dbg.value(metadata !{i21 %__Val2__.35}, i64 0, metadata !17701) nounwind, !dbg !17702 ; [debug line = 587:88@685:25@1033:31@1033:33@313:41] [debug variable = __Val2__]
  %__Result__.20 = call i1 @_ssdm_op_PartSelect.i1.i45.i32.i32(i45 %__Val2__.34, i32 26, i32 26), !dbg !17703 ; [#uses=1 type=i1] [debug line = 587:90@685:25@1033:31@1033:33@313:41]
  call void @llvm.dbg.value(metadata !{i21 %__Val2__.35}, i64 0, metadata !17704) nounwind, !dbg !17705 ; [debug line = 597:88@685:25@1033:31@1033:33@313:41] [debug variable = __Val2__]
  %__Result__.21 = call i1 @_ssdm_op_PartSelect.i1.i45.i32.i32(i45 %__Val2__.34, i32 6, i32 6), !dbg !17706 ; [#uses=1 type=i1] [debug line = 597:90@685:25@1033:31@1033:33@313:41]
  %r..i.i2 = or i1 %__Result__.21, %r.4, !dbg !17707 ; [#uses=1 type=i1] [debug line = 597:189@685:25@1033:31@1033:33@313:41]
  %qb.assign.8 = and i1 %r..i.i2, %qbit.4, !dbg !17707 ; [#uses=1 type=i1] [debug line = 597:189@685:25@1033:31@1033:33@313:41]
  call void @llvm.dbg.value(metadata !{i1 %qb.assign.8}, i64 0, metadata !17694) nounwind, !dbg !17707 ; [debug line = 597:189@685:25@1033:31@1033:33@313:41] [debug variable = qb]
  %tmp.108 = zext i1 %qb.assign.8 to i21, !dbg !17708 ; [#uses=1 type=i21] [debug line = 600:9@685:25@1033:31@1033:33@313:41]
  %__Val2__.36 = add i21 %__Val2__.35, %tmp.108, !dbg !17708 ; [#uses=4 type=i21] [debug line = 600:9@685:25@1033:31@1033:33@313:41]
  call void @llvm.dbg.value(metadata !{i21 %__Val2__.36}, i64 0, metadata !17709) nounwind, !dbg !17710 ; [debug line = 602:100@685:25@1033:31@1033:33@313:41] [debug variable = __Val2__]
  %newsignbit.5 = call i1 @_ssdm_op_PartSelect.i1.i21.i32.i32(i21 %__Val2__.36, i32 20, i32 20), !dbg !17711 ; [#uses=3 type=i1] [debug line = 602:102@685:25@1033:31@1033:33@313:41]
  %tmp.109 = xor i1 %newsignbit.5, true, !dbg !17712 ; [#uses=1 type=i1] [debug line = 602:213@685:25@1033:31@1033:33@313:41]
  %carry.2 = and i1 %__Result__.20, %tmp.109, !dbg !17695 ; [#uses=3 type=i1] [debug line = 685:25@1033:31@1033:33@313:41]
  call void @llvm.dbg.value(metadata !{i1 %carry.2}, i64 0, metadata !17713) nounwind, !dbg !17695 ; [debug line = 685:25@1033:31@1033:33@313:41] [debug variable = carry]
  call void @llvm.dbg.value(metadata !{i1 %signbit.3}, i64 0, metadata !17714) nounwind, !dbg !17716 ; [debug line = 702:33@1033:31@1033:33@313:41] [debug variable = neg_src]
  call void @llvm.dbg.value(metadata !{i21 %__Val2__.36}, i64 0, metadata !17717) nounwind, !dbg !17719 ; [debug line = 705:100@1033:31@1033:33@313:41] [debug variable = __Val2__]
  call void @llvm.dbg.value(metadata !{i1 %newsignbit.5}, i64 0, metadata !17720) nounwind, !dbg !17721 ; [debug line = 705:213@1033:31@1033:33@313:41] [debug variable = newsignbit]
  call void @llvm.dbg.value(metadata !{i45 %__Val2__.34}, i64 0, metadata !17722) nounwind, !dbg !17724 ; [debug line = 709:0@1033:31@1033:33@313:41] [debug variable = __Val2__]
  %__Result__.23 = call i1 @_ssdm_op_PartSelect.i1.i45.i32.i32(i45 %__Val2__.34, i32 27, i32 27), !dbg !17724 ; [#uses=1 type=i1] [debug line = 709:0@1033:31@1033:33@313:41]
  call void @llvm.dbg.value(metadata !{i45 %__Val2__.34}, i64 0, metadata !17725) nounwind, !dbg !17729 ; [debug line = 723:0@1033:31@1033:33@313:41] [debug variable = __Val2__]
  %tmp.110 = call i17 @_ssdm_op_PartSelect.i17.i45.i32.i32(i45 %__Val2__.34, i32 28, i32 44), !dbg !17729 ; [#uses=1 type=i17] [debug line = 723:0@1033:31@1033:33@313:41]
  %Range2_all_ones.3 = icmp eq i17 %tmp.110, -1, !dbg !17730 ; [#uses=1 type=i1] [debug line = 1973:9@726:50@1033:31@1033:33@313:41]
  call void @llvm.dbg.value(metadata !{i1 %Range2_all_ones.3}, i64 0, metadata !17734) nounwind, !dbg !17733 ; [debug line = 726:50@1033:31@1033:33@313:41] [debug variable = Range2_all_ones]
  call void @llvm.dbg.value(metadata !{i45 %__Val2__.34}, i64 0, metadata !17735) nounwind, !dbg !17738 ; [debug line = 731:0@1033:31@1033:33@313:41] [debug variable = __Val2__]
  %tmp.111 = call i18 @_ssdm_op_PartSelect.i18.i45.i32.i32(i45 %__Val2__.34, i32 27, i32 44), !dbg !17738 ; [#uses=2 type=i18] [debug line = 731:0@1033:31@1033:33@313:41]
  %Range1_all_ones.4 = icmp eq i18 %tmp.111, -1, !dbg !17739 ; [#uses=3 type=i1] [debug line = 1973:9@735:50@1033:31@1033:33@313:41]
  call void @llvm.dbg.value(metadata !{i1 %Range1_all_ones.4}, i64 0, metadata !17741) nounwind, !dbg !17740 ; [debug line = 735:50@1033:31@1033:33@313:41] [debug variable = Range1_all_ones]
  %Range1_all_zeros.3 = icmp eq i18 %tmp.111, 0, !dbg !17742 ; [#uses=1 type=i1] [debug line = 736:21@1033:31@1033:33@313:41]
  call void @llvm.dbg.value(metadata !{i1 %Range1_all_zeros.3}, i64 0, metadata !17743) nounwind, !dbg !17742 ; [debug line = 736:21@1033:31@1033:33@313:41] [debug variable = Range1_all_zeros]
  %deleted_zeros.3 = select i1 %carry.2, i1 %Range1_all_ones.4, i1 %Range1_all_zeros.3, !dbg !17744 ; [#uses=1 type=i1] [debug line = 746:17@1033:31@1033:33@313:41]
  call void @llvm.dbg.value(metadata !{i1 %deleted_zeros.3}, i64 0, metadata !17745) nounwind, !dbg !17746 ; [debug line = 700:18@1033:31@1033:33@313:41] [debug variable = deleted_zeros]
  %tmp.112 = xor i1 %__Result__.23, true, !dbg !17747 ; [#uses=1 type=i1] [debug line = 747:17@1033:31@1033:33@313:41]
  %.41.i1 = and i1 %Range2_all_ones.3, %tmp.112, !dbg !17747 ; [#uses=1 type=i1] [debug line = 747:17@1033:31@1033:33@313:41]
  %deleted_ones.4 = select i1 %carry.2, i1 %.41.i1, i1 %Range1_all_ones.4, !dbg !17748 ; [#uses=1 type=i1] [debug line = 701:18@1033:31@1033:33@313:41]
  call void @llvm.dbg.value(metadata !{i1 %deleted_ones.4}, i64 0, metadata !17749) nounwind, !dbg !17748 ; [debug line = 701:18@1033:31@1033:33@313:41] [debug variable = deleted_ones]
  %.38.i1 = and i1 %carry.2, %Range1_all_ones.4, !dbg !17750 ; [#uses=1 type=i1] [debug line = 749:17@1033:31@1033:33@313:41]
  %tmp.113 = xor i1 %.38.i1, true                 ; [#uses=1 type=i1]
  call void @llvm.dbg.value(metadata !{i1 %newsignbit.5}, i64 0, metadata !17751) nounwind, !dbg !17752 ; [debug line = 752:47@1033:31@1033:33@313:41] [debug variable = neg_trg]
  %.not.i2 = xor i1 %deleted_zeros.3, true, !dbg !17753 ; [#uses=1 type=i1] [debug line = 753:66@1033:31@1033:33@313:41]
  %brmerge.i2 = or i1 %newsignbit.5, %.not.i2, !dbg !17753 ; [#uses=1 type=i1] [debug line = 753:66@1033:31@1033:33@313:41]
  %tmp.114 = xor i1 %signbit.3, true, !dbg !17753 ; [#uses=1 type=i1] [debug line = 753:66@1033:31@1033:33@313:41]
  %overflow.7 = and i1 %brmerge.i2, %tmp.114, !dbg !17753 ; [#uses=2 type=i1] [debug line = 753:66@1033:31@1033:33@313:41]
  call void @llvm.dbg.value(metadata !{i1 %overflow.7}, i64 0, metadata !17754) nounwind, !dbg !17755 ; [debug line = 753:18@1033:31@1033:33@313:41] [debug variable = overflow]
  %brmerge40.demorgan.i1 = and i1 %newsignbit.5, %deleted_ones.4, !dbg !17756 ; [#uses=1 type=i1] [debug line = 754:68@1033:31@1033:33@313:41]
  %brmerge40.i1 = xor i1 %brmerge40.demorgan.i1, true, !dbg !17756 ; [#uses=1 type=i1] [debug line = 754:68@1033:31@1033:33@313:41]
  call void @llvm.dbg.value(metadata !{i21 %__Val2__.36}, i64 0, metadata !17757) nounwind, !dbg !17759 ; [debug line = 757:88@1033:31@1033:33@313:41] [debug variable = __Val2__]
  %__Result__.24 = call i20 @_ssdm_op_PartSelect.i20.i21.i32.i32(i21 %__Val2__.36, i32 0, i32 19), !dbg !17760 ; [#uses=1 type=i20] [debug line = 757:90@1033:31@1033:33@313:41]
  %tmp.115 = icmp eq i20 %__Result__.24, 0, !dbg !17761 ; [#uses=1 type=i1] [debug line = 757:185@1033:31@1033:33@313:41]
  %tmp.116 = or i1 %tmp.115, %brmerge40.i1        ; [#uses=1 type=i1]
  %tmp11 = and i1 %tmp.116, %tmp.113              ; [#uses=1 type=i1]
  %underflow.5 = and i1 %tmp11, %signbit.3        ; [#uses=3 type=i1]
  call void @llvm.dbg.value(metadata !{i1 %underflow.5}, i64 0, metadata !17762) nounwind, !dbg !17763 ; [debug line = 754:18@1033:31@1033:33@313:41] [debug variable = underflow]
  call void @llvm.dbg.value(metadata !{i1 %underflow.5}, i64 0, metadata !17764) nounwind, !dbg !17766 ; [debug line = 510:57@759:13@1033:31@1033:33@313:41] [debug variable = underflow]
  call void @llvm.dbg.value(metadata !{i1 %overflow.7}, i64 0, metadata !17767) nounwind, !dbg !17768 ; [debug line = 510:73@759:13@1033:31@1033:33@313:41] [debug variable = overflow]
  %brmerge.i.i5 = or i1 %underflow.5, %overflow.7, !dbg !17769 ; [#uses=1 type=i1] [debug line = 515:2@759:13@1033:31@1033:33@313:41]
  %underflow.17.not = xor i1 %underflow.5, true, !dbg !17769 ; [#uses=1 type=i1] [debug line = 515:2@759:13@1033:31@1033:33@313:41]
  %brmerge6 = or i1 %overflow.7, %underflow.17.not, !dbg !17769 ; [#uses=1 type=i1] [debug line = 515:2@759:13@1033:31@1033:33@313:41]
  %__Val2__.41.mux = select i1 %brmerge.i.i5, i21 1048575, i21 %__Val2__.36, !dbg !17769 ; [#uses=1 type=i21] [debug line = 515:2@759:13@1033:31@1033:33@313:41]
  %.__Val2__.3 = select i1 %underflow.5, i21 -1048575, i21 %__Val2__.36, !dbg !17770 ; [#uses=1 type=i21] [debug line = 567:24@759:13@1033:31@1033:33@313:41]
  %psi.V = select i1 %brmerge6, i21 %__Val2__.41.mux, i21 %.__Val2__.3, !dbg !17771 ; [#uses=1 type=i21] [debug line = 988:9@1027:12@313:41]
  call void @llvm.dbg.value(metadata !{i21 %psi.V}, i64 0, metadata !17773), !dbg !17771 ; [debug line = 988:9@1027:12@313:41] [debug variable = psi.V]
  call void (...)* @_ssdm_op_Wait(i32 1) nounwind, !dbg !17775 ; [debug line = 803:19@314:5]
  br label %._crit_edge, !dbg !17777              ; [debug line = 315:4]

._crit_edge:                                      ; preds = %_ZN7_ap_sc_7sc_core4waitEi.exit29_ifconv, %to_double.exit449, %8
  %psiMax.V = phi i21 [ %psi.1, %8 ], [ %psi.V, %_ZN7_ap_sc_7sc_core4waitEi.exit29_ifconv ], [ %psi.1, %to_double.exit449 ] ; [#uses=3 type=i21]
  %tmp.118 = icmp sgt i21 %psiMax.V, %psiMax, !dbg !17778 ; [#uses=1 type=i1] [debug line = 1884:0@316:8]
  br i1 %tmp.118, label %_ZN7_ap_sc_7sc_core4waitEi.exit4, label %_ZN7_ap_sc_7sc_core4waitEi.exit2, !dbg !17783 ; [debug line = 316:8]

_ZN7_ap_sc_7sc_core4waitEi.exit4:                 ; preds = %._crit_edge
  call void @llvm.dbg.value(metadata !{i21 %psiMax.V}, i64 0, metadata !17784), !dbg !17786 ; [debug line = 988:9@1027:12@317:6] [debug variable = psiMax.V]
  call void @llvm.dbg.value(metadata !{i9 %thresh.3}, i64 0, metadata !17790), !dbg !17791 ; [debug line = 318:5] [debug variable = thresh]
  call void (...)* @_ssdm_op_Wait(i32 1) nounwind, !dbg !17792 ; [debug line = 803:19@319:5]
  br label %_ZN7_ap_sc_7sc_core4waitEi.exit2, !dbg !17794 ; [debug line = 320:4]

_ZN7_ap_sc_7sc_core4waitEi.exit2:                 ; preds = %_ZN7_ap_sc_7sc_core4waitEi.exit4, %._crit_edge
  %psiMax.1 = phi i21 [ %psiMax.V, %_ZN7_ap_sc_7sc_core4waitEi.exit4 ], [ %psiMax, %._crit_edge ] ; [#uses=1 type=i21]
  %thresh.2 = phi i32 [ %thresh.3.cast1, %_ZN7_ap_sc_7sc_core4waitEi.exit4 ], [ %thresh.1, %._crit_edge ] ; [#uses=1 type=i32]
  call void (...)* @_ssdm_op_Wait(i32 1) nounwind, !dbg !17795 ; [debug line = 803:19@321:4]
  %i.10 = add i9 %thresh.3, 1, !dbg !17797        ; [#uses=1 type=i9] [debug line = 290:38]
  call void @llvm.dbg.value(metadata !{i9 %i.10}, i64 0, metadata !16891), !dbg !17797 ; [debug line = 290:38] [debug variable = i]
  br label %.preheader7, !dbg !17797              ; [debug line = 290:38]

_ZN7_ap_sc_7sc_core4waitEi.exit:                  ; preds = %.preheader7
  %thresh.1.lcssa = phi i32 [ %thresh.1, %.preheader7 ] ; [#uses=2 type=i32]
  %psi.1.lcssa = phi i21 [ %psi.1, %.preheader7 ] ; [#uses=1 type=i21]
  store i32 %thresh.1.lcssa, i32* %WBSlave.PBuffer.addr, align 4, !dbg !16611 ; [debug line = 324:3]
  %WBSlave.STAT_ADDR.V.load = load i3* %WBSlave.STAT_ADDR.V, align 1, !dbg !17798 ; [#uses=1 type=i3] [debug line = 1654:70@326:8]
  %tmp.61 = zext i3 %WBSlave.STAT_ADDR.V.load to i64, !dbg !17799 ; [#uses=1 type=i64] [debug line = 326:8]
  %WBSlave.regs.addr.8 = getelementptr [16 x i32]* %WBSlave.regs, i64 0, i64 %tmp.61, !dbg !17799 ; [#uses=3 type=i32*] [debug line = 326:8]
  %WBSlave.regs.load.11 = load i32* %WBSlave.regs.addr.8, align 4, !dbg !17799 ; [#uses=1 type=i32] [debug line = 326:8]
  %tmp.62 = or i32 %WBSlave.regs.load.11, 1, !dbg !17799 ; [#uses=1 type=i32] [debug line = 326:8]
  store i32 %tmp.62, i32* %WBSlave.regs.addr.8, align 4, !dbg !17799 ; [debug line = 326:8]
  call void (...)* @_ssdm_op_Wait(i32 1) nounwind, !dbg !17800 ; [debug line = 328:6]
  %WBSlave.regs.load.12 = load i32* %WBSlave.regs.addr, align 4, !dbg !17802 ; [#uses=1 type=i32] [debug line = 328:41]
  %tmp.63 = icmp eq i32 %WBSlave.regs.load.12, 0, !dbg !17802 ; [#uses=1 type=i1] [debug line = 328:41]
  call void (...)* @_ssdm_op_Poll(i1 %tmp.63), !dbg !17803 ; [debug line = 328:61]
  store i32 0, i32* %WBSlave.regs.addr.8, align 4, !dbg !17804 ; [debug line = 331:8]
  call void (...)* @_ssdm_op_Wait(i32 1) nounwind, !dbg !17805 ; [debug line = 803:19@332:3]
  br label %_ZN7_ap_sc_7sc_core4waitEi.exit6, !dbg !17807 ; [debug line = 333:5]
}

; [#uses=1]
define void @"WBSlave::getLog"(i1* %WBSlave.clk.m_if.Val, i1* %WBSlave.reset.m_if.Val, i32* %WBSlave.adr_i.m_if.Val.V, i32* %WBSlave.dat_i.m_if.Val.V, i1* %WBSlave.we_i.m_if.Val, i1* %WBSlave.stb_i.m_if.Val, i1* %WBSlave.cyc_i.m_if.Val, i4* %WBSlave.sel_i.m_if.Val.V, i32* %WBSlave.dat_o.m_if.Val.V, i1* %WBSlave.ack_o.m_if.Val, i1* %WBSlave.int_o.m_if.Val, [16 x i32]* %WBSlave.regs, [500 x i32]* %WBSlave.PBuffer, i3* %WBSlave.CTRL_ADDR.V, i3* %WBSlave.STAT_ADDR.V, i21* %WBSlave.log_in.V, i21* %WBSlave.log_out.V, i1* %WBSlave.log_start.V, i1* %WBSlave.log_done.V, i3* %WBSlave.REG0_ADDR.V, i3* %WBSlave.REG1_ADDR.V, i3* %WBSlave.REG2_ADDR.V, i3* %WBSlave.REG3_ADDR.V, i3* %WBSlave.REG4_ADDR.V, i3* %WBSlave.DELAY_ADDR.V, i3* %WBSlave.LAST_ADDR.V) {
codeRepl:
  call void (...)* @_ssdm_op_SpecBitsMap(i1* %WBSlave.clk.m_if.Val), !map !15766
  call void (...)* @_ssdm_op_SpecBitsMap(i1* %WBSlave.reset.m_if.Val), !map !15770
  call void (...)* @_ssdm_op_SpecBitsMap(i32* %WBSlave.adr_i.m_if.Val.V), !map !15774
  call void (...)* @_ssdm_op_SpecBitsMap(i32* %WBSlave.dat_i.m_if.Val.V), !map !15778
  call void (...)* @_ssdm_op_SpecBitsMap(i1* %WBSlave.we_i.m_if.Val), !map !15782
  call void (...)* @_ssdm_op_SpecBitsMap(i1* %WBSlave.stb_i.m_if.Val), !map !15786
  call void (...)* @_ssdm_op_SpecBitsMap(i1* %WBSlave.cyc_i.m_if.Val), !map !15790
  call void (...)* @_ssdm_op_SpecBitsMap(i4* %WBSlave.sel_i.m_if.Val.V), !map !15794
  call void (...)* @_ssdm_op_SpecBitsMap(i32* %WBSlave.dat_o.m_if.Val.V), !map !15798
  call void (...)* @_ssdm_op_SpecBitsMap(i1* %WBSlave.ack_o.m_if.Val), !map !15802
  call void (...)* @_ssdm_op_SpecBitsMap(i1* %WBSlave.int_o.m_if.Val), !map !15806
  call void (...)* @_ssdm_op_SpecBitsMap([16 x i32]* %WBSlave.regs), !map !15810
  call void (...)* @_ssdm_op_SpecBitsMap([500 x i32]* %WBSlave.PBuffer), !map !15814
  call void (...)* @_ssdm_op_SpecBitsMap(i3* %WBSlave.CTRL_ADDR.V), !map !15818
  call void (...)* @_ssdm_op_SpecBitsMap(i3* %WBSlave.STAT_ADDR.V), !map !15822
  call void (...)* @_ssdm_op_SpecBitsMap(i21* %WBSlave.log_in.V), !map !15826
  call void (...)* @_ssdm_op_SpecBitsMap(i21* %WBSlave.log_out.V), !map !15830
  call void (...)* @_ssdm_op_SpecBitsMap(i1* %WBSlave.log_start.V), !map !15834
  call void (...)* @_ssdm_op_SpecBitsMap(i1* %WBSlave.log_done.V), !map !15838
  call void (...)* @_ssdm_op_SpecBitsMap(i3* %WBSlave.REG0_ADDR.V), !map !15842
  call void (...)* @_ssdm_op_SpecBitsMap(i3* %WBSlave.REG1_ADDR.V), !map !15846
  call void (...)* @_ssdm_op_SpecBitsMap(i3* %WBSlave.REG2_ADDR.V), !map !15850
  call void (...)* @_ssdm_op_SpecBitsMap(i3* %WBSlave.REG3_ADDR.V), !map !15854
  call void (...)* @_ssdm_op_SpecBitsMap(i3* %WBSlave.REG4_ADDR.V), !map !15858
  call void (...)* @_ssdm_op_SpecBitsMap(i3* %WBSlave.DELAY_ADDR.V), !map !15862
  call void (...)* @_ssdm_op_SpecBitsMap(i3* %WBSlave.LAST_ADDR.V), !map !15866
  call void @llvm.dbg.value(metadata !{i1* %WBSlave.clk.m_if.Val}, i64 0, metadata !17808), !dbg !17810 ; [debug line = 24:15] [debug variable = WBSlave.clk.m_if.Val]
  call void @llvm.dbg.value(metadata !{i1* %WBSlave.reset.m_if.Val}, i64 0, metadata !17811), !dbg !17810 ; [debug line = 24:15] [debug variable = WBSlave.reset.m_if.Val]
  call void @llvm.dbg.value(metadata !{i32* %WBSlave.adr_i.m_if.Val.V}, i64 0, metadata !17812), !dbg !17810 ; [debug line = 24:15] [debug variable = WBSlave.adr_i.m_if.Val.V]
  call void @llvm.dbg.value(metadata !{i32* %WBSlave.dat_i.m_if.Val.V}, i64 0, metadata !17813), !dbg !17810 ; [debug line = 24:15] [debug variable = WBSlave.dat_i.m_if.Val.V]
  call void @llvm.dbg.value(metadata !{i1* %WBSlave.we_i.m_if.Val}, i64 0, metadata !17814), !dbg !17810 ; [debug line = 24:15] [debug variable = WBSlave.we_i.m_if.Val]
  call void @llvm.dbg.value(metadata !{i1* %WBSlave.stb_i.m_if.Val}, i64 0, metadata !17815), !dbg !17810 ; [debug line = 24:15] [debug variable = WBSlave.stb_i.m_if.Val]
  call void @llvm.dbg.value(metadata !{i1* %WBSlave.cyc_i.m_if.Val}, i64 0, metadata !17816), !dbg !17810 ; [debug line = 24:15] [debug variable = WBSlave.cyc_i.m_if.Val]
  call void @llvm.dbg.value(metadata !{i4* %WBSlave.sel_i.m_if.Val.V}, i64 0, metadata !17817), !dbg !17810 ; [debug line = 24:15] [debug variable = WBSlave.sel_i.m_if.Val.V]
  call void @llvm.dbg.value(metadata !{i32* %WBSlave.dat_o.m_if.Val.V}, i64 0, metadata !17818), !dbg !17810 ; [debug line = 24:15] [debug variable = WBSlave.dat_o.m_if.Val.V]
  call void @llvm.dbg.value(metadata !{i1* %WBSlave.ack_o.m_if.Val}, i64 0, metadata !17819), !dbg !17810 ; [debug line = 24:15] [debug variable = WBSlave.ack_o.m_if.Val]
  call void @llvm.dbg.value(metadata !{i1* %WBSlave.int_o.m_if.Val}, i64 0, metadata !17820), !dbg !17810 ; [debug line = 24:15] [debug variable = WBSlave.int_o.m_if.Val]
  call void @llvm.dbg.value(metadata !{[16 x i32]* %WBSlave.regs}, i64 0, metadata !17821), !dbg !17810 ; [debug line = 24:15] [debug variable = WBSlave.regs]
  call void @llvm.dbg.value(metadata !{[500 x i32]* %WBSlave.PBuffer}, i64 0, metadata !17822), !dbg !17810 ; [debug line = 24:15] [debug variable = WBSlave.PBuffer]
  call void @llvm.dbg.value(metadata !{i3* %WBSlave.CTRL_ADDR.V}, i64 0, metadata !17823), !dbg !17810 ; [debug line = 24:15] [debug variable = WBSlave.CTRL_ADDR.V]
  call void @llvm.dbg.value(metadata !{i3* %WBSlave.STAT_ADDR.V}, i64 0, metadata !17824), !dbg !17810 ; [debug line = 24:15] [debug variable = WBSlave.STAT_ADDR.V]
  call void @llvm.dbg.value(metadata !{i21* %WBSlave.log_in.V}, i64 0, metadata !17825), !dbg !17810 ; [debug line = 24:15] [debug variable = WBSlave.log_in.V]
  call void @llvm.dbg.value(metadata !{i21* %WBSlave.log_out.V}, i64 0, metadata !17826), !dbg !17810 ; [debug line = 24:15] [debug variable = WBSlave.log_out.V]
  call void @llvm.dbg.value(metadata !{i1* %WBSlave.log_start.V}, i64 0, metadata !17827), !dbg !17810 ; [debug line = 24:15] [debug variable = WBSlave.log_start.V]
  call void @llvm.dbg.value(metadata !{i1* %WBSlave.log_done.V}, i64 0, metadata !17828), !dbg !17810 ; [debug line = 24:15] [debug variable = WBSlave.log_done.V]
  call void @llvm.dbg.value(metadata !{i3* %WBSlave.REG0_ADDR.V}, i64 0, metadata !17829), !dbg !17810 ; [debug line = 24:15] [debug variable = WBSlave.REG0_ADDR.V]
  call void @llvm.dbg.value(metadata !{i3* %WBSlave.REG1_ADDR.V}, i64 0, metadata !17830), !dbg !17810 ; [debug line = 24:15] [debug variable = WBSlave.REG1_ADDR.V]
  call void @llvm.dbg.value(metadata !{i3* %WBSlave.REG2_ADDR.V}, i64 0, metadata !17831), !dbg !17810 ; [debug line = 24:15] [debug variable = WBSlave.REG2_ADDR.V]
  call void @llvm.dbg.value(metadata !{i3* %WBSlave.REG3_ADDR.V}, i64 0, metadata !17832), !dbg !17810 ; [debug line = 24:15] [debug variable = WBSlave.REG3_ADDR.V]
  call void @llvm.dbg.value(metadata !{i3* %WBSlave.REG4_ADDR.V}, i64 0, metadata !17833), !dbg !17810 ; [debug line = 24:15] [debug variable = WBSlave.REG4_ADDR.V]
  call void @llvm.dbg.value(metadata !{i3* %WBSlave.DELAY_ADDR.V}, i64 0, metadata !17834), !dbg !17810 ; [debug line = 24:15] [debug variable = WBSlave.DELAY_ADDR.V]
  call void @llvm.dbg.value(metadata !{i3* %WBSlave.LAST_ADDR.V}, i64 0, metadata !17835), !dbg !17810 ; [debug line = 24:15] [debug variable = WBSlave.LAST_ADDR.V]
  call void (...)* @_ssdm_op_SpecPort([8 x i8]* @.str8, i32 0, [7 x i8]* @.str14, [4 x i8]* @.str10, i32 0, i32 0, i1* %WBSlave.clk.m_if.Val) nounwind, !dbg !17836 ; [debug line = 25:4]
  call void (...)* @_ssdm_op_SpecPort([8 x i8]* @.str8, i32 0, [7 x i8]* @.str14, [6 x i8]* @.str11, i32 0, i32 0, i1* %WBSlave.reset.m_if.Val) nounwind, !dbg !17838 ; [debug line = 26:3]
  call void (...)* @_ssdm_op_SpecPort([8 x i8]* @.str8, i32 0, [8 x i8]* @.str15, [6 x i8]* @.str16, i32 0, i32 0, i32* %WBSlave.adr_i.m_if.Val.V) nounwind, !dbg !17839 ; [debug line = 27:3]
  call void (...)* @_ssdm_op_SpecPort([8 x i8]* @.str8, i32 0, [8 x i8]* @.str15, [6 x i8]* @.str17, i32 0, i32 0, i32* %WBSlave.dat_i.m_if.Val.V) nounwind, !dbg !17840 ; [debug line = 28:3]
  call void (...)* @_ssdm_op_SpecPort([8 x i8]* @.str8, i32 0, [7 x i8]* @.str14, [5 x i8]* @.str18, i32 0, i32 0, i1* %WBSlave.we_i.m_if.Val) nounwind, !dbg !17841 ; [debug line = 29:3]
  call void (...)* @_ssdm_op_SpecPort([8 x i8]* @.str8, i32 0, [7 x i8]* @.str14, [6 x i8]* @.str19, i32 0, i32 0, i1* %WBSlave.stb_i.m_if.Val) nounwind, !dbg !17842 ; [debug line = 30:3]
  call void (...)* @_ssdm_op_SpecPort([8 x i8]* @.str8, i32 0, [7 x i8]* @.str14, [6 x i8]* @.str20, i32 0, i32 0, i1* %WBSlave.cyc_i.m_if.Val) nounwind, !dbg !17843 ; [debug line = 31:3]
  call void (...)* @_ssdm_op_SpecPort([8 x i8]* @.str8, i32 0, [31 x i8]* @.str21, [6 x i8]* @.str22, i32 0, i32 0, i4* %WBSlave.sel_i.m_if.Val.V) nounwind, !dbg !17844 ; [debug line = 32:3]
  call void (...)* @_ssdm_op_SpecPort([8 x i8]* @.str8, i32 1, [8 x i8]* @.str15, [6 x i8]* @.str23, i32 0, i32 0, i32* %WBSlave.dat_o.m_if.Val.V) nounwind, !dbg !17845 ; [debug line = 33:3]
  call void (...)* @_ssdm_op_SpecPort([8 x i8]* @.str8, i32 1, [7 x i8]* @.str14, [6 x i8]* @.str24, i32 0, i32 0, i1* %WBSlave.ack_o.m_if.Val) nounwind, !dbg !17846 ; [debug line = 34:3]
  call void (...)* @_ssdm_op_SpecPort([8 x i8]* @.str8, i32 1, [7 x i8]* @.str14, [6 x i8]* @.str25, i32 0, i32 0, i1* %WBSlave.int_o.m_if.Val) nounwind, !dbg !17847 ; [debug line = 35:3]
  call void (...)* @_ssdm_op_SpecProcessDef([8 x i8]* @.str8, i32 2, [7 x i8]* @.str13) nounwind, !dbg !17848 ; [debug line = 36:3]
  %tmp = call i32 (...)* @_ssdm_op_SpecRegionBegin([15 x i8]* @.str42), !dbg !17849 ; [#uses=1 type=i32] [debug line = 36:105]
  call void (...)* @_ssdm_op_SpecProtocol(i32 1, [1 x i8]* @.str43) nounwind, !dbg !17850 ; [debug line = 36:189]
  %_ssdm_reset_v = call i32 (...)* @_ssdm_op_SpecStateBegin(i32 0, i32 0, i32 1) nounwind, !dbg !17851 ; [#uses=1 type=i32] [debug line = 36:239]
  call void @llvm.dbg.value(metadata !{i32 %_ssdm_reset_v}, i64 0, metadata !17852), !dbg !17851 ; [debug line = 36:239] [debug variable = _ssdm_reset_v]
  store i1 false, i1* %WBSlave.log_start.V, align 1, !dbg !17853 ; [debug line = 378:13@184:1]
  store i1 false, i1* %WBSlave.log_done.V, align 1, !dbg !17855 ; [debug line = 378:13@185:1]
  %0 = call i32 (...)* @_ssdm_op_SpecStateEnd(i32 %_ssdm_reset_v) nounwind, !dbg !17857 ; [#uses=0 type=i32] [debug line = 185:17]
  %1 = call i32 (...)* @_ssdm_op_SpecRegionEnd([15 x i8]* @.str42, i32 %tmp), !dbg !17858 ; [#uses=0 type=i32] [debug line = 185:55]
  %__Val2__.42 = load i21* %WBSlave.log_in.V, align 4, !dbg !17859 ; [#uses=7 type=i21] [debug line = 1081:13@1898:85@189:6]
  br label %_ZN7_ap_sc_7sc_core4waitEi.exit4, !dbg !17863 ; [debug line = 185:90]

_ZN7_ap_sc_7sc_core4waitEi.exit4:                 ; preds = %7, %codeRepl
  %loop_begin = call i32 (...)* @_ssdm_op_SpecLoopBegin() nounwind ; [#uses=0 type=i32]
  call void (...)* @_ssdm_op_Wait(i32 1) nounwind, !dbg !17864 ; [debug line = 187:6]
  %WBSlave.log_start.V.load = load i1* %WBSlave.log_start.V, align 1, !dbg !17866 ; [#uses=2 type=i1] [debug line = 1973:9@3722:144@187:36]
  call void (...)* @_ssdm_op_Poll(i1 %WBSlave.log_start.V.load), !dbg !17869 ; [debug line = 187:55]
  call void (...)* @_ssdm_op_Wait(i32 1) nounwind, !dbg !17870 ; [debug line = 803:19@188:3]
  %tmp. = icmp eq i21 %__Val2__.42, 0, !dbg !17859 ; [#uses=1 type=i1] [debug line = 1081:13@1898:85@189:6]
  br i1 %tmp., label %.preheader.preheader, label %to_double.exit, !dbg !17859 ; [debug line = 1081:13@1898:85@189:6]

to_double.exit:                                   ; preds = %_ZN7_ap_sc_7sc_core4waitEi.exit4
  %dp.11 = sitofp i21 %__Val2__.42 to double, !dbg !17872 ; [#uses=1 type=double] [debug line = 1083:32@1898:85@189:6]
  call void @llvm.dbg.value(metadata !{double %dp.11}, i64 0, metadata !17873) nounwind, !dbg !17872 ; [debug line = 1083:32@1898:85@189:6] [debug variable = dp]
  call void @llvm.dbg.value(metadata !{double %dp.11}, i64 0, metadata !17874) nounwind, !dbg !17876 ; [debug line = 837:85@1085:21@1898:85@189:6] [debug variable = pf]
  %res.V = bitcast double %dp.11 to i64, !dbg !17877 ; [#uses=2 type=i64] [debug line = 842:9@1085:21@1898:85@189:6]
  call void @llvm.dbg.value(metadata !{i64 %res.V}, i64 0, metadata !17878) nounwind, !dbg !17875 ; [debug line = 1085:21@1898:85@189:6] [debug variable = res.V]
  call void @llvm.dbg.value(metadata !{i64 %res.V}, i64 0, metadata !17879) nounwind, !dbg !17880 ; [debug line = 1087:84@1898:85@189:6] [debug variable = __Val2__]
  %exp.V = call i11 @_ssdm_op_PartSelect.i11.i64.i32.i32(i64 %res.V, i32 52, i32 62), !dbg !17881 ; [#uses=1 type=i11] [debug line = 1087:86@1898:85@189:6]
  call void @llvm.dbg.value(metadata !{i11 %exp.V}, i64 0, metadata !17882) nounwind, !dbg !17883 ; [debug line = 1087:175@1898:85@189:6] [debug variable = exp.V]
  %exp.V.11 = add i11 %exp.V, -16, !dbg !17884    ; [#uses=2 type=i11] [debug line = 1819:147@3734:159@1088:13@1898:85@189:6]
  call void @llvm.dbg.value(metadata !{i11 %exp.V.11}, i64 0, metadata !17887) nounwind, !dbg !17884 ; [debug line = 1819:147@3734:159@1088:13@1898:85@189:6] [debug variable = exp.V]
  call void @llvm.dbg.value(metadata !{i64 %res.V}, i64 0, metadata !17888) nounwind, !dbg !17889 ; [debug line = 1089:84@1898:85@189:6] [debug variable = __Val2__]
  call void @llvm.dbg.value(metadata !{i11 %exp.V.11}, i64 0, metadata !17890) nounwind, !dbg !17891 ; [debug line = 1089:117@1898:85@189:6] [debug variable = __Repl2__]
  %__Result__ = call i64 @llvm.part.set.i64.i11(i64 %res.V, i11 %exp.V.11, i32 52, i32 62) nounwind, !dbg !17892 ; [#uses=2 type=i64] [debug line = 1089:119@1898:85@189:6]
  call void @llvm.dbg.value(metadata !{i64 %__Result__}, i64 0, metadata !17893) nounwind, !dbg !17892 ; [debug line = 1089:119@1898:85@189:6] [debug variable = __Result__]
  call void @llvm.dbg.value(metadata !{i64 %__Result__}, i64 0, metadata !17878) nounwind, !dbg !17894 ; [debug line = 1089:226@1898:85@189:6] [debug variable = res.V]
  call void @llvm.dbg.value(metadata !{i64 %__Result__}, i64 0, metadata !17895) nounwind, !dbg !17897 ; [debug line = 854:85@1090:34@1898:85@189:6] [debug variable = pi]
  %dp = bitcast i64 %__Result__ to double, !dbg !17898 ; [#uses=1 type=double] [debug line = 860:9@1090:34@1898:85@189:6]
  call void @llvm.dbg.value(metadata !{double %dp}, i64 0, metadata !17873) nounwind, !dbg !17896 ; [debug line = 1090:34@1898:85@189:6] [debug variable = dp]
  %tmp.124 = trunc i64 %__Result__ to i52         ; [#uses=1 type=i52]
  %notlhs = icmp ne i11 %exp.V.11, -1             ; [#uses=1 type=i1]
  %notrhs = icmp eq i52 %tmp.124, 0               ; [#uses=1 type=i1]
  %tmp.125 = or i1 %notrhs, %notlhs               ; [#uses=1 type=i1]
  %tmp.126 = fcmp olt double %dp, 1.000000e-01, !dbg !17899 ; [#uses=1 type=i1] [debug line = 1091:13@1898:85@189:6]
  %tmp.127 = and i1 %tmp.125, %tmp.126, !dbg !17899 ; [#uses=1 type=i1] [debug line = 1091:13@1898:85@189:6]
  br i1 %tmp.127, label %.preheader.preheader, label %_ifconv2, !dbg !17861 ; [debug line = 189:6]

.preheader.preheader:                             ; preds = %to_double.exit, %_ZN7_ap_sc_7sc_core4waitEi.exit4
  br label %.preheader, !dbg !17900               ; [debug line = 190:8]

.preheader:                                       ; preds = %_ZN7_ap_sc_7sc_core4waitEi.exit20, %.preheader.preheader
  %i = phi i6 [ %i.11, %_ZN7_ap_sc_7sc_core4waitEi.exit20 ], [ 0, %.preheader.preheader ] ; [#uses=4 type=i6]
  %tmp.133 = icmp ult i6 %i, -29, !dbg !17900     ; [#uses=1 type=i1] [debug line = 190:8]
  br i1 %tmp.133, label %2, label %.loopexit, !dbg !17900 ; [debug line = 190:8]

; <label>:2                                       ; preds = %.preheader
  %tmp.134 = zext i6 %i to i64, !dbg !17903       ; [#uses=3 type=i64] [debug line = 191:8]
  %inputLUT.V.addr = getelementptr [36 x i13]* @inputLUT.V, i64 0, i64 %tmp.134, !dbg !17905 ; [#uses=1 type=i13*] [debug line = 1882:0@191:8]
  %inputLUT.V.load = load i13* %inputLUT.V.addr, align 2, !dbg !17905 ; [#uses=1 type=i13] [debug line = 1882:0@191:8]
  %inputLUT.V.load.cast = zext i13 %inputLUT.V.load to i21, !dbg !17905 ; [#uses=2 type=i21] [debug line = 1882:0@191:8]
  %tmp.135 = icmp eq i21 %__Val2__.42, %inputLUT.V.load.cast, !dbg !17905 ; [#uses=1 type=i1] [debug line = 1882:0@191:8]
  br i1 %tmp.135, label %_ZN7_ap_sc_7sc_core4waitEi.exit6, label %3, !dbg !17903 ; [debug line = 191:8]

_ZN7_ap_sc_7sc_core4waitEi.exit6:                 ; preds = %2
  %tmp.138.lcssa = phi i64 [ %tmp.134, %2 ]       ; [#uses=1 type=i64]
  call void @llvm.dbg.value(metadata !{i21* %WBSlave.log_out.V}, i64 0, metadata !17908), !dbg !17912 ; [debug line = 1027:12@192:6] [debug variable = ssdm_int<21 + 1024 * 0, true>.V]
  %logLUT.V.addr = getelementptr [36 x i21]* @logLUT.V, i64 0, i64 %tmp.138.lcssa, !dbg !17913 ; [#uses=1 type=i21*] [debug line = 988:9@1027:12@192:6]
  %logLUT.V.load = load i21* %logLUT.V.addr, align 4, !dbg !17913 ; [#uses=1 type=i21] [debug line = 988:9@1027:12@192:6]
  store i21 %logLUT.V.load, i21* %WBSlave.log_out.V, align 4, !dbg !17913 ; [debug line = 988:9@1027:12@192:6]
  store i1 true, i1* %WBSlave.log_done.V, align 1, !dbg !17915 ; [debug line = 378:13@193:26]
  call void (...)* @_ssdm_op_Wait(i32 1) nounwind, !dbg !17917 ; [debug line = 803:19@194:6]
  br label %.loopexit, !dbg !17919                ; [debug line = 195:6]

; <label>:3                                       ; preds = %2
  %tmp.142 = icmp sgt i21 %__Val2__.42, %inputLUT.V.load.cast, !dbg !17920 ; [#uses=1 type=i1] [debug line = 1884:0@197:9]
  br i1 %tmp.142, label %4, label %_ZN7_ap_sc_7sc_core4waitEi.exit20, !dbg !17921 ; [debug line = 197:9]

; <label>:4                                       ; preds = %3
  %tmp.143 = add i6 %i, 1, !dbg !17922            ; [#uses=1 type=i6] [debug line = 197:33]
  %tmp.144 = zext i6 %tmp.143 to i64, !dbg !17922 ; [#uses=1 type=i64] [debug line = 197:33]
  %inputLUT.V.addr.1 = getelementptr [36 x i13]* @inputLUT.V, i64 0, i64 %tmp.144, !dbg !17923 ; [#uses=1 type=i13*] [debug line = 1886:0@197:33]
  %inputLUT.V.load.1 = load i13* %inputLUT.V.addr.1, align 2, !dbg !17923 ; [#uses=1 type=i13] [debug line = 1886:0@197:33]
  %inputLUT.V.load.1.cast = zext i13 %inputLUT.V.load.1 to i21, !dbg !17923 ; [#uses=1 type=i21] [debug line = 1886:0@197:33]
  %tmp.145 = icmp slt i21 %__Val2__.42, %inputLUT.V.load.1.cast, !dbg !17923 ; [#uses=1 type=i1] [debug line = 1886:0@197:33]
  br i1 %tmp.145, label %_ZN7_ap_sc_7sc_core4waitEi.exit12_ifconv, label %_ZN7_ap_sc_7sc_core4waitEi.exit20, !dbg !17922 ; [debug line = 197:33]

_ZN7_ap_sc_7sc_core4waitEi.exit12_ifconv:         ; preds = %4
  %tmp.138.lcssa1 = phi i64 [ %tmp.134, %4 ]      ; [#uses=2 type=i64]
  %gradientLUT.V.addr = getelementptr [36 x i31]* @gradientLUT.V, i64 0, i64 %tmp.138.lcssa1, !dbg !17926 ; [#uses=1 type=i31*] [debug line = 1293:9@198:16]
  %gradientLUT.V.load = load i31* %gradientLUT.V.addr, align 4, !dbg !17926 ; [#uses=1 type=i31] [debug line = 1293:9@198:16]
  %OP1.V.cast = zext i31 %gradientLUT.V.load to i44, !dbg !17926 ; [#uses=1 type=i44] [debug line = 1293:9@198:16]
  %OP2.V.cast = zext i21 %__Val2__.42 to i44, !dbg !17931 ; [#uses=1 type=i44] [debug line = 1295:9@198:16]
  %__Val2__.53 = mul i44 %OP1.V.cast, %OP2.V.cast, !dbg !17932 ; [#uses=4 type=i44] [debug line = 1296:9@198:16]
  call void @llvm.dbg.value(metadata !{i44 %__Val2__.53}, i64 0, metadata !17933) nounwind, !dbg !17945 ; [debug line = 663:0@1033:31@1033:33@198:16] [debug variable = __Val2__]
  %tmp.146 = lshr i44 %__Val2__.53, 16, !dbg !17946 ; [#uses=1 type=i44] [debug line = 670:17@1033:31@1033:33@198:16]
  %__Val2__.54 = trunc i44 %tmp.146 to i21, !dbg !17946 ; [#uses=1 type=i21] [debug line = 670:17@1033:31@1033:33@198:16]
  call void @llvm.dbg.value(metadata !{i44 %__Val2__.53}, i64 0, metadata !17948) nounwind, !dbg !17951 ; [debug line = 677:0@1033:31@1033:33@198:16] [debug variable = __Val2__]
  %qbit = call i1 @_ssdm_op_PartSelect.i1.i44.i32.i32(i44 %__Val2__.53, i32 15, i32 15), !dbg !17951 ; [#uses=1 type=i1] [debug line = 677:0@1033:31@1033:33@198:16]
  call void @llvm.dbg.value(metadata !{i1 %qbit}, i64 0, metadata !17952) nounwind, !dbg !17951 ; [debug line = 677:0@1033:31@1033:33@198:16] [debug variable = qbit]
  call void @llvm.dbg.value(metadata !{i1 %qbit}, i64 0, metadata !17953) nounwind, !dbg !17954 ; [debug line = 679:73@1033:31@1033:33@198:16] [debug variable = qb]
  call void @llvm.dbg.value(metadata !{i44 %__Val2__.53}, i64 0, metadata !17955) nounwind, !dbg !17957 ; [debug line = 682:0@1033:31@1033:33@198:16] [debug variable = __Val2__]
  call void @llvm.dbg.value(metadata !{i1 %qbit}, i64 0, metadata !17958) nounwind, !dbg !17960 ; [debug line = 583:61@685:25@1033:31@1033:33@198:16] [debug variable = qb]
  call void @llvm.dbg.value(metadata !{i21 %__Val2__.54}, i64 0, metadata !17961) nounwind, !dbg !17962 ; [debug line = 587:88@685:25@1033:31@1033:33@198:16] [debug variable = __Val2__]
  %__Result__.39 = call i1 @_ssdm_op_PartSelect.i1.i44.i32.i32(i44 %__Val2__.53, i32 36, i32 36), !dbg !17963 ; [#uses=1 type=i1] [debug line = 587:90@685:25@1033:31@1033:33@198:16]
  call void @llvm.dbg.value(metadata !{i21 %__Val2__.54}, i64 0, metadata !17964) nounwind, !dbg !17965 ; [debug line = 597:88@685:25@1033:31@1033:33@198:16] [debug variable = __Val2__]
  %tmp.147 = zext i1 %qbit to i21, !dbg !17966    ; [#uses=1 type=i21] [debug line = 600:9@685:25@1033:31@1033:33@198:16]
  %__Val2__.55 = add i21 %__Val2__.54, %tmp.147, !dbg !17966 ; [#uses=2 type=i21] [debug line = 600:9@685:25@1033:31@1033:33@198:16]
  %__Val2__.67.cast = trunc i21 %__Val2__.55 to i20, !dbg !17967 ; [#uses=1 type=i20] [debug line = 602:100@685:25@1033:31@1033:33@198:16]
  call void @llvm.dbg.value(metadata !{i21 %__Val2__.55}, i64 0, metadata !17968) nounwind, !dbg !17967 ; [debug line = 602:100@685:25@1033:31@1033:33@198:16] [debug variable = __Val2__]
  %newsignbit = call i1 @_ssdm_op_PartSelect.i1.i21.i32.i32(i21 %__Val2__.55, i32 20, i32 20), !dbg !17969 ; [#uses=2 type=i1] [debug line = 602:102@685:25@1033:31@1033:33@198:16]
  %tmp.148 = xor i1 %newsignbit, true, !dbg !17970 ; [#uses=1 type=i1] [debug line = 602:213@685:25@1033:31@1033:33@198:16]
  %carry = and i1 %__Result__.39, %tmp.148, !dbg !17959 ; [#uses=1 type=i1] [debug line = 685:25@1033:31@1033:33@198:16]
  call void @llvm.dbg.value(metadata !{i1 %carry}, i64 0, metadata !17971) nounwind, !dbg !17959 ; [debug line = 685:25@1033:31@1033:33@198:16] [debug variable = carry]
  call void @llvm.dbg.value(metadata !{i21 %__Val2__.55}, i64 0, metadata !17972) nounwind, !dbg !17975 ; [debug line = 705:100@1033:31@1033:33@198:16] [debug variable = __Val2__]
  call void @llvm.dbg.value(metadata !{i1 %newsignbit}, i64 0, metadata !17976) nounwind, !dbg !17977 ; [debug line = 705:213@1033:31@1033:33@198:16] [debug variable = newsignbit]
  call void @llvm.dbg.value(metadata !{i44 %__Val2__.53}, i64 0, metadata !17978) nounwind, !dbg !17980 ; [debug line = 709:0@1033:31@1033:33@198:16] [debug variable = __Val2__]
  call void @llvm.dbg.value(metadata !{i44 %__Val2__.53}, i64 0, metadata !17981) nounwind, !dbg !17985 ; [debug line = 723:0@1033:31@1033:33@198:16] [debug variable = __Val2__]
  call void @llvm.dbg.value(metadata !{i44 %__Val2__.53}, i64 0, metadata !17986) nounwind, !dbg !17989 ; [debug line = 731:0@1033:31@1033:33@198:16] [debug variable = __Val2__]
  %tmp.172 = call i7 @_ssdm_op_PartSelect.i7.i44.i32.i32(i44 %__Val2__.53, i32 37, i32 43), !dbg !17989 ; [#uses=1 type=i7] [debug line = 731:0@1033:31@1033:33@198:16]
  call void @llvm.dbg.value(metadata !{i1 %newsignbit}, i64 0, metadata !17990) nounwind, !dbg !17991 ; [debug line = 752:47@1033:31@1033:33@198:16] [debug variable = neg_trg]
  %Range1_all_zeros.not = icmp ne i7 %tmp.172, 0, !dbg !17992 ; [#uses=1 type=i1] [debug line = 753:66@1033:31@1033:33@198:16]
  %tmp8 = or i1 %Range1_all_zeros.not, %newsignbit, !dbg !17992 ; [#uses=1 type=i1] [debug line = 753:66@1033:31@1033:33@198:16]
  %overflow = or i1 %tmp8, %carry, !dbg !17992    ; [#uses=1 type=i1] [debug line = 753:66@1033:31@1033:33@198:16]
  call void @llvm.dbg.value(metadata !{i1 %overflow}, i64 0, metadata !17993) nounwind, !dbg !17994 ; [debug line = 753:18@1033:31@1033:33@198:16] [debug variable = overflow]
  call void @llvm.dbg.value(metadata !{i1 %overflow}, i64 0, metadata !17995) nounwind, !dbg !17997 ; [debug line = 510:73@759:13@1033:31@1033:33@198:16] [debug variable = overflow]
  %__Val2__.56 = select i1 %overflow, i20 -1, i20 %__Val2__.67.cast, !dbg !17998 ; [#uses=1 type=i20] [debug line = 515:2@759:13@1033:31@1033:33@198:16]
  %__Val2__.68.cast = zext i20 %__Val2__.56 to i21, !dbg !17998 ; [#uses=1 type=i21] [debug line = 515:2@759:13@1033:31@1033:33@198:16]
  call void @llvm.dbg.value(metadata !{i21* %WBSlave.log_out.V}, i64 0, metadata !17999), !dbg !18001 ; [debug line = 1027:12@198:16] [debug variable = ssdm_int<21 + 1024 * 0, true>.V]
  call void (...)* @_ssdm_op_Wait(i32 1) nounwind, !dbg !18002 ; [debug line = 803:19@199:6]
  call void @llvm.dbg.value(metadata !{i20 %__Val2__.56}, i64 0, metadata !18004) nounwind, !dbg !18009 ; [debug line = 663:0@761:5@1329:0@1347:243@200:6] [debug variable = __Val2__]
  %offsetLUT.V.addr = getelementptr [36 x i21]* @offsetLUT.V, i64 0, i64 %tmp.138.lcssa1, !dbg !18009 ; [#uses=1 type=i21*] [debug line = 663:0@761:5@1329:0@1347:243@200:6]
  %__Val2__.57 = load i21* %offsetLUT.V.addr, align 4, !dbg !18009 ; [#uses=1 type=i21] [debug line = 663:0@761:5@1329:0@1347:243@200:6]
  call void @llvm.dbg.value(metadata !{i21 %__Val2__.57}, i64 0, metadata !18004) nounwind, !dbg !18009 ; [debug line = 663:0@761:5@1329:0@1347:243@200:6] [debug variable = __Val2__]
  %__Val2__.58 = add i21 %__Val2__.57, %__Val2__.68.cast, !dbg !18006 ; [#uses=5 type=i21] [debug line = 1329:0@1347:243@200:6]
  call void @llvm.dbg.value(metadata !{i21 %__Val2__.58}, i64 0, metadata !18010) nounwind, !dbg !18012 ; [debug line = 663:0@761:5@1347:243@200:6] [debug variable = __Val2__]
  %isneg = call i1 @_ssdm_op_PartSelect.i1.i21.i32.i32(i21 %__Val2__.58, i32 20, i32 20), !dbg !18012 ; [#uses=2 type=i1] [debug line = 663:0@761:5@1347:243@200:6]
  call void @llvm.dbg.value(metadata !{i1 %isneg}, i64 0, metadata !18013) nounwind, !dbg !18014 ; [debug line = 665:14@761:5@1347:243@200:6] [debug variable = isneg]
  call void @llvm.dbg.value(metadata !{i1 %isneg}, i64 0, metadata !18015) nounwind, !dbg !18016 ; [debug line = 702:33@761:5@1347:243@200:6] [debug variable = neg_src]
  call void @llvm.dbg.value(metadata !{i21 %__Val2__.58}, i64 0, metadata !18017) nounwind, !dbg !18018 ; [debug line = 705:100@761:5@1347:243@200:6] [debug variable = __Val2__]
  %newsignbit.6 = call i1 @_ssdm_op_PartSelect.i1.i21.i32.i32(i21 %__Val2__.58, i32 20, i32 20), !dbg !18019 ; [#uses=2 type=i1] [debug line = 705:102@761:5@1347:243@200:6]
  call void @llvm.dbg.value(metadata !{i1 %newsignbit.6}, i64 0, metadata !18020) nounwind, !dbg !18021 ; [debug line = 705:213@761:5@1347:243@200:6] [debug variable = newsignbit]
  call void @llvm.dbg.value(metadata !{i21 %__Val2__.58}, i64 0, metadata !18022) nounwind, !dbg !18023 ; [debug line = 709:0@761:5@1347:243@200:6] [debug variable = __Val2__]
  call void @llvm.dbg.value(metadata !{i1 %isneg}, i64 0, metadata !18024) nounwind, !dbg !18023 ; [debug line = 709:0@761:5@1347:243@200:6] [debug variable = lD]
  call void @llvm.dbg.value(metadata !{i1 %isneg}, i64 0, metadata !18025) nounwind, !dbg !18026 ; [debug line = 738:21@761:5@1347:243@200:6] [debug variable = Range1_all_ones]
  call void @llvm.dbg.value(metadata !{i1 %isneg}, i64 0, metadata !18027) nounwind, !dbg !18028 ; [debug line = 701:18@761:5@1347:243@200:6] [debug variable = deleted_ones]
  call void @llvm.dbg.value(metadata !{i1 %newsignbit.6}, i64 0, metadata !18029) nounwind, !dbg !18030 ; [debug line = 752:47@761:5@1347:243@200:6] [debug variable = neg_trg]
  %tmp.173 = xor i1 %isneg, true, !dbg !18031     ; [#uses=1 type=i1] [debug line = 510:73@759:13@761:5@1347:243@200:6]
  %overflow.12 = and i1 %newsignbit.6, %tmp.173, !dbg !18031 ; [#uses=2 type=i1] [debug line = 510:73@759:13@761:5@1347:243@200:6]
  call void @llvm.dbg.value(metadata !{i1 %overflow.12}, i64 0, metadata !18033) nounwind, !dbg !18034 ; [debug line = 753:18@761:5@1347:243@200:6] [debug variable = overflow]
  %tmp.154 = xor i1 %newsignbit.6, true, !dbg !18035 ; [#uses=1 type=i1] [debug line = 754:68@761:5@1347:243@200:6]
  call void @llvm.dbg.value(metadata !{i21 %__Val2__.58}, i64 0, metadata !18036) nounwind, !dbg !18037 ; [debug line = 757:88@761:5@1347:243@200:6] [debug variable = __Val2__]
  %__Result__.49 = call i20 @_ssdm_op_PartSelect.i20.i21.i32.i32(i21 %__Val2__.58, i32 0, i32 19), !dbg !18038 ; [#uses=1 type=i20] [debug line = 757:90@761:5@1347:243@200:6]
  %tmp.156 = icmp eq i20 %__Result__.49, 0, !dbg !18039 ; [#uses=1 type=i1] [debug line = 757:185@761:5@1347:243@200:6]
  %tmp.174 = or i1 %tmp.156, %tmp.154             ; [#uses=1 type=i1]
  %underflow = and i1 %isneg, %tmp.174            ; [#uses=3 type=i1]
  call void @llvm.dbg.value(metadata !{i1 %underflow}, i64 0, metadata !18040) nounwind, !dbg !18041 ; [debug line = 754:18@761:5@1347:243@200:6] [debug variable = underflow]
  call void @llvm.dbg.value(metadata !{i1 %underflow}, i64 0, metadata !18042) nounwind, !dbg !18043 ; [debug line = 510:57@759:13@761:5@1347:243@200:6] [debug variable = underflow]
  call void @llvm.dbg.value(metadata !{i1 %overflow.12}, i64 0, metadata !18044) nounwind, !dbg !18031 ; [debug line = 510:73@759:13@761:5@1347:243@200:6] [debug variable = overflow]
  call void @llvm.dbg.value(metadata !{i1 %isneg}, i64 0, metadata !18045) nounwind, !dbg !18046 ; [debug line = 510:87@759:13@761:5@1347:243@200:6] [debug variable = lD]
  call void @llvm.dbg.value(metadata !{i1 %isneg}, i64 0, metadata !18047) nounwind, !dbg !18048 ; [debug line = 510:96@759:13@761:5@1347:243@200:6] [debug variable = sign]
  %brmerge.i.i.i = or i1 %underflow, %overflow.12, !dbg !18049 ; [#uses=1 type=i1] [debug line = 515:2@759:13@761:5@1347:243@200:6]
  %underflow.30.not = xor i1 %underflow, true, !dbg !18049 ; [#uses=1 type=i1] [debug line = 515:2@759:13@761:5@1347:243@200:6]
  %brmerge5 = or i1 %overflow.12, %underflow.30.not, !dbg !18049 ; [#uses=1 type=i1] [debug line = 515:2@759:13@761:5@1347:243@200:6]
  %__Val2__.54.mux = select i1 %brmerge.i.i.i, i21 1048575, i21 %__Val2__.58, !dbg !18049 ; [#uses=1 type=i21] [debug line = 515:2@759:13@761:5@1347:243@200:6]
